#SYMBOLS
Index	Identifier	Type	Flag	Data	Size	RefCount
0	__signed_stack_001found	6	1	0	4	12
1	__signed_stack_002found	6	1	4	4	12
2	__signed_stack_003found	6	1	8	4	12
3	__signed_stack_001fopen	6	1	12	4	2
4	__signed_stack_001change_direction	6	1	16	4	2
5	__signed_stack_001find_left	6	1	20	4	16
6	__signed_stack_001find_right	6	1	24	4	10
7	__signed_stack_001main	6	1	28	4	205
8	__float_stack_001main	10	1	32	4	6
9	__float_stack_003main	10	1	36	4	2
10	__signed_stack_001move	6	1	40	4	24
11	__unsigned_stack_002main	5	1	44	4	8
12	__signed_stack_002main	6	1	48	4	94
13	__signed_stack_003main	6	1	52	4	12
14	__unsigned_stack_001main	5	1	56	4	4
15	__signed_stack_002adjust	6	1	60	4	2
16	__D0moveBackward	6	1	64	4	4
17	__D0moveForward	6	1	68	4	4
18	__D0package	6	1	72	4	12
19	__D0move_to	6	1	76	4	51
20	__DF0main	10	1	80	4	6
21	__D0move	6	1	84	4	40
22	__D0move_robot	6	1	88	4	28
23	__D0robot_sense	6	1	92	4	87
24	__D0victory	6	1	96	4	117
25	__D0fgets_inline_main	6	1	100	4	3
26	__signed_stack_001adjust	6	1	104	4	44
27	__D0turnRight	6	1	108	4	6
28	__D0scan_surroundings	6	1	112	4	12
29	__D0sense	6	1	116	4	36
30	__D0turnLeft	6	1	120	4	6
31	__Wait_7qG2_ms_7qG2_000_inline_scan_surroundings	5	1	124	4	10
32	__Wait_7qG2_ms_7qG2_000_inline_victory	5	1	128	4	84
33	__Wait_7qG2_ms_7qG2_000_inline_package	5	1	132	4	8
34	__fopen_7qG2_fsize_7qG2_000	5	1	136	4	4
35	__signed_stack_003victory	6	1	140	4	78
36	__fopen_default_size	5	0	144	4	1
37	__constVal37632	6	0	148	4	1
38	__Wait_7qG2_ms_7qG2_000_inline_adjust	5	1	152	4	6
39	__Wait_7qG2_ms_7qG2_000_inline_find_right	5	1	156	4	2
40	__Wait_7qG2_ms_7qG2_000_inline_turnLeft	5	1	160	4	2
41	__Wait_7qG2_ms_7qG2_000_inline_find_left	5	1	164	4	2
42	__Wait_7qG2_ms_7qG2_000_inline_turnRight	5	1	168	4	2
43	__Wait_7qG2_ms_7qG2_000_inline_found	5	1	172	4	12
44	__Wait_7qG2_ms_7qG2_000_inline_moveForward	5	1	176	4	2
45	__Wait_7qG2_ms_7qG2_000_inline_moveBackward	5	1	180	4	2
46	__signed_stack_002victory	6	1	184	4	78
47	__signed_stack_001package	6	1	188	4	8
48	__signed_stack_002package	6	1	192	4	8
49	__signed_stack_003package	6	1	196	4	8
50	__signed_stack_001moveForward	6	1	200	4	2
51	__signed_stack_001move_robot	6	1	204	4	14
52	__signed_stack_001move_to	6	1	208	4	32
53	__signed_stack_001moveBackward	6	1	212	4	2
54	__signed_stack_001robot_sense	6	1	216	4	42
55	__signed_stack_001turnLeft	6	1	220	4	2
56	__signed_stack_001turnRight	6	1	224	4	2
57	__signed_stack_001victory	6	1	228	4	78
58	__signed_stack_001sense	6	1	232	4	22
59	__signed_stack_002robot_sense	6	1	236	4	14
60	__signed_stack_003robot_sense	6	1	240	4	2
61	__signed_stack_001scan_surroundings	6	1	244	4	6
62	__main_7qG2_totalprob_7qG2_000	10	1	248	4	5
63	__main_7qG2_maxprob_7qG2_000	10	1	252	4	6
64	__constValf0P0166666667	10	0	256	4	4
65	__D0change_direction	6	1	260	4	9
66	__D0adjust	6	1	264	4	98
67	__TextOutMutex	9	0	268	4	6
68	__Wait_7qG2_ms_7qG2_000_inline_main	5	1	272	4	6
69	__main_7qG2_robp_7qG2_000	10	1	276	4	4
70	__SPTArgsMutex	9	0	280	4	100
71	__constVal32768	6	0	284	4	1
72	__OnRevMutex	9	0	288	4	6
73	__constValf0P2	10	0	292	4	1
74	__constValf0P8	10	0	296	4	2
75	__RandomTmp	5	1	300	4	6
76	__D0found	6	1	304	4	18
77	__constVal65536	6	0	308	4	1
78	__PointOutMutex	9	0	312	4	6
79	__DU0main	5	1	316	4	4
80	__D0main	6	1	320	4	237
81	__DU0fopen	5	1	324	4	2
82	__D0find_right	6	1	328	4	23
83	__D0find_left	6	1	332	4	35
84	__D0fopen	6	1	336	4	4
85	__moveForward_7qG2_seconds_7qG2_000	4	1	340	2	11
86	__main_7qG2_pNW_7qG2_004	4	1	342	2	2
87	__change_direction_7qG2_orig_7qG2_000	4	1	344	2	3
88	__adjust_7qG2_c2_7qG2_000	4	1	346	2	9
89	__change_direction_7qG2_change_7qG2_000	4	1	348	2	2
90	__fopen_7qG2_result_7qG2_000	4	1	350	2	5
91	__scan_surroundings_7qG2_nColor_7qG2_000	4	1	352	2	5
92	__fgets_7qG2_num_7qG2_000_inline_main	4	1	354	2	6
93	__move_robot_7qG2_color_7qG2_000	4	1	356	2	10
94	__main_7qG2_pNE_7qG2_004	4	1	358	2	2
95	__change_direction_7qG2_new_7qG2_000	4	1	360	2	3
96	__adjust_7qG2_c_7qG2_000	4	1	362	2	21
97	__find_right_7qG2_fColor_7qG2_000	4	1	364	2	6
98	__robot_sense_7qG2_high_7qG2_000	4	1	366	2	3
99	__robot_sense_7qG2_nColor_7qG2_000	4	1	368	2	4
100	__robot_sense_7qG2_bestColor_7qG2_000	4	1	370	2	11
101	__robot_sense_7qG2_i_7qG2_001	4	1	372	2	4
102	__find_left_7qG2_rColor_7qG2_000	4	1	374	2	5
103	__find_left_7qG2_fColor_7qG2_000	4	1	376	2	10
104	__robot_sense_7qG2_index_7qG2_001	4	1	378	2	7
105	__find_left_7qG2_angle_7qG2_000	4	1	380	2	4
106	__find_right_7qG2_rColor_7qG2_000	4	1	382	2	5
107	__moveBackward_7qG2_seconds_7qG2_000	4	1	384	2	5
108	__adjust_7qG2_miss_7qG2_000	4	1	386	2	6
109	__adjust_7qG2_angle_7qG2_000	4	1	388	2	12
110	__main_7qG2_pSE_7qG2_004	4	1	390	2	2
111	__main_7qG2_pSW_7qG2_004	4	1	392	2	2
112	__robot_sense_7qG2_iter_7qG2_000	4	1	394	2	21
113	__find_right_7qG2_angle_7qG2_000	4	1	396	2	4
114	__turnRight_7qG2_degree_7qG2_000	4	1	398	2	14
115	__turnLeft_7qG2_degree_7qG2_000	4	1	400	2	12
116	__main_7qG2_dir_7qG2_000	4	1	402	2	7
117	__move_to_7qG2_newHeading_7qG2_000	4	1	404	2	8
118	__move_to_7qG2_increment_7qG2_000	4	1	406	2	6
119	__move_to_7qG2_heading_7qG2_000	4	1	408	2	6
120	__move_to_7qG2_nColor_7qG2_000	4	1	410	2	6
121	__sense_7qG2_x_7qG2_000	4	1	412	2	5
122	__sense_7qG2_heading_7qG2_000	4	1	414	2	5
123	__constVal200	4	0	416	2	6
124	__sense_7qG2_y_7qG2_000	4	1	418	2	5
125	__sense_7qG2_dir_7qG2_000	4	1	420	2	5
126	__move_to_7qG2_sx_7qG2_000	4	1	422	2	2
127	__move_to_7qG2_s_7qG2_000	4	1	424	2	4
128	__move_to_7qG2_h_7qG2_000	4	1	426	2	3
129	__move_to_7qG2_f_7qG2_000	4	1	428	2	4
130	__move_to_7qG2_sy_7qG2_000	4	1	430	2	2
131	__move_to_7qG2_tx_7qG2_000	4	1	432	2	6
132	__move_to_7qG2_ty_7qG2_000	4	1	434	2	6
133	__move_to_7qG2_fx_7qG2_000	4	1	436	2	2
134	__move_to_7qG2_fy_7qG2_000	4	1	438	2	2
135	__sense_7qG2_func_7qG2_000	4	1	440	2	2
136	__main_7qG2_nColor_7qG2_000	4	1	442	2	3
137	__RLSMaxBytes	3	1	444	2	4
138	__RLSReturn	3	1	446	2	5
139	__main_7qG2_dest_7qG2_000	4	1	448	2	6
140	__main_7qG2_i_7qG2_000	4	1	450	2	82
141	__main_7qG2_target_7qG2_000	4	1	452	2	7
142	__sense_7qG2_out_7qG2_000	4	1	454	2	5
143	__main_7qG2_j_7qG2_000	4	1	456	2	6
144	__RLSByteCount	3	1	458	2	4
145	__constValNeg3	2	0	460	1	1
146	__constValNeg2	2	0	461	1	1
147	__move_to_return	1	1	462	1	5
148	__find_left_return	1	1	463	1	5
149	__SetSensorColorFull_7qG2_port_7qG2_000_inline_main	1	1	464	1	4
150	__find_right_return	1	1	465	1	5
151	__change_direction_return	1	1	466	1	4
152	__main_7qG2_charat_7qG2_000	1	1	467	1	13
153	__move_return	1	1	468	1	4
154	__adjust_return	1	1	469	1	14
155	__constVal60	2	0	470	1	1
156	__sense_return	1	1	471	1	10
157	____initialize_global_data_return	1	1	472	1	3
158	__constValNeg1	2	0	473	1	5
159	__main_7qG2_fd_7qG2_000	1	1	474	1	8
160	__scan_surroundings_return	1	1	475	1	4
161	__fgets_7qG2_handle_7qG2_000_inline_main	1	1	476	1	3
162	__move_robot_return	1	1	477	1	5
163	__constVal6	2	0	478	1	1
164	__constVal3	2	0	479	1	12
165	__fopen_7qG2_handle_7qG2_000	1	1	480	1	5
166	__constVal4	2	0	481	1	1
167	__found_return	1	1	482	1	3
168	__moveForward_return	1	1	483	1	12
169	__victory_return	1	1	484	1	3
170	__package_return	1	1	485	1	3
171	__RLSReturnAddress	1	1	486	1	4
172	____ResetSensorSubroutine_return	1	1	487	1	3
173	__FReadTmpByte	1	1	488	1	3
174	__constVal2	2	0	489	1	5
175	__ResetSensorPort	1	1	490	1	3
176	__fopen_return	1	1	491	1	4
177	____readStringLine_return	1	1	492	1	1
178	__ResetSensorTmp	1	1	493	1	2
179	__constVal15	2	0	494	1	1
180	__constVal32	2	0	495	1	30
181	__constVal1	2	0	496	1	16
182	__PFTmp	1	1	497	1	1
183	__constVal10	2	0	498	1	1
184	__OnRev_Tmp	2	1	499	1	6
185	__constVal13	2	0	500	1	2
186	__constVal0	2	1	501	1	49
187	__moveBackward_return	1	1	502	1	6
188	__constVal63	2	0	503	1	10
189	__constVal96	2	0	504	1	10
190	__turnRight_return	1	1	505	1	15
191	__turnLeft_return	1	1	506	1	13
192	__robot_sense_return	1	1	507	1	23
193	__move_7qG2_p_7qG2_000	8	0	4	12	22
194	__move_7qG2_p_7qG2_000.x	4	1	508	2	22
195	__move_7qG2_p_7qG2_000.y	4	1	510	2	22
196	__move_7qG2_p_7qG2_000.theta	4	1	512	2	22
197	__move_7qG2_p_7qG2_000.prob	10	1	516	4	22
198	____main_7qG2_map_7qG2_000_0	8	0	4	8	1
199	____main_7qG2_map_7qG2_000_0.NE	4	1	520	2	1
200	____main_7qG2_map_7qG2_000_0.SE	4	1	522	2	1
201	____main_7qG2_map_7qG2_000_0.SW	4	1	524	2	1
202	____main_7qG2_map_7qG2_000_0.NW	4	1	526	2	1
203	__FReadArgs	8	0	4	12	8
204	__FReadArgs.Result	3	1	528	2	8
205	__FReadArgs.FileHandle	1	1	530	1	8
206	__FReadArgs.Buffer	7	0	532	4	8
207	__FReadArgs.Buffer.Buffer_type	1	0	0	1	0
208	__FReadArgs.Length	5	1	536	4	8
209	__ArrHelper__mainparticle_219_1	8	0	4	12	10
210	__ArrHelper__mainparticle_219_1.x	4	1	540	2	10
211	__ArrHelper__mainparticle_219_1.y	4	1	542	2	10
212	__ArrHelper__mainparticle_219_1.theta	4	1	544	2	10
213	__ArrHelper__mainparticle_219_1.prob	10	1	548	4	10
214	__ArrHelper__mainintersection_219_0	8	0	4	8	12
215	__ArrHelper__mainintersection_219_0.NE	4	1	552	2	12
216	__ArrHelper__mainintersection_219_0.SE	4	1	554	2	12
217	__ArrHelper__mainintersection_219_0.SW	4	1	556	2	12
218	__ArrHelper__mainintersection_219_0.NW	4	1	558	2	12
219	____main_7qG2_list_7qG2_000_0	8	0	4	12	1
220	____main_7qG2_list_7qG2_000_0.x	4	1	560	2	1
221	____main_7qG2_list_7qG2_000_0.y	4	1	562	2	1
222	____main_7qG2_list_7qG2_000_0.theta	4	1	564	2	1
223	____main_7qG2_list_7qG2_000_0.prob	10	1	568	4	1
224	__SPTArgs	8	0	5	8	300
225	__SPTArgs.Result	2	1	572	1	300
226	__SPTArgs.Frequency	3	1	574	2	300
227	__SPTArgs.Duration	3	1	576	2	300
228	__SPTArgs.Loop	1	1	578	1	300
229	__SPTArgs.Volume	1	1	579	1	300
230	__sense_7qG2_curr_7qG2_000	8	0	4	8	5
231	__sense_7qG2_curr_7qG2_000.NE	4	1	580	2	5
232	__sense_7qG2_curr_7qG2_000.SE	4	1	582	2	5
233	__sense_7qG2_curr_7qG2_000.SW	4	1	584	2	5
234	__sense_7qG2_curr_7qG2_000.NW	4	1	586	2	5
235	__main_7qG2_rsense_7qG2_000	8	0	4	8	5
236	__main_7qG2_rsense_7qG2_000.NE	4	1	588	2	5
237	__main_7qG2_rsense_7qG2_000.SE	4	1	590	2	5
238	__main_7qG2_rsense_7qG2_000.SW	4	1	592	2	5
239	__main_7qG2_rsense_7qG2_000.NW	4	1	594	2	5
240	__ArrHelper__mainparticle_219_0	8	0	4	12	99
241	__ArrHelper__mainparticle_219_0.x	4	1	596	2	99
242	__ArrHelper__mainparticle_219_0.y	4	1	598	2	99
243	__ArrHelper__mainparticle_219_0.theta	4	1	600	2	99
244	__ArrHelper__mainparticle_219_0.prob	10	1	604	4	99
245	__TextOutArgs	8	0	4	16	18
246	__TextOutArgs.Result	2	1	608	1	18
247	__TextOutArgs.Location	8	0	2	4	18
248	__TextOutArgs.Location.X	4	1	612	2	18
249	__TextOutArgs.Location.Y	4	1	614	2	18
250	__TextOutArgs.Text	7	0	616	4	18
251	__TextOutArgs.Text.Text_type	1	0	0	1	0
252	__TextOutArgs.Options	5	1	620	4	18
253	__PointOutArgs	8	0	3	12	12
254	__PointOutArgs.Result	2	1	624	1	12
255	__PointOutArgs.Location	8	0	2	4	12
256	__PointOutArgs.Location.X	4	1	628	2	12
257	__PointOutArgs.Location.Y	4	1	630	2	12
258	__PointOutArgs.Options	5	1	632	4	12
259	__result_move	8	0	4	12	2
260	__result_move.x	4	1	636	2	2
261	__result_move.y	4	1	638	2	2
262	__result_move.theta	4	1	640	2	2
263	__result_move.prob	10	1	644	4	2
264	__scan_surroundings_7qG2_rsense_7qG2_000	8	0	4	8	5
265	__scan_surroundings_7qG2_rsense_7qG2_000.NE	4	1	648	2	5
266	__scan_surroundings_7qG2_rsense_7qG2_000.SE	4	1	650	2	5
267	__scan_surroundings_7qG2_rsense_7qG2_000.SW	4	1	652	2	5
268	__scan_surroundings_7qG2_rsense_7qG2_000.NW	4	1	654	2	5
269	__result_scan_surroundings	8	0	4	8	2
270	__result_scan_surroundings.NE	4	1	656	2	2
271	__result_scan_surroundings.SE	4	1	658	2	2
272	__result_scan_surroundings.SW	4	1	660	2	2
273	__result_scan_surroundings.NW	4	1	662	2	2
274	__RandomArgs	8	0	1	4	2
275	__RandomArgs.Result	4	1	664	2	2
276	__FCArgs	8	0	2	4	3
277	__FCArgs.Result	3	1	668	2	3
278	__FCArgs.FileHandle	1	1	670	1	3
279	__FOArgs	8	0	4	12	15
280	__FOArgs.Result	3	1	672	2	15
281	__FOArgs.FileHandle	1	1	674	1	15
282	__FOArgs.Filename	7	0	676	4	15
283	__FOArgs.Filename.Filename_type	1	0	0	1	0
284	__FOArgs.Length	5	1	680	4	15
285	__constStr0019	7	0	684	4	1
286	__constStr0019.__constStr0019_type	1	1	0	1	0
287	__constStr0018	7	0	686	4	1
288	__constStr0018.__constStr0018_type	1	1	0	1	0
289	__constStr0022	7	0	688	4	1
290	__constStr0022.__constStr0022_type	1	1	0	1	0
291	__OUT_BC	7	0	690	4	6
292	__OUT_BC.__OUT_BC_type	1	0	0	1	0
293	__constStr0021	7	0	692	4	1
294	__constStr0021.__constStr0021_type	1	1	0	1	0
295	__constStr0020	7	0	694	4	3
296	__constStr0020.__constStr0020_type	1	1	0	1	0
297	__RLSOutput	7	0	696	4	6
298	__RLSOutput.__RLSOutput_type	1	0	0	1	0
299	__RLSBuffer	7	0	698	4	2
300	__RLSBuffer.__RLSBuffer_type	1	0	0	1	0
301	__main_7qG2_line_7qG2_000	7	0	700	4	11
302	__main_7qG2_line_7qG2_000.__main_7qG2_line_7qG2_000_type	1	0	0	1	0
303	__fgets_7qG2_str_7qG2_000_inline_main	7	0	702	4	12
304	__fgets_7qG2_str_7qG2_000_inline_main.__fgets_7qG2_str_7qG2_000_inline_main_type	1	0	0	1	0
305	__main_7qG2_list_7qG2_000	7	0	704	4	90
306	__main_7qG2_list_7qG2_000.__main_7qG2_list_7qG2_000_type	8	0	4	12	0
307	__main_7qG2_list_7qG2_000.__main_7qG2_list_7qG2_000_type.x	4	0	0	2	0
308	__main_7qG2_list_7qG2_000.__main_7qG2_list_7qG2_000_type.y	4	0	2	2	0
309	__main_7qG2_list_7qG2_000.__main_7qG2_list_7qG2_000_type.theta	4	0	4	2	0
310	__main_7qG2_list_7qG2_000.__main_7qG2_list_7qG2_000_type.prob	10	0	8	4	0
311	__constStr0017	7	0	706	4	1
312	__constStr0017.__constStr0017_type	1	1	0	1	0
313	__constStr0007	7	0	708	4	1
314	__constStr0007.__constStr0007_type	1	1	0	1	0
315	__constStr0006	7	0	710	4	2
316	__constStr0006.__constStr0006_type	1	1	0	1	0
317	__robot_sense_7qG2_sColor_7qG2_000	7	0	712	4	8
318	__robot_sense_7qG2_sColor_7qG2_000.__robot_sense_7qG2_sColor_7qG2_000_type	1	0	0	1	0
319	__constStr0008	7	0	714	4	1
320	__constStr0008.__constStr0008_type	1	1	0	1	0
321	__strbuffgets_inline_main	7	0	716	4	6
322	__strbuffgets_inline_main.__strbuffgets_inline_main_type	1	0	0	1	0
323	__strretvalrobot_sense	7	0	718	4	2
324	__strretvalrobot_sense.__strretvalrobot_sense_type	1	0	0	1	0
325	__fopen_7qG2_mode_7qG2_000	7	0	720	4	2
326	__fopen_7qG2_mode_7qG2_000.__fopen_7qG2_mode_7qG2_000_type	1	0	0	1	0
327	__fopen_7qG2_filename_7qG2_000	7	0	722	4	4
328	__fopen_7qG2_filename_7qG2_000.__fopen_7qG2_filename_7qG2_000_type	1	0	0	1	0
329	__robot_sense_7qG2_possible_7qG2_000	7	0	724	4	9
330	__robot_sense_7qG2_possible_7qG2_000.__robot_sense_7qG2_possible_7qG2_000_type	4	0	0	2	0
331	__constStr0014	7	0	726	4	1
332	__constStr0014.__constStr0014_type	1	1	0	1	0
333	__constStr0013	7	0	728	4	1
334	__constStr0013.__constStr0013_type	1	1	0	1	0
335	__constStr0015	7	0	730	4	1
336	__constStr0015.__constStr0015_type	1	1	0	1	0
337	__constStr0016	7	0	732	4	1
338	__constStr0016.__constStr0016_type	1	1	0	1	0
339	__constStr0010	7	0	734	4	1
340	__constStr0010.__constStr0010_type	1	1	0	1	0
341	__constStr0009	7	0	736	4	1
342	__constStr0009.__constStr0009_type	1	1	0	1	0
343	__constStr0012	7	0	738	4	1
344	__constStr0012.__constStr0012_type	1	1	0	1	0
345	__constStr0011	7	0	740	4	1
346	__constStr0011.__constStr0011_type	1	1	0	1	0
347	__strbufrobot_sense	7	0	742	4	20
348	__strbufrobot_sense.__strbufrobot_sense_type	1	0	0	1	0
349	__sense_7qG2_map_7qG2_000	7	0	744	4	5
350	__sense_7qG2_map_7qG2_000.__sense_7qG2_map_7qG2_000_type	8	0	4	8	0
351	__sense_7qG2_map_7qG2_000.__sense_7qG2_map_7qG2_000_type.NE	4	0	0	2	0
352	__sense_7qG2_map_7qG2_000.__sense_7qG2_map_7qG2_000_type.SE	4	0	2	2	0
353	__sense_7qG2_map_7qG2_000.__sense_7qG2_map_7qG2_000_type.SW	4	0	4	2	0
354	__sense_7qG2_map_7qG2_000.__sense_7qG2_map_7qG2_000_type.NW	4	0	6	2	0
355	__ArrHelper__robot_sense_244_2	7	0	746	4	2
356	__ArrHelper__robot_sense_244_2.__ArrHelper__robot_sense_244_2_type	1	0	0	1	0
357	__ArrHelper__main_244_1	7	0	748	4	8
358	__ArrHelper__main_244_1.__ArrHelper__main_244_1_type	1	0	0	1	0
359	__ArrHelper__main_244_0	7	0	750	4	4
360	__ArrHelper__main_244_0.__ArrHelper__main_244_0_type	1	0	0	1	0
361	__main_7qG2_map_7qG2_000	7	0	752	4	17
362	__main_7qG2_map_7qG2_000.__main_7qG2_map_7qG2_000_type	8	0	4	8	0
363	__main_7qG2_map_7qG2_000.__main_7qG2_map_7qG2_000_type.NE	4	0	0	2	0
364	__main_7qG2_map_7qG2_000.__main_7qG2_map_7qG2_000_type.SE	4	0	2	2	0
365	__main_7qG2_map_7qG2_000.__main_7qG2_map_7qG2_000_type.SW	4	0	4	2	0
366	__main_7qG2_map_7qG2_000.__main_7qG2_map_7qG2_000_type.NW	4	0	6	2	0
367	__main_7qG2_guess_7qG2_000	7	0	754	4	25
368	__main_7qG2_guess_7qG2_000.__main_7qG2_guess_7qG2_000_type	4	0	0	2	0
369	__ArrHelper__robot_sense_244_1	7	0	756	4	4
370	__ArrHelper__robot_sense_244_1.__ArrHelper__robot_sense_244_1_type	1	0	0	1	0
371	__ArrHelper__robot_sense_244_0	7	0	758	4	2
372	__ArrHelper__robot_sense_244_0.__ArrHelper__robot_sense_244_0_type	1	0	0	1	0
373	__ArrHelper__main_244_2	7	0	760	4	8
374	__ArrHelper__main_244_2.__ArrHelper__main_244_2_type	1	0	0	1	0
375	__strbuffopen	7	0	762	4	4
376	__strbuffopen.__strbuffopen_type	1	0	0	1	0
377	__ArrHelper__main_244_7	7	0	764	4	2
378	__ArrHelper__main_244_7.__ArrHelper__main_244_7_type	1	0	0	1	0
379	__strretvalmain	7	0	766	4	17
380	__strretvalmain.__strretvalmain_type	1	0	0	1	0
381	__strbufmain	7	0	768	4	42
382	__strbufmain.__strbufmain_type	1	0	0	1	0
383	__ArrHelper__main_244_4	7	0	770	4	8
384	__ArrHelper__main_244_4.__ArrHelper__main_244_4_type	1	0	0	1	0
385	__ArrHelper__main_244_3	7	0	772	4	8
386	__ArrHelper__main_244_3.__ArrHelper__main_244_3_type	1	0	0	1	0
387	__ArrHelper__main_244_6	7	0	774	4	4
388	__ArrHelper__main_244_6.__ArrHelper__main_244_6_type	1	0	0	1	0
389	__ArrHelper__main_244_5	7	0	776	4	6
390	__ArrHelper__main_244_5.__ArrHelper__main_244_5_type	1	0	0	1	0
#SOURCES
Clump	Line	PC	Source
0	918	0	#line 918 "C:\Users\Sakeeb\Documents\School\Fall 2017\CSCC85\Phase 1\Phase1---Little-Lost-Robot\Distro\pfilter prob.nxc"
0	919	0		subcall __initialize_global_data, ____initialize_global_data_return
0	918	3	#line 918 "C:\Users\Sakeeb\Documents\School\Fall 2017\CSCC85\Phase 1\Phase1---Little-Lost-Robot\Distro\pfilter prob.nxc"
0	920	3	#line 920 "C:\Users\Sakeeb\Documents\School\Fall 2017\CSCC85\Phase 1\Phase1---Little-Lost-Robot\Distro\pfilter prob.nxc"
0	920	3	#line 920 "C:\Users\Sakeeb\Documents\School\Fall 2017\CSCC85\Phase 1\Phase1---Little-Lost-Robot\Distro\pfilter prob.nxc"
0	921	3		arrinit __main_7qG2_map_7qG2_000, ____main_7qG2_map_7qG2_000_0, __constVal15
0	921	7	#line 921 "C:\Users\Sakeeb\Documents\School\Fall 2017\CSCC85\Phase 1\Phase1---Little-Lost-Robot\Distro\pfilter prob.nxc"
0	922	7		arrinit __main_7qG2_guess_7qG2_000, __constVal0, __constVal3
0	923	11	#line 923 "C:\Users\Sakeeb\Documents\School\Fall 2017\CSCC85\Phase 1\Phase1---Little-Lost-Robot\Distro\pfilter prob.nxc"
0	924	11		mov __main_7qG2_robp_7qG2_000, __constVal0
0	923	13	#line 923 "C:\Users\Sakeeb\Documents\School\Fall 2017\CSCC85\Phase 1\Phase1---Little-Lost-Robot\Distro\pfilter prob.nxc"
0	926	13	#line 926 "C:\Users\Sakeeb\Documents\School\Fall 2017\CSCC85\Phase 1\Phase1---Little-Lost-Robot\Distro\pfilter prob.nxc"
0	926	13	#line 926 "C:\Users\Sakeeb\Documents\School\Fall 2017\CSCC85\Phase 1\Phase1---Little-Lost-Robot\Distro\pfilter prob.nxc"
0	927	13		arrinit __main_7qG2_list_7qG2_000, ____main_7qG2_list_7qG2_000_0, __constVal60
0	928	17	#line 928 "C:\Users\Sakeeb\Documents\School\Fall 2017\CSCC85\Phase 1\Phase1---Little-Lost-Robot\Distro\pfilter prob.nxc"
0	942	17	#line 942 "C:\Users\Sakeeb\Documents\School\Fall 2017\CSCC85\Phase 1\Phase1---Little-Lost-Robot\Distro\pfilter prob.nxc"
0	942	17	#line 942 "C:\Users\Sakeeb\Documents\School\Fall 2017\CSCC85\Phase 1\Phase1---Little-Lost-Robot\Distro\pfilter prob.nxc"
0	942	17	#line 942 "C:\Users\Sakeeb\Documents\School\Fall 2017\CSCC85\Phase 1\Phase1---Little-Lost-Robot\Distro\pfilter prob.nxc"
0	943	17		set __SetSensorColorFull_7qG2_port_7qG2_000_inline_main, 0
0	942	20	#line 942 "C:\Users\Sakeeb\Documents\School\Fall 2017\CSCC85\Phase 1\Phase1---Little-Lost-Robot\Distro\pfilter prob.nxc"
0	4386	20	#line 4386 "NXCDefs.h"
0	4387	20	#pragma macro 6
0	4387	20		setin __constVal13, __SetSensorColorFull_7qG2_port_7qG2_000_inline_main, 0
0	4387	24		setin __constVal0, __SetSensorColorFull_7qG2_port_7qG2_000_inline_main, 1
0	4387	28		mov __ResetSensorPort, __SetSensorColorFull_7qG2_port_7qG2_000_inline_main
0	4387	30		subcall __ResetSensorSubroutine, ____ResetSensorSubroutine_return
0	10593	33	#line 10593 "NXCDefs.h"
0	4386	33	#line 4386 "NXCDefs.h"
0	945	33	#line 945 "C:\Users\Sakeeb\Documents\School\Fall 2017\CSCC85\Phase 1\Phase1---Little-Lost-Robot\Distro\pfilter prob.nxc"
0	945	33	#line 945 "C:\Users\Sakeeb\Documents\School\Fall 2017\CSCC85\Phase 1\Phase1---Little-Lost-Robot\Distro\pfilter prob.nxc"
0	946	33		set __main_7qG2_i_7qG2_000, 0
0	945	36	#line 945 "C:\Users\Sakeeb\Documents\School\Fall 2017\CSCC85\Phase 1\Phase1---Little-Lost-Robot\Distro\pfilter prob.nxc"
0	945	36	#line 945 "C:\Users\Sakeeb\Documents\School\Fall 2017\CSCC85\Phase 1\Phase1---Little-Lost-Robot\Distro\pfilter prob.nxc"
0	946	36		mov __signed_stack_001main, __main_7qG2_i_7qG2_000
0	945	39	#line 945 "C:\Users\Sakeeb\Documents\School\Fall 2017\CSCC85\Phase 1\Phase1---Little-Lost-Robot\Distro\pfilter prob.nxc"
0	945	39	#line 945 "C:\Users\Sakeeb\Documents\School\Fall 2017\CSCC85\Phase 1\Phase1---Little-Lost-Robot\Distro\pfilter prob.nxc"
0	946	39		set __D0main, 60
0	945	42	#line 945 "C:\Users\Sakeeb\Documents\School\Fall 2017\CSCC85\Phase 1\Phase1---Little-Lost-Robot\Distro\pfilter prob.nxc"
0	946	42		cmp 0, __D0main, __signed_stack_001main, __D0main
0	945	46	#line 945 "C:\Users\Sakeeb\Documents\School\Fall 2017\CSCC85\Phase 1\Phase1---Little-Lost-Robot\Distro\pfilter prob.nxc"
0	946	46		brtst 4, __ASM_Label_1603, __D0main
0	945	49	#line 945 "C:\Users\Sakeeb\Documents\School\Fall 2017\CSCC85\Phase 1\Phase1---Little-Lost-Robot\Distro\pfilter prob.nxc"
0	946	49		jmp __ASM_Label_1604
0	945	51	#line 945 "C:\Users\Sakeeb\Documents\School\Fall 2017\CSCC85\Phase 1\Phase1---Little-Lost-Robot\Distro\pfilter prob.nxc"
0	946	51		mov __signed_stack_001main, __main_7qG2_i_7qG2_000
0	945	54	#line 945 "C:\Users\Sakeeb\Documents\School\Fall 2017\CSCC85\Phase 1\Phase1---Little-Lost-Robot\Distro\pfilter prob.nxc"
0	945	54	#line 945 "C:\Users\Sakeeb\Documents\School\Fall 2017\CSCC85\Phase 1\Phase1---Little-Lost-Robot\Distro\pfilter prob.nxc"
0	946	54		set __D0main, 4
0	945	57	#line 945 "C:\Users\Sakeeb\Documents\School\Fall 2017\CSCC85\Phase 1\Phase1---Little-Lost-Robot\Distro\pfilter prob.nxc"
0	946	57		add __main_7qG2_i_7qG2_000, __signed_stack_001main, __D0main
0	945	61	#line 945 "C:\Users\Sakeeb\Documents\School\Fall 2017\CSCC85\Phase 1\Phase1---Little-Lost-Robot\Distro\pfilter prob.nxc"
0	946	61	#line 946 "C:\Users\Sakeeb\Documents\School\Fall 2017\CSCC85\Phase 1\Phase1---Little-Lost-Robot\Distro\pfilter prob.nxc"
0	947	61		jmp __ASM_Label_1602
0	946	63	#line 946 "C:\Users\Sakeeb\Documents\School\Fall 2017\CSCC85\Phase 1\Phase1---Little-Lost-Robot\Distro\pfilter prob.nxc"
0	947	63		mov __signed_stack_001main, __main_7qG2_i_7qG2_000
0	946	66	#line 946 "C:\Users\Sakeeb\Documents\School\Fall 2017\CSCC85\Phase 1\Phase1---Little-Lost-Robot\Distro\pfilter prob.nxc"
0	946	66	#line 946 "C:\Users\Sakeeb\Documents\School\Fall 2017\CSCC85\Phase 1\Phase1---Little-Lost-Robot\Distro\pfilter prob.nxc"
0	947	66		index __ArrHelper__mainparticle_219_0, __main_7qG2_list_7qG2_000, __signed_stack_001main
0	946	70	#line 946 "C:\Users\Sakeeb\Documents\School\Fall 2017\CSCC85\Phase 1\Phase1---Little-Lost-Robot\Distro\pfilter prob.nxc"
0	947	70		mov __signed_stack_002main, __main_7qG2_i_7qG2_000
0	946	72	#line 946 "C:\Users\Sakeeb\Documents\School\Fall 2017\CSCC85\Phase 1\Phase1---Little-Lost-Robot\Distro\pfilter prob.nxc"
0	946	72	#line 946 "C:\Users\Sakeeb\Documents\School\Fall 2017\CSCC85\Phase 1\Phase1---Little-Lost-Robot\Distro\pfilter prob.nxc"
0	947	72		set __D0main, 4
0	946	75	#line 946 "C:\Users\Sakeeb\Documents\School\Fall 2017\CSCC85\Phase 1\Phase1---Little-Lost-Robot\Distro\pfilter prob.nxc"
0	947	75		div __signed_stack_002main, __signed_stack_002main, __D0main
0	946	79	#line 946 "C:\Users\Sakeeb\Documents\School\Fall 2017\CSCC85\Phase 1\Phase1---Little-Lost-Robot\Distro\pfilter prob.nxc"
0	947	79	#line 947 "C:\Users\Sakeeb\Documents\School\Fall 2017\CSCC85\Phase 1\Phase1---Little-Lost-Robot\Distro\pfilter prob.nxc"
0	948	79		set __D0main, 3
0	947	82	#line 947 "C:\Users\Sakeeb\Documents\School\Fall 2017\CSCC85\Phase 1\Phase1---Little-Lost-Robot\Distro\pfilter prob.nxc"
0	948	82		mod __ArrHelper__mainparticle_219_0.x, __signed_stack_002main, __D0main
0	947	86	#line 947 "C:\Users\Sakeeb\Documents\School\Fall 2017\CSCC85\Phase 1\Phase1---Little-Lost-Robot\Distro\pfilter prob.nxc"
0	947	86	#line 947 "C:\Users\Sakeeb\Documents\School\Fall 2017\CSCC85\Phase 1\Phase1---Little-Lost-Robot\Distro\pfilter prob.nxc"
0	948	86		replace __main_7qG2_list_7qG2_000, __main_7qG2_list_7qG2_000, __signed_stack_001main, __ArrHelper__mainparticle_219_0
0	947	91	#line 947 "C:\Users\Sakeeb\Documents\School\Fall 2017\CSCC85\Phase 1\Phase1---Little-Lost-Robot\Distro\pfilter prob.nxc"
0	947	91	#line 947 "C:\Users\Sakeeb\Documents\School\Fall 2017\CSCC85\Phase 1\Phase1---Little-Lost-Robot\Distro\pfilter prob.nxc"
0	948	91		mov __signed_stack_001main, __main_7qG2_i_7qG2_000
0	947	94	#line 947 "C:\Users\Sakeeb\Documents\School\Fall 2017\CSCC85\Phase 1\Phase1---Little-Lost-Robot\Distro\pfilter prob.nxc"
0	947	94	#line 947 "C:\Users\Sakeeb\Documents\School\Fall 2017\CSCC85\Phase 1\Phase1---Little-Lost-Robot\Distro\pfilter prob.nxc"
0	948	94		index __ArrHelper__mainparticle_219_0, __main_7qG2_list_7qG2_000, __signed_stack_001main
0	947	98	#line 947 "C:\Users\Sakeeb\Documents\School\Fall 2017\CSCC85\Phase 1\Phase1---Little-Lost-Robot\Distro\pfilter prob.nxc"
0	948	98		mov __signed_stack_002main, __main_7qG2_i_7qG2_000
0	947	100	#line 947 "C:\Users\Sakeeb\Documents\School\Fall 2017\CSCC85\Phase 1\Phase1---Little-Lost-Robot\Distro\pfilter prob.nxc"
0	947	100	#line 947 "C:\Users\Sakeeb\Documents\School\Fall 2017\CSCC85\Phase 1\Phase1---Little-Lost-Robot\Distro\pfilter prob.nxc"
0	948	100		set __D0main, 12
0	948	103	#line 948 "C:\Users\Sakeeb\Documents\School\Fall 2017\CSCC85\Phase 1\Phase1---Little-Lost-Robot\Distro\pfilter prob.nxc"
0	949	103		div __ArrHelper__mainparticle_219_0.y, __signed_stack_002main, __D0main
0	948	107	#line 948 "C:\Users\Sakeeb\Documents\School\Fall 2017\CSCC85\Phase 1\Phase1---Little-Lost-Robot\Distro\pfilter prob.nxc"
0	948	107	#line 948 "C:\Users\Sakeeb\Documents\School\Fall 2017\CSCC85\Phase 1\Phase1---Little-Lost-Robot\Distro\pfilter prob.nxc"
0	949	107		replace __main_7qG2_list_7qG2_000, __main_7qG2_list_7qG2_000, __signed_stack_001main, __ArrHelper__mainparticle_219_0
0	948	112	#line 948 "C:\Users\Sakeeb\Documents\School\Fall 2017\CSCC85\Phase 1\Phase1---Little-Lost-Robot\Distro\pfilter prob.nxc"
0	948	112	#line 948 "C:\Users\Sakeeb\Documents\School\Fall 2017\CSCC85\Phase 1\Phase1---Little-Lost-Robot\Distro\pfilter prob.nxc"
0	949	112		mov __signed_stack_001main, __main_7qG2_i_7qG2_000
0	948	115	#line 948 "C:\Users\Sakeeb\Documents\School\Fall 2017\CSCC85\Phase 1\Phase1---Little-Lost-Robot\Distro\pfilter prob.nxc"
0	948	115	#line 948 "C:\Users\Sakeeb\Documents\School\Fall 2017\CSCC85\Phase 1\Phase1---Little-Lost-Robot\Distro\pfilter prob.nxc"
0	949	115		index __ArrHelper__mainparticle_219_0, __main_7qG2_list_7qG2_000, __signed_stack_001main
0	949	119	#line 949 "C:\Users\Sakeeb\Documents\School\Fall 2017\CSCC85\Phase 1\Phase1---Little-Lost-Robot\Distro\pfilter prob.nxc"
0	950	119		set __ArrHelper__mainparticle_219_0.theta, 100
0	949	122	#line 949 "C:\Users\Sakeeb\Documents\School\Fall 2017\CSCC85\Phase 1\Phase1---Little-Lost-Robot\Distro\pfilter prob.nxc"
0	949	122	#line 949 "C:\Users\Sakeeb\Documents\School\Fall 2017\CSCC85\Phase 1\Phase1---Little-Lost-Robot\Distro\pfilter prob.nxc"
0	950	122		replace __main_7qG2_list_7qG2_000, __main_7qG2_list_7qG2_000, __signed_stack_001main, __ArrHelper__mainparticle_219_0
0	949	127	#line 949 "C:\Users\Sakeeb\Documents\School\Fall 2017\CSCC85\Phase 1\Phase1---Little-Lost-Robot\Distro\pfilter prob.nxc"
0	949	127	#line 949 "C:\Users\Sakeeb\Documents\School\Fall 2017\CSCC85\Phase 1\Phase1---Little-Lost-Robot\Distro\pfilter prob.nxc"
0	950	127		mov __signed_stack_001main, __main_7qG2_i_7qG2_000
0	949	130	#line 949 "C:\Users\Sakeeb\Documents\School\Fall 2017\CSCC85\Phase 1\Phase1---Little-Lost-Robot\Distro\pfilter prob.nxc"
0	949	130	#line 949 "C:\Users\Sakeeb\Documents\School\Fall 2017\CSCC85\Phase 1\Phase1---Little-Lost-Robot\Distro\pfilter prob.nxc"
0	950	130		index __ArrHelper__mainparticle_219_0, __main_7qG2_list_7qG2_000, __signed_stack_001main
0	950	134	#line 950 "C:\Users\Sakeeb\Documents\School\Fall 2017\CSCC85\Phase 1\Phase1---Little-Lost-Robot\Distro\pfilter prob.nxc"
0	951	134		mov __ArrHelper__mainparticle_219_0.prob, __constValf0P0166666667
0	950	137	#line 950 "C:\Users\Sakeeb\Documents\School\Fall 2017\CSCC85\Phase 1\Phase1---Little-Lost-Robot\Distro\pfilter prob.nxc"
0	950	137	#line 950 "C:\Users\Sakeeb\Documents\School\Fall 2017\CSCC85\Phase 1\Phase1---Little-Lost-Robot\Distro\pfilter prob.nxc"
0	951	137		replace __main_7qG2_list_7qG2_000, __main_7qG2_list_7qG2_000, __signed_stack_001main, __ArrHelper__mainparticle_219_0
0	950	142	#line 950 "C:\Users\Sakeeb\Documents\School\Fall 2017\CSCC85\Phase 1\Phase1---Little-Lost-Robot\Distro\pfilter prob.nxc"
0	950	142	#line 950 "C:\Users\Sakeeb\Documents\School\Fall 2017\CSCC85\Phase 1\Phase1---Little-Lost-Robot\Distro\pfilter prob.nxc"
0	951	142		mov __signed_stack_001main, __main_7qG2_i_7qG2_000
0	950	145	#line 950 "C:\Users\Sakeeb\Documents\School\Fall 2017\CSCC85\Phase 1\Phase1---Little-Lost-Robot\Distro\pfilter prob.nxc"
0	950	145	#line 950 "C:\Users\Sakeeb\Documents\School\Fall 2017\CSCC85\Phase 1\Phase1---Little-Lost-Robot\Distro\pfilter prob.nxc"
0	951	145		set __D0main, 1
0	950	148	#line 950 "C:\Users\Sakeeb\Documents\School\Fall 2017\CSCC85\Phase 1\Phase1---Little-Lost-Robot\Distro\pfilter prob.nxc"
0	951	148		add __signed_stack_001main, __signed_stack_001main, __D0main
0	950	152	#line 950 "C:\Users\Sakeeb\Documents\School\Fall 2017\CSCC85\Phase 1\Phase1---Little-Lost-Robot\Distro\pfilter prob.nxc"
0	950	152	#line 950 "C:\Users\Sakeeb\Documents\School\Fall 2017\CSCC85\Phase 1\Phase1---Little-Lost-Robot\Distro\pfilter prob.nxc"
0	951	152		index __ArrHelper__mainparticle_219_0, __main_7qG2_list_7qG2_000, __signed_stack_001main
0	950	156	#line 950 "C:\Users\Sakeeb\Documents\School\Fall 2017\CSCC85\Phase 1\Phase1---Little-Lost-Robot\Distro\pfilter prob.nxc"
0	951	156		mov __signed_stack_002main, __main_7qG2_i_7qG2_000
0	950	158	#line 950 "C:\Users\Sakeeb\Documents\School\Fall 2017\CSCC85\Phase 1\Phase1---Little-Lost-Robot\Distro\pfilter prob.nxc"
0	950	158	#line 950 "C:\Users\Sakeeb\Documents\School\Fall 2017\CSCC85\Phase 1\Phase1---Little-Lost-Robot\Distro\pfilter prob.nxc"
0	951	158		set __D0main, 4
0	950	161	#line 950 "C:\Users\Sakeeb\Documents\School\Fall 2017\CSCC85\Phase 1\Phase1---Little-Lost-Robot\Distro\pfilter prob.nxc"
0	951	161		div __signed_stack_002main, __signed_stack_002main, __D0main
0	950	165	#line 950 "C:\Users\Sakeeb\Documents\School\Fall 2017\CSCC85\Phase 1\Phase1---Little-Lost-Robot\Distro\pfilter prob.nxc"
0	951	165	#line 951 "C:\Users\Sakeeb\Documents\School\Fall 2017\CSCC85\Phase 1\Phase1---Little-Lost-Robot\Distro\pfilter prob.nxc"
0	952	165		set __D0main, 3
0	951	168	#line 951 "C:\Users\Sakeeb\Documents\School\Fall 2017\CSCC85\Phase 1\Phase1---Little-Lost-Robot\Distro\pfilter prob.nxc"
0	952	168		mod __ArrHelper__mainparticle_219_0.x, __signed_stack_002main, __D0main
0	951	172	#line 951 "C:\Users\Sakeeb\Documents\School\Fall 2017\CSCC85\Phase 1\Phase1---Little-Lost-Robot\Distro\pfilter prob.nxc"
0	951	172	#line 951 "C:\Users\Sakeeb\Documents\School\Fall 2017\CSCC85\Phase 1\Phase1---Little-Lost-Robot\Distro\pfilter prob.nxc"
0	952	172		replace __main_7qG2_list_7qG2_000, __main_7qG2_list_7qG2_000, __signed_stack_001main, __ArrHelper__mainparticle_219_0
0	951	177	#line 951 "C:\Users\Sakeeb\Documents\School\Fall 2017\CSCC85\Phase 1\Phase1---Little-Lost-Robot\Distro\pfilter prob.nxc"
0	951	177	#line 951 "C:\Users\Sakeeb\Documents\School\Fall 2017\CSCC85\Phase 1\Phase1---Little-Lost-Robot\Distro\pfilter prob.nxc"
0	952	177		mov __signed_stack_001main, __main_7qG2_i_7qG2_000
0	951	180	#line 951 "C:\Users\Sakeeb\Documents\School\Fall 2017\CSCC85\Phase 1\Phase1---Little-Lost-Robot\Distro\pfilter prob.nxc"
0	951	180	#line 951 "C:\Users\Sakeeb\Documents\School\Fall 2017\CSCC85\Phase 1\Phase1---Little-Lost-Robot\Distro\pfilter prob.nxc"
0	952	180		set __D0main, 1
0	951	183	#line 951 "C:\Users\Sakeeb\Documents\School\Fall 2017\CSCC85\Phase 1\Phase1---Little-Lost-Robot\Distro\pfilter prob.nxc"
0	952	183		add __signed_stack_001main, __signed_stack_001main, __D0main
0	951	187	#line 951 "C:\Users\Sakeeb\Documents\School\Fall 2017\CSCC85\Phase 1\Phase1---Little-Lost-Robot\Distro\pfilter prob.nxc"
0	951	187	#line 951 "C:\Users\Sakeeb\Documents\School\Fall 2017\CSCC85\Phase 1\Phase1---Little-Lost-Robot\Distro\pfilter prob.nxc"
0	952	187		index __ArrHelper__mainparticle_219_0, __main_7qG2_list_7qG2_000, __signed_stack_001main
0	951	191	#line 951 "C:\Users\Sakeeb\Documents\School\Fall 2017\CSCC85\Phase 1\Phase1---Little-Lost-Robot\Distro\pfilter prob.nxc"
0	952	191		mov __signed_stack_002main, __main_7qG2_i_7qG2_000
0	951	193	#line 951 "C:\Users\Sakeeb\Documents\School\Fall 2017\CSCC85\Phase 1\Phase1---Little-Lost-Robot\Distro\pfilter prob.nxc"
0	951	193	#line 951 "C:\Users\Sakeeb\Documents\School\Fall 2017\CSCC85\Phase 1\Phase1---Little-Lost-Robot\Distro\pfilter prob.nxc"
0	952	193		set __D0main, 12
0	952	196	#line 952 "C:\Users\Sakeeb\Documents\School\Fall 2017\CSCC85\Phase 1\Phase1---Little-Lost-Robot\Distro\pfilter prob.nxc"
0	953	196		div __ArrHelper__mainparticle_219_0.y, __signed_stack_002main, __D0main
0	952	200	#line 952 "C:\Users\Sakeeb\Documents\School\Fall 2017\CSCC85\Phase 1\Phase1---Little-Lost-Robot\Distro\pfilter prob.nxc"
0	952	200	#line 952 "C:\Users\Sakeeb\Documents\School\Fall 2017\CSCC85\Phase 1\Phase1---Little-Lost-Robot\Distro\pfilter prob.nxc"
0	953	200		replace __main_7qG2_list_7qG2_000, __main_7qG2_list_7qG2_000, __signed_stack_001main, __ArrHelper__mainparticle_219_0
0	952	205	#line 952 "C:\Users\Sakeeb\Documents\School\Fall 2017\CSCC85\Phase 1\Phase1---Little-Lost-Robot\Distro\pfilter prob.nxc"
0	952	205	#line 952 "C:\Users\Sakeeb\Documents\School\Fall 2017\CSCC85\Phase 1\Phase1---Little-Lost-Robot\Distro\pfilter prob.nxc"
0	953	205		mov __signed_stack_001main, __main_7qG2_i_7qG2_000
0	952	208	#line 952 "C:\Users\Sakeeb\Documents\School\Fall 2017\CSCC85\Phase 1\Phase1---Little-Lost-Robot\Distro\pfilter prob.nxc"
0	952	208	#line 952 "C:\Users\Sakeeb\Documents\School\Fall 2017\CSCC85\Phase 1\Phase1---Little-Lost-Robot\Distro\pfilter prob.nxc"
0	953	208		set __D0main, 1
0	952	211	#line 952 "C:\Users\Sakeeb\Documents\School\Fall 2017\CSCC85\Phase 1\Phase1---Little-Lost-Robot\Distro\pfilter prob.nxc"
0	953	211		add __signed_stack_001main, __signed_stack_001main, __D0main
0	952	215	#line 952 "C:\Users\Sakeeb\Documents\School\Fall 2017\CSCC85\Phase 1\Phase1---Little-Lost-Robot\Distro\pfilter prob.nxc"
0	952	215	#line 952 "C:\Users\Sakeeb\Documents\School\Fall 2017\CSCC85\Phase 1\Phase1---Little-Lost-Robot\Distro\pfilter prob.nxc"
0	953	215		index __ArrHelper__mainparticle_219_0, __main_7qG2_list_7qG2_000, __signed_stack_001main
0	953	219	#line 953 "C:\Users\Sakeeb\Documents\School\Fall 2017\CSCC85\Phase 1\Phase1---Little-Lost-Robot\Distro\pfilter prob.nxc"
0	954	219		set __ArrHelper__mainparticle_219_0.theta, 102
0	953	222	#line 953 "C:\Users\Sakeeb\Documents\School\Fall 2017\CSCC85\Phase 1\Phase1---Little-Lost-Robot\Distro\pfilter prob.nxc"
0	953	222	#line 953 "C:\Users\Sakeeb\Documents\School\Fall 2017\CSCC85\Phase 1\Phase1---Little-Lost-Robot\Distro\pfilter prob.nxc"
0	954	222		replace __main_7qG2_list_7qG2_000, __main_7qG2_list_7qG2_000, __signed_stack_001main, __ArrHelper__mainparticle_219_0
0	953	227	#line 953 "C:\Users\Sakeeb\Documents\School\Fall 2017\CSCC85\Phase 1\Phase1---Little-Lost-Robot\Distro\pfilter prob.nxc"
0	953	227	#line 953 "C:\Users\Sakeeb\Documents\School\Fall 2017\CSCC85\Phase 1\Phase1---Little-Lost-Robot\Distro\pfilter prob.nxc"
0	954	227		mov __signed_stack_001main, __main_7qG2_i_7qG2_000
0	953	230	#line 953 "C:\Users\Sakeeb\Documents\School\Fall 2017\CSCC85\Phase 1\Phase1---Little-Lost-Robot\Distro\pfilter prob.nxc"
0	953	230	#line 953 "C:\Users\Sakeeb\Documents\School\Fall 2017\CSCC85\Phase 1\Phase1---Little-Lost-Robot\Distro\pfilter prob.nxc"
0	954	230		set __D0main, 1
0	953	233	#line 953 "C:\Users\Sakeeb\Documents\School\Fall 2017\CSCC85\Phase 1\Phase1---Little-Lost-Robot\Distro\pfilter prob.nxc"
0	954	233		add __signed_stack_001main, __signed_stack_001main, __D0main
0	953	237	#line 953 "C:\Users\Sakeeb\Documents\School\Fall 2017\CSCC85\Phase 1\Phase1---Little-Lost-Robot\Distro\pfilter prob.nxc"
0	953	237	#line 953 "C:\Users\Sakeeb\Documents\School\Fall 2017\CSCC85\Phase 1\Phase1---Little-Lost-Robot\Distro\pfilter prob.nxc"
0	954	237		index __ArrHelper__mainparticle_219_0, __main_7qG2_list_7qG2_000, __signed_stack_001main
0	954	241	#line 954 "C:\Users\Sakeeb\Documents\School\Fall 2017\CSCC85\Phase 1\Phase1---Little-Lost-Robot\Distro\pfilter prob.nxc"
0	955	241		mov __ArrHelper__mainparticle_219_0.prob, __constValf0P0166666667
0	954	244	#line 954 "C:\Users\Sakeeb\Documents\School\Fall 2017\CSCC85\Phase 1\Phase1---Little-Lost-Robot\Distro\pfilter prob.nxc"
0	954	244	#line 954 "C:\Users\Sakeeb\Documents\School\Fall 2017\CSCC85\Phase 1\Phase1---Little-Lost-Robot\Distro\pfilter prob.nxc"
0	955	244		replace __main_7qG2_list_7qG2_000, __main_7qG2_list_7qG2_000, __signed_stack_001main, __ArrHelper__mainparticle_219_0
0	954	249	#line 954 "C:\Users\Sakeeb\Documents\School\Fall 2017\CSCC85\Phase 1\Phase1---Little-Lost-Robot\Distro\pfilter prob.nxc"
0	954	249	#line 954 "C:\Users\Sakeeb\Documents\School\Fall 2017\CSCC85\Phase 1\Phase1---Little-Lost-Robot\Distro\pfilter prob.nxc"
0	955	249		mov __signed_stack_001main, __main_7qG2_i_7qG2_000
0	954	252	#line 954 "C:\Users\Sakeeb\Documents\School\Fall 2017\CSCC85\Phase 1\Phase1---Little-Lost-Robot\Distro\pfilter prob.nxc"
0	954	252	#line 954 "C:\Users\Sakeeb\Documents\School\Fall 2017\CSCC85\Phase 1\Phase1---Little-Lost-Robot\Distro\pfilter prob.nxc"
0	955	252		set __D0main, 2
0	954	255	#line 954 "C:\Users\Sakeeb\Documents\School\Fall 2017\CSCC85\Phase 1\Phase1---Little-Lost-Robot\Distro\pfilter prob.nxc"
0	955	255		add __signed_stack_001main, __signed_stack_001main, __D0main
0	954	259	#line 954 "C:\Users\Sakeeb\Documents\School\Fall 2017\CSCC85\Phase 1\Phase1---Little-Lost-Robot\Distro\pfilter prob.nxc"
0	954	259	#line 954 "C:\Users\Sakeeb\Documents\School\Fall 2017\CSCC85\Phase 1\Phase1---Little-Lost-Robot\Distro\pfilter prob.nxc"
0	955	259		index __ArrHelper__mainparticle_219_0, __main_7qG2_list_7qG2_000, __signed_stack_001main
0	954	263	#line 954 "C:\Users\Sakeeb\Documents\School\Fall 2017\CSCC85\Phase 1\Phase1---Little-Lost-Robot\Distro\pfilter prob.nxc"
0	955	263		mov __signed_stack_002main, __main_7qG2_i_7qG2_000
0	954	265	#line 954 "C:\Users\Sakeeb\Documents\School\Fall 2017\CSCC85\Phase 1\Phase1---Little-Lost-Robot\Distro\pfilter prob.nxc"
0	954	265	#line 954 "C:\Users\Sakeeb\Documents\School\Fall 2017\CSCC85\Phase 1\Phase1---Little-Lost-Robot\Distro\pfilter prob.nxc"
0	955	265		set __D0main, 4
0	954	268	#line 954 "C:\Users\Sakeeb\Documents\School\Fall 2017\CSCC85\Phase 1\Phase1---Little-Lost-Robot\Distro\pfilter prob.nxc"
0	955	268		div __signed_stack_002main, __signed_stack_002main, __D0main
0	954	272	#line 954 "C:\Users\Sakeeb\Documents\School\Fall 2017\CSCC85\Phase 1\Phase1---Little-Lost-Robot\Distro\pfilter prob.nxc"
0	955	272	#line 955 "C:\Users\Sakeeb\Documents\School\Fall 2017\CSCC85\Phase 1\Phase1---Little-Lost-Robot\Distro\pfilter prob.nxc"
0	956	272		set __D0main, 3
0	955	275	#line 955 "C:\Users\Sakeeb\Documents\School\Fall 2017\CSCC85\Phase 1\Phase1---Little-Lost-Robot\Distro\pfilter prob.nxc"
0	956	275		mod __ArrHelper__mainparticle_219_0.x, __signed_stack_002main, __D0main
0	955	279	#line 955 "C:\Users\Sakeeb\Documents\School\Fall 2017\CSCC85\Phase 1\Phase1---Little-Lost-Robot\Distro\pfilter prob.nxc"
0	955	279	#line 955 "C:\Users\Sakeeb\Documents\School\Fall 2017\CSCC85\Phase 1\Phase1---Little-Lost-Robot\Distro\pfilter prob.nxc"
0	956	279		replace __main_7qG2_list_7qG2_000, __main_7qG2_list_7qG2_000, __signed_stack_001main, __ArrHelper__mainparticle_219_0
0	955	284	#line 955 "C:\Users\Sakeeb\Documents\School\Fall 2017\CSCC85\Phase 1\Phase1---Little-Lost-Robot\Distro\pfilter prob.nxc"
0	955	284	#line 955 "C:\Users\Sakeeb\Documents\School\Fall 2017\CSCC85\Phase 1\Phase1---Little-Lost-Robot\Distro\pfilter prob.nxc"
0	956	284		mov __signed_stack_001main, __main_7qG2_i_7qG2_000
0	955	287	#line 955 "C:\Users\Sakeeb\Documents\School\Fall 2017\CSCC85\Phase 1\Phase1---Little-Lost-Robot\Distro\pfilter prob.nxc"
0	955	287	#line 955 "C:\Users\Sakeeb\Documents\School\Fall 2017\CSCC85\Phase 1\Phase1---Little-Lost-Robot\Distro\pfilter prob.nxc"
0	956	287		set __D0main, 2
0	955	290	#line 955 "C:\Users\Sakeeb\Documents\School\Fall 2017\CSCC85\Phase 1\Phase1---Little-Lost-Robot\Distro\pfilter prob.nxc"
0	956	290		add __signed_stack_001main, __signed_stack_001main, __D0main
0	955	294	#line 955 "C:\Users\Sakeeb\Documents\School\Fall 2017\CSCC85\Phase 1\Phase1---Little-Lost-Robot\Distro\pfilter prob.nxc"
0	955	294	#line 955 "C:\Users\Sakeeb\Documents\School\Fall 2017\CSCC85\Phase 1\Phase1---Little-Lost-Robot\Distro\pfilter prob.nxc"
0	956	294		index __ArrHelper__mainparticle_219_0, __main_7qG2_list_7qG2_000, __signed_stack_001main
0	955	298	#line 955 "C:\Users\Sakeeb\Documents\School\Fall 2017\CSCC85\Phase 1\Phase1---Little-Lost-Robot\Distro\pfilter prob.nxc"
0	956	298		mov __signed_stack_002main, __main_7qG2_i_7qG2_000
0	955	300	#line 955 "C:\Users\Sakeeb\Documents\School\Fall 2017\CSCC85\Phase 1\Phase1---Little-Lost-Robot\Distro\pfilter prob.nxc"
0	955	300	#line 955 "C:\Users\Sakeeb\Documents\School\Fall 2017\CSCC85\Phase 1\Phase1---Little-Lost-Robot\Distro\pfilter prob.nxc"
0	956	300		set __D0main, 12
0	956	303	#line 956 "C:\Users\Sakeeb\Documents\School\Fall 2017\CSCC85\Phase 1\Phase1---Little-Lost-Robot\Distro\pfilter prob.nxc"
0	957	303		div __ArrHelper__mainparticle_219_0.y, __signed_stack_002main, __D0main
0	956	307	#line 956 "C:\Users\Sakeeb\Documents\School\Fall 2017\CSCC85\Phase 1\Phase1---Little-Lost-Robot\Distro\pfilter prob.nxc"
0	956	307	#line 956 "C:\Users\Sakeeb\Documents\School\Fall 2017\CSCC85\Phase 1\Phase1---Little-Lost-Robot\Distro\pfilter prob.nxc"
0	957	307		replace __main_7qG2_list_7qG2_000, __main_7qG2_list_7qG2_000, __signed_stack_001main, __ArrHelper__mainparticle_219_0
0	956	312	#line 956 "C:\Users\Sakeeb\Documents\School\Fall 2017\CSCC85\Phase 1\Phase1---Little-Lost-Robot\Distro\pfilter prob.nxc"
0	956	312	#line 956 "C:\Users\Sakeeb\Documents\School\Fall 2017\CSCC85\Phase 1\Phase1---Little-Lost-Robot\Distro\pfilter prob.nxc"
0	957	312		mov __signed_stack_001main, __main_7qG2_i_7qG2_000
0	956	315	#line 956 "C:\Users\Sakeeb\Documents\School\Fall 2017\CSCC85\Phase 1\Phase1---Little-Lost-Robot\Distro\pfilter prob.nxc"
0	956	315	#line 956 "C:\Users\Sakeeb\Documents\School\Fall 2017\CSCC85\Phase 1\Phase1---Little-Lost-Robot\Distro\pfilter prob.nxc"
0	957	315		set __D0main, 2
0	956	318	#line 956 "C:\Users\Sakeeb\Documents\School\Fall 2017\CSCC85\Phase 1\Phase1---Little-Lost-Robot\Distro\pfilter prob.nxc"
0	957	318		add __signed_stack_001main, __signed_stack_001main, __D0main
0	956	322	#line 956 "C:\Users\Sakeeb\Documents\School\Fall 2017\CSCC85\Phase 1\Phase1---Little-Lost-Robot\Distro\pfilter prob.nxc"
0	956	322	#line 956 "C:\Users\Sakeeb\Documents\School\Fall 2017\CSCC85\Phase 1\Phase1---Little-Lost-Robot\Distro\pfilter prob.nxc"
0	957	322		index __ArrHelper__mainparticle_219_0, __main_7qG2_list_7qG2_000, __signed_stack_001main
0	957	326	#line 957 "C:\Users\Sakeeb\Documents\School\Fall 2017\CSCC85\Phase 1\Phase1---Little-Lost-Robot\Distro\pfilter prob.nxc"
0	958	326		set __ArrHelper__mainparticle_219_0.theta, 101
0	957	329	#line 957 "C:\Users\Sakeeb\Documents\School\Fall 2017\CSCC85\Phase 1\Phase1---Little-Lost-Robot\Distro\pfilter prob.nxc"
0	957	329	#line 957 "C:\Users\Sakeeb\Documents\School\Fall 2017\CSCC85\Phase 1\Phase1---Little-Lost-Robot\Distro\pfilter prob.nxc"
0	958	329		replace __main_7qG2_list_7qG2_000, __main_7qG2_list_7qG2_000, __signed_stack_001main, __ArrHelper__mainparticle_219_0
0	957	334	#line 957 "C:\Users\Sakeeb\Documents\School\Fall 2017\CSCC85\Phase 1\Phase1---Little-Lost-Robot\Distro\pfilter prob.nxc"
0	957	334	#line 957 "C:\Users\Sakeeb\Documents\School\Fall 2017\CSCC85\Phase 1\Phase1---Little-Lost-Robot\Distro\pfilter prob.nxc"
0	958	334		mov __signed_stack_001main, __main_7qG2_i_7qG2_000
0	957	337	#line 957 "C:\Users\Sakeeb\Documents\School\Fall 2017\CSCC85\Phase 1\Phase1---Little-Lost-Robot\Distro\pfilter prob.nxc"
0	957	337	#line 957 "C:\Users\Sakeeb\Documents\School\Fall 2017\CSCC85\Phase 1\Phase1---Little-Lost-Robot\Distro\pfilter prob.nxc"
0	958	337		set __D0main, 2
0	957	340	#line 957 "C:\Users\Sakeeb\Documents\School\Fall 2017\CSCC85\Phase 1\Phase1---Little-Lost-Robot\Distro\pfilter prob.nxc"
0	958	340		add __signed_stack_001main, __signed_stack_001main, __D0main
0	957	344	#line 957 "C:\Users\Sakeeb\Documents\School\Fall 2017\CSCC85\Phase 1\Phase1---Little-Lost-Robot\Distro\pfilter prob.nxc"
0	957	344	#line 957 "C:\Users\Sakeeb\Documents\School\Fall 2017\CSCC85\Phase 1\Phase1---Little-Lost-Robot\Distro\pfilter prob.nxc"
0	958	344		index __ArrHelper__mainparticle_219_0, __main_7qG2_list_7qG2_000, __signed_stack_001main
0	958	348	#line 958 "C:\Users\Sakeeb\Documents\School\Fall 2017\CSCC85\Phase 1\Phase1---Little-Lost-Robot\Distro\pfilter prob.nxc"
0	959	348		mov __ArrHelper__mainparticle_219_0.prob, __constValf0P0166666667
0	958	351	#line 958 "C:\Users\Sakeeb\Documents\School\Fall 2017\CSCC85\Phase 1\Phase1---Little-Lost-Robot\Distro\pfilter prob.nxc"
0	958	351	#line 958 "C:\Users\Sakeeb\Documents\School\Fall 2017\CSCC85\Phase 1\Phase1---Little-Lost-Robot\Distro\pfilter prob.nxc"
0	959	351		replace __main_7qG2_list_7qG2_000, __main_7qG2_list_7qG2_000, __signed_stack_001main, __ArrHelper__mainparticle_219_0
0	958	356	#line 958 "C:\Users\Sakeeb\Documents\School\Fall 2017\CSCC85\Phase 1\Phase1---Little-Lost-Robot\Distro\pfilter prob.nxc"
0	958	356	#line 958 "C:\Users\Sakeeb\Documents\School\Fall 2017\CSCC85\Phase 1\Phase1---Little-Lost-Robot\Distro\pfilter prob.nxc"
0	959	356		mov __signed_stack_001main, __main_7qG2_i_7qG2_000
0	958	359	#line 958 "C:\Users\Sakeeb\Documents\School\Fall 2017\CSCC85\Phase 1\Phase1---Little-Lost-Robot\Distro\pfilter prob.nxc"
0	958	359	#line 958 "C:\Users\Sakeeb\Documents\School\Fall 2017\CSCC85\Phase 1\Phase1---Little-Lost-Robot\Distro\pfilter prob.nxc"
0	959	359		set __D0main, 3
0	958	362	#line 958 "C:\Users\Sakeeb\Documents\School\Fall 2017\CSCC85\Phase 1\Phase1---Little-Lost-Robot\Distro\pfilter prob.nxc"
0	959	362		add __signed_stack_001main, __signed_stack_001main, __D0main
0	958	366	#line 958 "C:\Users\Sakeeb\Documents\School\Fall 2017\CSCC85\Phase 1\Phase1---Little-Lost-Robot\Distro\pfilter prob.nxc"
0	958	366	#line 958 "C:\Users\Sakeeb\Documents\School\Fall 2017\CSCC85\Phase 1\Phase1---Little-Lost-Robot\Distro\pfilter prob.nxc"
0	959	366		index __ArrHelper__mainparticle_219_0, __main_7qG2_list_7qG2_000, __signed_stack_001main
0	958	370	#line 958 "C:\Users\Sakeeb\Documents\School\Fall 2017\CSCC85\Phase 1\Phase1---Little-Lost-Robot\Distro\pfilter prob.nxc"
0	959	370		mov __signed_stack_002main, __main_7qG2_i_7qG2_000
0	958	372	#line 958 "C:\Users\Sakeeb\Documents\School\Fall 2017\CSCC85\Phase 1\Phase1---Little-Lost-Robot\Distro\pfilter prob.nxc"
0	958	372	#line 958 "C:\Users\Sakeeb\Documents\School\Fall 2017\CSCC85\Phase 1\Phase1---Little-Lost-Robot\Distro\pfilter prob.nxc"
0	959	372		set __D0main, 4
0	958	375	#line 958 "C:\Users\Sakeeb\Documents\School\Fall 2017\CSCC85\Phase 1\Phase1---Little-Lost-Robot\Distro\pfilter prob.nxc"
0	959	375		div __signed_stack_002main, __signed_stack_002main, __D0main
0	958	379	#line 958 "C:\Users\Sakeeb\Documents\School\Fall 2017\CSCC85\Phase 1\Phase1---Little-Lost-Robot\Distro\pfilter prob.nxc"
0	959	379	#line 959 "C:\Users\Sakeeb\Documents\School\Fall 2017\CSCC85\Phase 1\Phase1---Little-Lost-Robot\Distro\pfilter prob.nxc"
0	960	379		set __D0main, 3
0	959	382	#line 959 "C:\Users\Sakeeb\Documents\School\Fall 2017\CSCC85\Phase 1\Phase1---Little-Lost-Robot\Distro\pfilter prob.nxc"
0	960	382		mod __ArrHelper__mainparticle_219_0.x, __signed_stack_002main, __D0main
0	959	386	#line 959 "C:\Users\Sakeeb\Documents\School\Fall 2017\CSCC85\Phase 1\Phase1---Little-Lost-Robot\Distro\pfilter prob.nxc"
0	959	386	#line 959 "C:\Users\Sakeeb\Documents\School\Fall 2017\CSCC85\Phase 1\Phase1---Little-Lost-Robot\Distro\pfilter prob.nxc"
0	960	386		replace __main_7qG2_list_7qG2_000, __main_7qG2_list_7qG2_000, __signed_stack_001main, __ArrHelper__mainparticle_219_0
0	959	391	#line 959 "C:\Users\Sakeeb\Documents\School\Fall 2017\CSCC85\Phase 1\Phase1---Little-Lost-Robot\Distro\pfilter prob.nxc"
0	959	391	#line 959 "C:\Users\Sakeeb\Documents\School\Fall 2017\CSCC85\Phase 1\Phase1---Little-Lost-Robot\Distro\pfilter prob.nxc"
0	960	391		mov __signed_stack_001main, __main_7qG2_i_7qG2_000
0	959	394	#line 959 "C:\Users\Sakeeb\Documents\School\Fall 2017\CSCC85\Phase 1\Phase1---Little-Lost-Robot\Distro\pfilter prob.nxc"
0	959	394	#line 959 "C:\Users\Sakeeb\Documents\School\Fall 2017\CSCC85\Phase 1\Phase1---Little-Lost-Robot\Distro\pfilter prob.nxc"
0	960	394		set __D0main, 3
0	959	397	#line 959 "C:\Users\Sakeeb\Documents\School\Fall 2017\CSCC85\Phase 1\Phase1---Little-Lost-Robot\Distro\pfilter prob.nxc"
0	960	397		add __signed_stack_001main, __signed_stack_001main, __D0main
0	959	401	#line 959 "C:\Users\Sakeeb\Documents\School\Fall 2017\CSCC85\Phase 1\Phase1---Little-Lost-Robot\Distro\pfilter prob.nxc"
0	959	401	#line 959 "C:\Users\Sakeeb\Documents\School\Fall 2017\CSCC85\Phase 1\Phase1---Little-Lost-Robot\Distro\pfilter prob.nxc"
0	960	401		index __ArrHelper__mainparticle_219_0, __main_7qG2_list_7qG2_000, __signed_stack_001main
0	959	405	#line 959 "C:\Users\Sakeeb\Documents\School\Fall 2017\CSCC85\Phase 1\Phase1---Little-Lost-Robot\Distro\pfilter prob.nxc"
0	960	405		mov __signed_stack_002main, __main_7qG2_i_7qG2_000
0	959	407	#line 959 "C:\Users\Sakeeb\Documents\School\Fall 2017\CSCC85\Phase 1\Phase1---Little-Lost-Robot\Distro\pfilter prob.nxc"
0	959	407	#line 959 "C:\Users\Sakeeb\Documents\School\Fall 2017\CSCC85\Phase 1\Phase1---Little-Lost-Robot\Distro\pfilter prob.nxc"
0	960	407		set __D0main, 12
0	960	410	#line 960 "C:\Users\Sakeeb\Documents\School\Fall 2017\CSCC85\Phase 1\Phase1---Little-Lost-Robot\Distro\pfilter prob.nxc"
0	961	410		div __ArrHelper__mainparticle_219_0.y, __signed_stack_002main, __D0main
0	960	414	#line 960 "C:\Users\Sakeeb\Documents\School\Fall 2017\CSCC85\Phase 1\Phase1---Little-Lost-Robot\Distro\pfilter prob.nxc"
0	960	414	#line 960 "C:\Users\Sakeeb\Documents\School\Fall 2017\CSCC85\Phase 1\Phase1---Little-Lost-Robot\Distro\pfilter prob.nxc"
0	961	414		replace __main_7qG2_list_7qG2_000, __main_7qG2_list_7qG2_000, __signed_stack_001main, __ArrHelper__mainparticle_219_0
0	960	419	#line 960 "C:\Users\Sakeeb\Documents\School\Fall 2017\CSCC85\Phase 1\Phase1---Little-Lost-Robot\Distro\pfilter prob.nxc"
0	960	419	#line 960 "C:\Users\Sakeeb\Documents\School\Fall 2017\CSCC85\Phase 1\Phase1---Little-Lost-Robot\Distro\pfilter prob.nxc"
0	961	419		mov __signed_stack_001main, __main_7qG2_i_7qG2_000
0	960	422	#line 960 "C:\Users\Sakeeb\Documents\School\Fall 2017\CSCC85\Phase 1\Phase1---Little-Lost-Robot\Distro\pfilter prob.nxc"
0	960	422	#line 960 "C:\Users\Sakeeb\Documents\School\Fall 2017\CSCC85\Phase 1\Phase1---Little-Lost-Robot\Distro\pfilter prob.nxc"
0	961	422		set __D0main, 3
0	960	425	#line 960 "C:\Users\Sakeeb\Documents\School\Fall 2017\CSCC85\Phase 1\Phase1---Little-Lost-Robot\Distro\pfilter prob.nxc"
0	961	425		add __signed_stack_001main, __signed_stack_001main, __D0main
0	960	429	#line 960 "C:\Users\Sakeeb\Documents\School\Fall 2017\CSCC85\Phase 1\Phase1---Little-Lost-Robot\Distro\pfilter prob.nxc"
0	960	429	#line 960 "C:\Users\Sakeeb\Documents\School\Fall 2017\CSCC85\Phase 1\Phase1---Little-Lost-Robot\Distro\pfilter prob.nxc"
0	961	429		index __ArrHelper__mainparticle_219_0, __main_7qG2_list_7qG2_000, __signed_stack_001main
0	961	433	#line 961 "C:\Users\Sakeeb\Documents\School\Fall 2017\CSCC85\Phase 1\Phase1---Little-Lost-Robot\Distro\pfilter prob.nxc"
0	962	433		set __ArrHelper__mainparticle_219_0.theta, 103
0	961	436	#line 961 "C:\Users\Sakeeb\Documents\School\Fall 2017\CSCC85\Phase 1\Phase1---Little-Lost-Robot\Distro\pfilter prob.nxc"
0	961	436	#line 961 "C:\Users\Sakeeb\Documents\School\Fall 2017\CSCC85\Phase 1\Phase1---Little-Lost-Robot\Distro\pfilter prob.nxc"
0	962	436		replace __main_7qG2_list_7qG2_000, __main_7qG2_list_7qG2_000, __signed_stack_001main, __ArrHelper__mainparticle_219_0
0	961	441	#line 961 "C:\Users\Sakeeb\Documents\School\Fall 2017\CSCC85\Phase 1\Phase1---Little-Lost-Robot\Distro\pfilter prob.nxc"
0	961	441	#line 961 "C:\Users\Sakeeb\Documents\School\Fall 2017\CSCC85\Phase 1\Phase1---Little-Lost-Robot\Distro\pfilter prob.nxc"
0	962	441		mov __signed_stack_001main, __main_7qG2_i_7qG2_000
0	961	444	#line 961 "C:\Users\Sakeeb\Documents\School\Fall 2017\CSCC85\Phase 1\Phase1---Little-Lost-Robot\Distro\pfilter prob.nxc"
0	961	444	#line 961 "C:\Users\Sakeeb\Documents\School\Fall 2017\CSCC85\Phase 1\Phase1---Little-Lost-Robot\Distro\pfilter prob.nxc"
0	962	444		set __D0main, 3
0	961	447	#line 961 "C:\Users\Sakeeb\Documents\School\Fall 2017\CSCC85\Phase 1\Phase1---Little-Lost-Robot\Distro\pfilter prob.nxc"
0	962	447		add __signed_stack_001main, __signed_stack_001main, __D0main
0	961	451	#line 961 "C:\Users\Sakeeb\Documents\School\Fall 2017\CSCC85\Phase 1\Phase1---Little-Lost-Robot\Distro\pfilter prob.nxc"
0	961	451	#line 961 "C:\Users\Sakeeb\Documents\School\Fall 2017\CSCC85\Phase 1\Phase1---Little-Lost-Robot\Distro\pfilter prob.nxc"
0	962	451		index __ArrHelper__mainparticle_219_0, __main_7qG2_list_7qG2_000, __signed_stack_001main
0	962	455	#line 962 "C:\Users\Sakeeb\Documents\School\Fall 2017\CSCC85\Phase 1\Phase1---Little-Lost-Robot\Distro\pfilter prob.nxc"
0	963	455		mov __ArrHelper__mainparticle_219_0.prob, __constValf0P0166666667
0	962	458	#line 962 "C:\Users\Sakeeb\Documents\School\Fall 2017\CSCC85\Phase 1\Phase1---Little-Lost-Robot\Distro\pfilter prob.nxc"
0	962	458	#line 962 "C:\Users\Sakeeb\Documents\School\Fall 2017\CSCC85\Phase 1\Phase1---Little-Lost-Robot\Distro\pfilter prob.nxc"
0	963	458		replace __main_7qG2_list_7qG2_000, __main_7qG2_list_7qG2_000, __signed_stack_001main, __ArrHelper__mainparticle_219_0
0	962	463	#line 962 "C:\Users\Sakeeb\Documents\School\Fall 2017\CSCC85\Phase 1\Phase1---Little-Lost-Robot\Distro\pfilter prob.nxc"
0	982	463	#line 982 "C:\Users\Sakeeb\Documents\School\Fall 2017\CSCC85\Phase 1\Phase1---Little-Lost-Robot\Distro\pfilter prob.nxc"
0	983	463		jmp __ASM_Label_1605
0	982	465	#line 982 "C:\Users\Sakeeb\Documents\School\Fall 2017\CSCC85\Phase 1\Phase1---Little-Lost-Robot\Distro\pfilter prob.nxc"
0	982	465	#line 982 "C:\Users\Sakeeb\Documents\School\Fall 2017\CSCC85\Phase 1\Phase1---Little-Lost-Robot\Distro\pfilter prob.nxc"
0	983	465		strcat __strbufmain, __constStr0017
0	982	469	#line 982 "C:\Users\Sakeeb\Documents\School\Fall 2017\CSCC85\Phase 1\Phase1---Little-Lost-Robot\Distro\pfilter prob.nxc"
0	983	469		mov __fopen_7qG2_filename_7qG2_000, __strbufmain
0	982	471	#line 982 "C:\Users\Sakeeb\Documents\School\Fall 2017\CSCC85\Phase 1\Phase1---Little-Lost-Robot\Distro\pfilter prob.nxc"
0	983	471		strcat __strbufmain, __constStr0006
0	982	475	#line 982 "C:\Users\Sakeeb\Documents\School\Fall 2017\CSCC85\Phase 1\Phase1---Little-Lost-Robot\Distro\pfilter prob.nxc"
0	983	475		mov __fopen_7qG2_mode_7qG2_000, __strbufmain
0	984	477	#line 984 "C:\Users\Sakeeb\Documents\School\Fall 2017\CSCC85\Phase 1\Phase1---Little-Lost-Robot\Distro\pfilter prob.nxc"
0	985	477		subcall fopen, __fopen_return
0	984	480	#line 984 "C:\Users\Sakeeb\Documents\School\Fall 2017\CSCC85\Phase 1\Phase1---Little-Lost-Robot\Distro\pfilter prob.nxc"
0	985	480		mov __main_7qG2_fd_7qG2_000, __DU0fopen
0	984	482	#line 984 "C:\Users\Sakeeb\Documents\School\Fall 2017\CSCC85\Phase 1\Phase1---Little-Lost-Robot\Distro\pfilter prob.nxc"
0	984	482	#line 984 "C:\Users\Sakeeb\Documents\School\Fall 2017\CSCC85\Phase 1\Phase1---Little-Lost-Robot\Distro\pfilter prob.nxc"
0	984	482	#line 984 "C:\Users\Sakeeb\Documents\School\Fall 2017\CSCC85\Phase 1\Phase1---Little-Lost-Robot\Distro\pfilter prob.nxc"
0	985	482		set __main_7qG2_i_7qG2_000, 0
0	984	485	#line 984 "C:\Users\Sakeeb\Documents\School\Fall 2017\CSCC85\Phase 1\Phase1---Little-Lost-Robot\Distro\pfilter prob.nxc"
0	984	485	#line 984 "C:\Users\Sakeeb\Documents\School\Fall 2017\CSCC85\Phase 1\Phase1---Little-Lost-Robot\Distro\pfilter prob.nxc"
0	985	485		mov __signed_stack_001main, __main_7qG2_i_7qG2_000
0	984	488	#line 984 "C:\Users\Sakeeb\Documents\School\Fall 2017\CSCC85\Phase 1\Phase1---Little-Lost-Robot\Distro\pfilter prob.nxc"
0	984	488	#line 984 "C:\Users\Sakeeb\Documents\School\Fall 2017\CSCC85\Phase 1\Phase1---Little-Lost-Robot\Distro\pfilter prob.nxc"
0	985	488		set __D0main, 15
0	984	491	#line 984 "C:\Users\Sakeeb\Documents\School\Fall 2017\CSCC85\Phase 1\Phase1---Little-Lost-Robot\Distro\pfilter prob.nxc"
0	985	491		cmp 0, __D0main, __signed_stack_001main, __D0main
0	984	495	#line 984 "C:\Users\Sakeeb\Documents\School\Fall 2017\CSCC85\Phase 1\Phase1---Little-Lost-Robot\Distro\pfilter prob.nxc"
0	985	495		brtst 4, __ASM_Label_1703, __D0main
0	984	498	#line 984 "C:\Users\Sakeeb\Documents\School\Fall 2017\CSCC85\Phase 1\Phase1---Little-Lost-Robot\Distro\pfilter prob.nxc"
0	985	498		jmp __ASM_Label_1704
0	984	500	#line 984 "C:\Users\Sakeeb\Documents\School\Fall 2017\CSCC85\Phase 1\Phase1---Little-Lost-Robot\Distro\pfilter prob.nxc"
0	985	500		add __main_7qG2_i_7qG2_000, __main_7qG2_i_7qG2_000, __constVal1
0	985	504	#line 985 "C:\Users\Sakeeb\Documents\School\Fall 2017\CSCC85\Phase 1\Phase1---Little-Lost-Robot\Distro\pfilter prob.nxc"
0	986	504		jmp __ASM_Label_1702
0	985	506	#line 985 "C:\Users\Sakeeb\Documents\School\Fall 2017\CSCC85\Phase 1\Phase1---Little-Lost-Robot\Distro\pfilter prob.nxc"
0	986	506		mov __fgets_7qG2_str_7qG2_000_inline_main, __main_7qG2_line_7qG2_000
0	985	508	#line 985 "C:\Users\Sakeeb\Documents\School\Fall 2017\CSCC85\Phase 1\Phase1---Little-Lost-Robot\Distro\pfilter prob.nxc"
0	986	508		set __fgets_7qG2_num_7qG2_000_inline_main, 10
0	985	511	#line 985 "C:\Users\Sakeeb\Documents\School\Fall 2017\CSCC85\Phase 1\Phase1---Little-Lost-Robot\Distro\pfilter prob.nxc"
0	985	511	#line 985 "C:\Users\Sakeeb\Documents\School\Fall 2017\CSCC85\Phase 1\Phase1---Little-Lost-Robot\Distro\pfilter prob.nxc"
0	986	511		mov __fgets_7qG2_handle_7qG2_000_inline_main, __main_7qG2_fd_7qG2_000
0	985	513	#line 985 "C:\Users\Sakeeb\Documents\School\Fall 2017\CSCC85\Phase 1\Phase1---Little-Lost-Robot\Distro\pfilter prob.nxc"
0	19265	513	#line 19265 "NXCDefs.h"
0	19266	513	#pragma macro 7
0	19266	513		mov __FReadArgs.FileHandle, __main_7qG2_fd_7qG2_000
0	19266	515		mov __RLSMaxBytes, __fgets_7qG2_num_7qG2_000_inline_main
0	19266	517		subcall __readStringLine, __RLSReturnAddress
0	19266	520		mov __D0fgets_inline_main, __RLSReturn
0	19266	522		mov __fgets_7qG2_str_7qG2_000_inline_main, __RLSOutput
0	11228	524	#line 11228 "NXCDefs.h"
0	19265	524	#line 19265 "NXCDefs.h"
0	19265	524	#line 19265 "NXCDefs.h"
0	19267	524	#line 19267 "NXCDefs.h"
0	19268	524		strcat __strbuffgets_inline_main, __fgets_7qG2_str_7qG2_000_inline_main
0	19267	528	#line 19267 "NXCDefs.h"
0	19267	528	#line 19267 "NXCDefs.h"
0	988	528	#line 988 "C:\Users\Sakeeb\Documents\School\Fall 2017\CSCC85\Phase 1\Phase1---Little-Lost-Robot\Distro\pfilter prob.nxc"
0	989	528		mov __main_7qG2_line_7qG2_000, __fgets_7qG2_str_7qG2_000_inline_main
0	988	530	#line 988 "C:\Users\Sakeeb\Documents\School\Fall 2017\CSCC85\Phase 1\Phase1---Little-Lost-Robot\Distro\pfilter prob.nxc"
0	989	530		mov __strretvalmain, __strbuffgets_inline_main
0	988	532	#line 988 "C:\Users\Sakeeb\Documents\School\Fall 2017\CSCC85\Phase 1\Phase1---Little-Lost-Robot\Distro\pfilter prob.nxc"
0	988	532	#line 988 "C:\Users\Sakeeb\Documents\School\Fall 2017\CSCC85\Phase 1\Phase1---Little-Lost-Robot\Distro\pfilter prob.nxc"
0	989	532		set __main_7qG2_j_7qG2_000, 0
0	988	535	#line 988 "C:\Users\Sakeeb\Documents\School\Fall 2017\CSCC85\Phase 1\Phase1---Little-Lost-Robot\Distro\pfilter prob.nxc"
0	988	535	#line 988 "C:\Users\Sakeeb\Documents\School\Fall 2017\CSCC85\Phase 1\Phase1---Little-Lost-Robot\Distro\pfilter prob.nxc"
0	989	535		mov __signed_stack_001main, __main_7qG2_j_7qG2_000
0	988	538	#line 988 "C:\Users\Sakeeb\Documents\School\Fall 2017\CSCC85\Phase 1\Phase1---Little-Lost-Robot\Distro\pfilter prob.nxc"
0	988	538	#line 988 "C:\Users\Sakeeb\Documents\School\Fall 2017\CSCC85\Phase 1\Phase1---Little-Lost-Robot\Distro\pfilter prob.nxc"
0	989	538		set __D0main, 7
0	988	541	#line 988 "C:\Users\Sakeeb\Documents\School\Fall 2017\CSCC85\Phase 1\Phase1---Little-Lost-Robot\Distro\pfilter prob.nxc"
0	989	541		cmp 0, __D0main, __signed_stack_001main, __D0main
0	988	545	#line 988 "C:\Users\Sakeeb\Documents\School\Fall 2017\CSCC85\Phase 1\Phase1---Little-Lost-Robot\Distro\pfilter prob.nxc"
0	989	545		brtst 4, __ASM_Label_1715, __D0main
0	988	548	#line 988 "C:\Users\Sakeeb\Documents\School\Fall 2017\CSCC85\Phase 1\Phase1---Little-Lost-Robot\Distro\pfilter prob.nxc"
0	989	548		jmp __ASM_Label_1716
0	988	550	#line 988 "C:\Users\Sakeeb\Documents\School\Fall 2017\CSCC85\Phase 1\Phase1---Little-Lost-Robot\Distro\pfilter prob.nxc"
0	989	550		mov __signed_stack_001main, __main_7qG2_j_7qG2_000
0	988	553	#line 988 "C:\Users\Sakeeb\Documents\School\Fall 2017\CSCC85\Phase 1\Phase1---Little-Lost-Robot\Distro\pfilter prob.nxc"
0	988	553	#line 988 "C:\Users\Sakeeb\Documents\School\Fall 2017\CSCC85\Phase 1\Phase1---Little-Lost-Robot\Distro\pfilter prob.nxc"
0	989	553		set __D0main, 2
0	988	556	#line 988 "C:\Users\Sakeeb\Documents\School\Fall 2017\CSCC85\Phase 1\Phase1---Little-Lost-Robot\Distro\pfilter prob.nxc"
0	989	556		add __main_7qG2_j_7qG2_000, __signed_stack_001main, __D0main
0	988	560	#line 988 "C:\Users\Sakeeb\Documents\School\Fall 2017\CSCC85\Phase 1\Phase1---Little-Lost-Robot\Distro\pfilter prob.nxc"
0	989	560	#line 989 "C:\Users\Sakeeb\Documents\School\Fall 2017\CSCC85\Phase 1\Phase1---Little-Lost-Robot\Distro\pfilter prob.nxc"
0	990	560		jmp __ASM_Label_1714
0	989	562	#line 989 "C:\Users\Sakeeb\Documents\School\Fall 2017\CSCC85\Phase 1\Phase1---Little-Lost-Robot\Distro\pfilter prob.nxc"
0	990	562		strcat __strbufmain, __main_7qG2_line_7qG2_000
0	989	566	#line 989 "C:\Users\Sakeeb\Documents\School\Fall 2017\CSCC85\Phase 1\Phase1---Little-Lost-Robot\Distro\pfilter prob.nxc"
0	990	566		mov __D0main, __main_7qG2_j_7qG2_000
0	990	568	#line 990 "C:\Users\Sakeeb\Documents\School\Fall 2017\CSCC85\Phase 1\Phase1---Little-Lost-Robot\Distro\pfilter prob.nxc"
0	991	568		index __main_7qG2_charat_7qG2_000, __strbufmain, __D0main
0	990	572	#line 990 "C:\Users\Sakeeb\Documents\School\Fall 2017\CSCC85\Phase 1\Phase1---Little-Lost-Robot\Distro\pfilter prob.nxc"
0	990	572	#line 990 "C:\Users\Sakeeb\Documents\School\Fall 2017\CSCC85\Phase 1\Phase1---Little-Lost-Robot\Distro\pfilter prob.nxc"
0	990	572	#line 990 "C:\Users\Sakeeb\Documents\School\Fall 2017\CSCC85\Phase 1\Phase1---Little-Lost-Robot\Distro\pfilter prob.nxc"
0	991	572		mov __D0main, __main_7qG2_j_7qG2_000
0	994	574		brcmp 4, __ASM_Label_1731, __constVal0, __D0main
0	995	578		brcmp 4, __ASM_Label_1736, __constVal2, __D0main
0	996	582		brcmp 4, __ASM_Label_1741, __constVal4, __D0main
0	997	586		brcmp 4, __ASM_Label_1746, __constVal6, __D0main
0	998	590		jmp __ASM_Label_1730
0	992	592	#line 992 "C:\Users\Sakeeb\Documents\School\Fall 2017\CSCC85\Phase 1\Phase1---Little-Lost-Robot\Distro\pfilter prob.nxc"
0	992	592	#line 992 "C:\Users\Sakeeb\Documents\School\Fall 2017\CSCC85\Phase 1\Phase1---Little-Lost-Robot\Distro\pfilter prob.nxc"
0	993	592		mov __signed_stack_001main, __main_7qG2_i_7qG2_000
0	992	595	#line 992 "C:\Users\Sakeeb\Documents\School\Fall 2017\CSCC85\Phase 1\Phase1---Little-Lost-Robot\Distro\pfilter prob.nxc"
0	992	595	#line 992 "C:\Users\Sakeeb\Documents\School\Fall 2017\CSCC85\Phase 1\Phase1---Little-Lost-Robot\Distro\pfilter prob.nxc"
0	993	595		index __ArrHelper__mainintersection_219_0, __main_7qG2_map_7qG2_000, __signed_stack_001main
0	992	599	#line 992 "C:\Users\Sakeeb\Documents\School\Fall 2017\CSCC85\Phase 1\Phase1---Little-Lost-Robot\Distro\pfilter prob.nxc"
0	993	599		mov __unsigned_stack_002main, __main_7qG2_charat_7qG2_000
0	992	602	#line 992 "C:\Users\Sakeeb\Documents\School\Fall 2017\CSCC85\Phase 1\Phase1---Little-Lost-Robot\Distro\pfilter prob.nxc"
0	993	602	#line 993 "C:\Users\Sakeeb\Documents\School\Fall 2017\CSCC85\Phase 1\Phase1---Little-Lost-Robot\Distro\pfilter prob.nxc"
0	994	602		set __D0main, 48
0	993	605	#line 993 "C:\Users\Sakeeb\Documents\School\Fall 2017\CSCC85\Phase 1\Phase1---Little-Lost-Robot\Distro\pfilter prob.nxc"
0	994	605		sub __ArrHelper__mainintersection_219_0.NE, __unsigned_stack_002main, __D0main
0	993	609	#line 993 "C:\Users\Sakeeb\Documents\School\Fall 2017\CSCC85\Phase 1\Phase1---Little-Lost-Robot\Distro\pfilter prob.nxc"
0	993	609	#line 993 "C:\Users\Sakeeb\Documents\School\Fall 2017\CSCC85\Phase 1\Phase1---Little-Lost-Robot\Distro\pfilter prob.nxc"
0	994	609		replace __main_7qG2_map_7qG2_000, __main_7qG2_map_7qG2_000, __signed_stack_001main, __ArrHelper__mainintersection_219_0
0	993	614	#line 993 "C:\Users\Sakeeb\Documents\School\Fall 2017\CSCC85\Phase 1\Phase1---Little-Lost-Robot\Distro\pfilter prob.nxc"
0	994	614	#line 994 "C:\Users\Sakeeb\Documents\School\Fall 2017\CSCC85\Phase 1\Phase1---Little-Lost-Robot\Distro\pfilter prob.nxc"
0	995	614		jmp __ASM_Label_1730
0	994	616	#line 994 "C:\Users\Sakeeb\Documents\School\Fall 2017\CSCC85\Phase 1\Phase1---Little-Lost-Robot\Distro\pfilter prob.nxc"
0	995	616	#line 995 "C:\Users\Sakeeb\Documents\School\Fall 2017\CSCC85\Phase 1\Phase1---Little-Lost-Robot\Distro\pfilter prob.nxc"
0	995	616	#line 995 "C:\Users\Sakeeb\Documents\School\Fall 2017\CSCC85\Phase 1\Phase1---Little-Lost-Robot\Distro\pfilter prob.nxc"
0	996	616		mov __signed_stack_001main, __main_7qG2_i_7qG2_000
0	995	619	#line 995 "C:\Users\Sakeeb\Documents\School\Fall 2017\CSCC85\Phase 1\Phase1---Little-Lost-Robot\Distro\pfilter prob.nxc"
0	995	619	#line 995 "C:\Users\Sakeeb\Documents\School\Fall 2017\CSCC85\Phase 1\Phase1---Little-Lost-Robot\Distro\pfilter prob.nxc"
0	996	619		index __ArrHelper__mainintersection_219_0, __main_7qG2_map_7qG2_000, __signed_stack_001main
0	995	623	#line 995 "C:\Users\Sakeeb\Documents\School\Fall 2017\CSCC85\Phase 1\Phase1---Little-Lost-Robot\Distro\pfilter prob.nxc"
0	996	623		mov __unsigned_stack_002main, __main_7qG2_charat_7qG2_000
0	995	626	#line 995 "C:\Users\Sakeeb\Documents\School\Fall 2017\CSCC85\Phase 1\Phase1---Little-Lost-Robot\Distro\pfilter prob.nxc"
0	996	626	#line 996 "C:\Users\Sakeeb\Documents\School\Fall 2017\CSCC85\Phase 1\Phase1---Little-Lost-Robot\Distro\pfilter prob.nxc"
0	997	626		set __D0main, 48
0	996	629	#line 996 "C:\Users\Sakeeb\Documents\School\Fall 2017\CSCC85\Phase 1\Phase1---Little-Lost-Robot\Distro\pfilter prob.nxc"
0	997	629		sub __ArrHelper__mainintersection_219_0.SE, __unsigned_stack_002main, __D0main
0	996	633	#line 996 "C:\Users\Sakeeb\Documents\School\Fall 2017\CSCC85\Phase 1\Phase1---Little-Lost-Robot\Distro\pfilter prob.nxc"
0	996	633	#line 996 "C:\Users\Sakeeb\Documents\School\Fall 2017\CSCC85\Phase 1\Phase1---Little-Lost-Robot\Distro\pfilter prob.nxc"
0	997	633		replace __main_7qG2_map_7qG2_000, __main_7qG2_map_7qG2_000, __signed_stack_001main, __ArrHelper__mainintersection_219_0
0	996	638	#line 996 "C:\Users\Sakeeb\Documents\School\Fall 2017\CSCC85\Phase 1\Phase1---Little-Lost-Robot\Distro\pfilter prob.nxc"
0	997	638	#line 997 "C:\Users\Sakeeb\Documents\School\Fall 2017\CSCC85\Phase 1\Phase1---Little-Lost-Robot\Distro\pfilter prob.nxc"
0	998	638		jmp __ASM_Label_1730
0	997	640	#line 997 "C:\Users\Sakeeb\Documents\School\Fall 2017\CSCC85\Phase 1\Phase1---Little-Lost-Robot\Distro\pfilter prob.nxc"
0	998	640	#line 998 "C:\Users\Sakeeb\Documents\School\Fall 2017\CSCC85\Phase 1\Phase1---Little-Lost-Robot\Distro\pfilter prob.nxc"
0	998	640	#line 998 "C:\Users\Sakeeb\Documents\School\Fall 2017\CSCC85\Phase 1\Phase1---Little-Lost-Robot\Distro\pfilter prob.nxc"
0	999	640		mov __signed_stack_001main, __main_7qG2_i_7qG2_000
0	998	643	#line 998 "C:\Users\Sakeeb\Documents\School\Fall 2017\CSCC85\Phase 1\Phase1---Little-Lost-Robot\Distro\pfilter prob.nxc"
0	998	643	#line 998 "C:\Users\Sakeeb\Documents\School\Fall 2017\CSCC85\Phase 1\Phase1---Little-Lost-Robot\Distro\pfilter prob.nxc"
0	999	643		index __ArrHelper__mainintersection_219_0, __main_7qG2_map_7qG2_000, __signed_stack_001main
0	998	647	#line 998 "C:\Users\Sakeeb\Documents\School\Fall 2017\CSCC85\Phase 1\Phase1---Little-Lost-Robot\Distro\pfilter prob.nxc"
0	999	647		mov __unsigned_stack_002main, __main_7qG2_charat_7qG2_000
0	998	650	#line 998 "C:\Users\Sakeeb\Documents\School\Fall 2017\CSCC85\Phase 1\Phase1---Little-Lost-Robot\Distro\pfilter prob.nxc"
0	999	650	#line 999 "C:\Users\Sakeeb\Documents\School\Fall 2017\CSCC85\Phase 1\Phase1---Little-Lost-Robot\Distro\pfilter prob.nxc"
0	1000	650		set __D0main, 48
0	999	653	#line 999 "C:\Users\Sakeeb\Documents\School\Fall 2017\CSCC85\Phase 1\Phase1---Little-Lost-Robot\Distro\pfilter prob.nxc"
0	1000	653		sub __ArrHelper__mainintersection_219_0.SW, __unsigned_stack_002main, __D0main
0	999	657	#line 999 "C:\Users\Sakeeb\Documents\School\Fall 2017\CSCC85\Phase 1\Phase1---Little-Lost-Robot\Distro\pfilter prob.nxc"
0	999	657	#line 999 "C:\Users\Sakeeb\Documents\School\Fall 2017\CSCC85\Phase 1\Phase1---Little-Lost-Robot\Distro\pfilter prob.nxc"
0	1000	657		replace __main_7qG2_map_7qG2_000, __main_7qG2_map_7qG2_000, __signed_stack_001main, __ArrHelper__mainintersection_219_0
0	999	662	#line 999 "C:\Users\Sakeeb\Documents\School\Fall 2017\CSCC85\Phase 1\Phase1---Little-Lost-Robot\Distro\pfilter prob.nxc"
0	1000	662	#line 1000 "C:\Users\Sakeeb\Documents\School\Fall 2017\CSCC85\Phase 1\Phase1---Little-Lost-Robot\Distro\pfilter prob.nxc"
0	1001	662		jmp __ASM_Label_1730
0	1000	664	#line 1000 "C:\Users\Sakeeb\Documents\School\Fall 2017\CSCC85\Phase 1\Phase1---Little-Lost-Robot\Distro\pfilter prob.nxc"
0	1001	664	#line 1001 "C:\Users\Sakeeb\Documents\School\Fall 2017\CSCC85\Phase 1\Phase1---Little-Lost-Robot\Distro\pfilter prob.nxc"
0	1001	664	#line 1001 "C:\Users\Sakeeb\Documents\School\Fall 2017\CSCC85\Phase 1\Phase1---Little-Lost-Robot\Distro\pfilter prob.nxc"
0	1002	664		mov __signed_stack_001main, __main_7qG2_i_7qG2_000
0	1001	667	#line 1001 "C:\Users\Sakeeb\Documents\School\Fall 2017\CSCC85\Phase 1\Phase1---Little-Lost-Robot\Distro\pfilter prob.nxc"
0	1001	667	#line 1001 "C:\Users\Sakeeb\Documents\School\Fall 2017\CSCC85\Phase 1\Phase1---Little-Lost-Robot\Distro\pfilter prob.nxc"
0	1002	667		index __ArrHelper__mainintersection_219_0, __main_7qG2_map_7qG2_000, __signed_stack_001main
0	1001	671	#line 1001 "C:\Users\Sakeeb\Documents\School\Fall 2017\CSCC85\Phase 1\Phase1---Little-Lost-Robot\Distro\pfilter prob.nxc"
0	1002	671		mov __unsigned_stack_002main, __main_7qG2_charat_7qG2_000
0	1001	674	#line 1001 "C:\Users\Sakeeb\Documents\School\Fall 2017\CSCC85\Phase 1\Phase1---Little-Lost-Robot\Distro\pfilter prob.nxc"
0	1002	674	#line 1002 "C:\Users\Sakeeb\Documents\School\Fall 2017\CSCC85\Phase 1\Phase1---Little-Lost-Robot\Distro\pfilter prob.nxc"
0	1003	674		set __D0main, 48
0	1002	677	#line 1002 "C:\Users\Sakeeb\Documents\School\Fall 2017\CSCC85\Phase 1\Phase1---Little-Lost-Robot\Distro\pfilter prob.nxc"
0	1003	677		sub __ArrHelper__mainintersection_219_0.NW, __unsigned_stack_002main, __D0main
0	1002	681	#line 1002 "C:\Users\Sakeeb\Documents\School\Fall 2017\CSCC85\Phase 1\Phase1---Little-Lost-Robot\Distro\pfilter prob.nxc"
0	1002	681	#line 1002 "C:\Users\Sakeeb\Documents\School\Fall 2017\CSCC85\Phase 1\Phase1---Little-Lost-Robot\Distro\pfilter prob.nxc"
0	1003	681		replace __main_7qG2_map_7qG2_000, __main_7qG2_map_7qG2_000, __signed_stack_001main, __ArrHelper__mainintersection_219_0
0	1002	686	#line 1002 "C:\Users\Sakeeb\Documents\School\Fall 2017\CSCC85\Phase 1\Phase1---Little-Lost-Robot\Distro\pfilter prob.nxc"
0	1003	686	#line 1003 "C:\Users\Sakeeb\Documents\School\Fall 2017\CSCC85\Phase 1\Phase1---Little-Lost-Robot\Distro\pfilter prob.nxc"
0	1003	686	#line 1003 "C:\Users\Sakeeb\Documents\School\Fall 2017\CSCC85\Phase 1\Phase1---Little-Lost-Robot\Distro\pfilter prob.nxc"
0	1005	686	#line 1005 "C:\Users\Sakeeb\Documents\School\Fall 2017\CSCC85\Phase 1\Phase1---Little-Lost-Robot\Distro\pfilter prob.nxc"
0	1007	686	#line 1007 "C:\Users\Sakeeb\Documents\School\Fall 2017\CSCC85\Phase 1\Phase1---Little-Lost-Robot\Distro\pfilter prob.nxc"
0	1008	686		jmp __ASM_Label_1717
0	1007	688	#line 1007 "C:\Users\Sakeeb\Documents\School\Fall 2017\CSCC85\Phase 1\Phase1---Little-Lost-Robot\Distro\pfilter prob.nxc"
0	1007	688	#line 1007 "C:\Users\Sakeeb\Documents\School\Fall 2017\CSCC85\Phase 1\Phase1---Little-Lost-Robot\Distro\pfilter prob.nxc"
0	1008	688		jmp __ASM_Label_1705
0	1007	690	#line 1007 "C:\Users\Sakeeb\Documents\School\Fall 2017\CSCC85\Phase 1\Phase1---Little-Lost-Robot\Distro\pfilter prob.nxc"
0	1007	690	#line 1007 "C:\Users\Sakeeb\Documents\School\Fall 2017\CSCC85\Phase 1\Phase1---Little-Lost-Robot\Distro\pfilter prob.nxc"
0	1008	690		mov __fgets_7qG2_str_7qG2_000_inline_main, __main_7qG2_line_7qG2_000
0	1007	692	#line 1007 "C:\Users\Sakeeb\Documents\School\Fall 2017\CSCC85\Phase 1\Phase1---Little-Lost-Robot\Distro\pfilter prob.nxc"
0	1008	692		set __fgets_7qG2_num_7qG2_000_inline_main, 10
0	1007	695	#line 1007 "C:\Users\Sakeeb\Documents\School\Fall 2017\CSCC85\Phase 1\Phase1---Little-Lost-Robot\Distro\pfilter prob.nxc"
0	1007	695	#line 1007 "C:\Users\Sakeeb\Documents\School\Fall 2017\CSCC85\Phase 1\Phase1---Little-Lost-Robot\Distro\pfilter prob.nxc"
0	1008	695		mov __fgets_7qG2_handle_7qG2_000_inline_main, __main_7qG2_fd_7qG2_000
0	1007	697	#line 1007 "C:\Users\Sakeeb\Documents\School\Fall 2017\CSCC85\Phase 1\Phase1---Little-Lost-Robot\Distro\pfilter prob.nxc"
0	19265	697	#line 19265 "NXCDefs.h"
0	19266	697	#pragma macro 7
0	19266	697		mov __FReadArgs.FileHandle, __main_7qG2_fd_7qG2_000
0	19266	699		mov __RLSMaxBytes, __fgets_7qG2_num_7qG2_000_inline_main
0	19266	701		subcall __readStringLine, __RLSReturnAddress
0	19266	704		mov __D0fgets_inline_main, __RLSReturn
0	19266	706		mov __fgets_7qG2_str_7qG2_000_inline_main, __RLSOutput
0	11463	708	#line 11463 "NXCDefs.h"
0	19265	708	#line 19265 "NXCDefs.h"
0	19265	708	#line 19265 "NXCDefs.h"
0	19267	708	#line 19267 "NXCDefs.h"
0	19268	708		strcat __strbuffgets_inline_main, __fgets_7qG2_str_7qG2_000_inline_main
0	19267	712	#line 19267 "NXCDefs.h"
0	19267	712	#line 19267 "NXCDefs.h"
0	1008	712	#line 1008 "C:\Users\Sakeeb\Documents\School\Fall 2017\CSCC85\Phase 1\Phase1---Little-Lost-Robot\Distro\pfilter prob.nxc"
0	1009	712		mov __main_7qG2_line_7qG2_000, __fgets_7qG2_str_7qG2_000_inline_main
0	1008	714	#line 1008 "C:\Users\Sakeeb\Documents\School\Fall 2017\CSCC85\Phase 1\Phase1---Little-Lost-Robot\Distro\pfilter prob.nxc"
0	1009	714		mov __strretvalmain, __strbuffgets_inline_main
0	1008	716	#line 1008 "C:\Users\Sakeeb\Documents\School\Fall 2017\CSCC85\Phase 1\Phase1---Little-Lost-Robot\Distro\pfilter prob.nxc"
0	1008	716	#line 1008 "C:\Users\Sakeeb\Documents\School\Fall 2017\CSCC85\Phase 1\Phase1---Little-Lost-Robot\Distro\pfilter prob.nxc"
0	1009	716		strcat __strbufmain, __main_7qG2_line_7qG2_000
0	1008	720	#line 1008 "C:\Users\Sakeeb\Documents\School\Fall 2017\CSCC85\Phase 1\Phase1---Little-Lost-Robot\Distro\pfilter prob.nxc"
0	1009	720		set __D0main, 0
0	1009	723	#line 1009 "C:\Users\Sakeeb\Documents\School\Fall 2017\CSCC85\Phase 1\Phase1---Little-Lost-Robot\Distro\pfilter prob.nxc"
0	1010	723		index __main_7qG2_charat_7qG2_000, __strbufmain, __D0main
0	1009	727	#line 1009 "C:\Users\Sakeeb\Documents\School\Fall 2017\CSCC85\Phase 1\Phase1---Little-Lost-Robot\Distro\pfilter prob.nxc"
0	1009	727	#line 1009 "C:\Users\Sakeeb\Documents\School\Fall 2017\CSCC85\Phase 1\Phase1---Little-Lost-Robot\Distro\pfilter prob.nxc"
0	1009	727	#line 1009 "C:\Users\Sakeeb\Documents\School\Fall 2017\CSCC85\Phase 1\Phase1---Little-Lost-Robot\Distro\pfilter prob.nxc"
0	1010	727		mov __unsigned_stack_001main, __main_7qG2_charat_7qG2_000
0	1009	730	#line 1009 "C:\Users\Sakeeb\Documents\School\Fall 2017\CSCC85\Phase 1\Phase1---Little-Lost-Robot\Distro\pfilter prob.nxc"
0	1010	730	#line 1010 "C:\Users\Sakeeb\Documents\School\Fall 2017\CSCC85\Phase 1\Phase1---Little-Lost-Robot\Distro\pfilter prob.nxc"
0	1011	730		set __D0main, 48
0	1010	733	#line 1010 "C:\Users\Sakeeb\Documents\School\Fall 2017\CSCC85\Phase 1\Phase1---Little-Lost-Robot\Distro\pfilter prob.nxc"
0	1011	733		sub __main_7qG2_target_7qG2_000, __unsigned_stack_001main, __D0main
0	1010	737	#line 1010 "C:\Users\Sakeeb\Documents\School\Fall 2017\CSCC85\Phase 1\Phase1---Little-Lost-Robot\Distro\pfilter prob.nxc"
0	1010	737	#line 1010 "C:\Users\Sakeeb\Documents\School\Fall 2017\CSCC85\Phase 1\Phase1---Little-Lost-Robot\Distro\pfilter prob.nxc"
0	1010	737	#line 1010 "C:\Users\Sakeeb\Documents\School\Fall 2017\CSCC85\Phase 1\Phase1---Little-Lost-Robot\Distro\pfilter prob.nxc"
0	1011	737		mov __signed_stack_001main, __main_7qG2_target_7qG2_000
0	1010	740	#line 1010 "C:\Users\Sakeeb\Documents\School\Fall 2017\CSCC85\Phase 1\Phase1---Little-Lost-Robot\Distro\pfilter prob.nxc"
0	1011	740	#line 1011 "C:\Users\Sakeeb\Documents\School\Fall 2017\CSCC85\Phase 1\Phase1---Little-Lost-Robot\Distro\pfilter prob.nxc"
0	1012	740		set __D0main, 5
0	1011	743	#line 1011 "C:\Users\Sakeeb\Documents\School\Fall 2017\CSCC85\Phase 1\Phase1---Little-Lost-Robot\Distro\pfilter prob.nxc"
0	1012	743		mul __main_7qG2_target_7qG2_000, __signed_stack_001main, __D0main
0	1011	747	#line 1011 "C:\Users\Sakeeb\Documents\School\Fall 2017\CSCC85\Phase 1\Phase1---Little-Lost-Robot\Distro\pfilter prob.nxc"
0	1011	747	#line 1011 "C:\Users\Sakeeb\Documents\School\Fall 2017\CSCC85\Phase 1\Phase1---Little-Lost-Robot\Distro\pfilter prob.nxc"
0	1011	747	#line 1011 "C:\Users\Sakeeb\Documents\School\Fall 2017\CSCC85\Phase 1\Phase1---Little-Lost-Robot\Distro\pfilter prob.nxc"
0	1012	747		strcat __strbufmain, __main_7qG2_line_7qG2_000
0	1011	751	#line 1011 "C:\Users\Sakeeb\Documents\School\Fall 2017\CSCC85\Phase 1\Phase1---Little-Lost-Robot\Distro\pfilter prob.nxc"
0	1012	751		set __D0main, 2
0	1012	754	#line 1012 "C:\Users\Sakeeb\Documents\School\Fall 2017\CSCC85\Phase 1\Phase1---Little-Lost-Robot\Distro\pfilter prob.nxc"
0	1013	754		index __main_7qG2_charat_7qG2_000, __strbufmain, __D0main
0	1012	758	#line 1012 "C:\Users\Sakeeb\Documents\School\Fall 2017\CSCC85\Phase 1\Phase1---Little-Lost-Robot\Distro\pfilter prob.nxc"
0	1012	758	#line 1012 "C:\Users\Sakeeb\Documents\School\Fall 2017\CSCC85\Phase 1\Phase1---Little-Lost-Robot\Distro\pfilter prob.nxc"
0	1012	758	#line 1012 "C:\Users\Sakeeb\Documents\School\Fall 2017\CSCC85\Phase 1\Phase1---Little-Lost-Robot\Distro\pfilter prob.nxc"
0	1013	758		mov __signed_stack_001main, __main_7qG2_target_7qG2_000
0	1012	761	#line 1012 "C:\Users\Sakeeb\Documents\School\Fall 2017\CSCC85\Phase 1\Phase1---Little-Lost-Robot\Distro\pfilter prob.nxc"
0	1012	761	#line 1012 "C:\Users\Sakeeb\Documents\School\Fall 2017\CSCC85\Phase 1\Phase1---Little-Lost-Robot\Distro\pfilter prob.nxc"
0	1013	761		mov __DU0main, __main_7qG2_charat_7qG2_000
0	1012	763	#line 1012 "C:\Users\Sakeeb\Documents\School\Fall 2017\CSCC85\Phase 1\Phase1---Little-Lost-Robot\Distro\pfilter prob.nxc"
0	1013	763		add __signed_stack_001main, __signed_stack_001main, __DU0main
0	1012	767	#line 1012 "C:\Users\Sakeeb\Documents\School\Fall 2017\CSCC85\Phase 1\Phase1---Little-Lost-Robot\Distro\pfilter prob.nxc"
0	1015	767	#line 1015 "C:\Users\Sakeeb\Documents\School\Fall 2017\CSCC85\Phase 1\Phase1---Little-Lost-Robot\Distro\pfilter prob.nxc"
0	1016	767		set __D0main, 48
0	1015	770	#line 1015 "C:\Users\Sakeeb\Documents\School\Fall 2017\CSCC85\Phase 1\Phase1---Little-Lost-Robot\Distro\pfilter prob.nxc"
0	1016	770		sub __main_7qG2_target_7qG2_000, __signed_stack_001main, __D0main
0	1015	774	#line 1015 "C:\Users\Sakeeb\Documents\School\Fall 2017\CSCC85\Phase 1\Phase1---Little-Lost-Robot\Distro\pfilter prob.nxc"
0	1015	774	#line 1015 "C:\Users\Sakeeb\Documents\School\Fall 2017\CSCC85\Phase 1\Phase1---Little-Lost-Robot\Distro\pfilter prob.nxc"
0	1015	774	#line 1015 "C:\Users\Sakeeb\Documents\School\Fall 2017\CSCC85\Phase 1\Phase1---Little-Lost-Robot\Distro\pfilter prob.nxc"
0	1016	774		mov __fgets_7qG2_str_7qG2_000_inline_main, __main_7qG2_line_7qG2_000
0	1015	776	#line 1015 "C:\Users\Sakeeb\Documents\School\Fall 2017\CSCC85\Phase 1\Phase1---Little-Lost-Robot\Distro\pfilter prob.nxc"
0	1016	776		set __fgets_7qG2_num_7qG2_000_inline_main, 10
0	1015	779	#line 1015 "C:\Users\Sakeeb\Documents\School\Fall 2017\CSCC85\Phase 1\Phase1---Little-Lost-Robot\Distro\pfilter prob.nxc"
0	1015	779	#line 1015 "C:\Users\Sakeeb\Documents\School\Fall 2017\CSCC85\Phase 1\Phase1---Little-Lost-Robot\Distro\pfilter prob.nxc"
0	1016	779		mov __fgets_7qG2_handle_7qG2_000_inline_main, __main_7qG2_fd_7qG2_000
0	1015	781	#line 1015 "C:\Users\Sakeeb\Documents\School\Fall 2017\CSCC85\Phase 1\Phase1---Little-Lost-Robot\Distro\pfilter prob.nxc"
0	19265	781	#line 19265 "NXCDefs.h"
0	19266	781	#pragma macro 7
0	19266	781		mov __FReadArgs.FileHandle, __main_7qG2_fd_7qG2_000
0	19266	783		mov __RLSMaxBytes, __fgets_7qG2_num_7qG2_000_inline_main
0	19266	785		subcall __readStringLine, __RLSReturnAddress
0	19266	788		mov __D0fgets_inline_main, __RLSReturn
0	19266	790		mov __fgets_7qG2_str_7qG2_000_inline_main, __RLSOutput
0	11566	792	#line 11566 "NXCDefs.h"
0	19265	792	#line 19265 "NXCDefs.h"
0	19265	792	#line 19265 "NXCDefs.h"
0	19267	792	#line 19267 "NXCDefs.h"
0	19268	792		strcat __strbuffgets_inline_main, __fgets_7qG2_str_7qG2_000_inline_main
0	19267	796	#line 19267 "NXCDefs.h"
0	19267	796	#line 19267 "NXCDefs.h"
0	1016	796	#line 1016 "C:\Users\Sakeeb\Documents\School\Fall 2017\CSCC85\Phase 1\Phase1---Little-Lost-Robot\Distro\pfilter prob.nxc"
0	1017	796		mov __main_7qG2_line_7qG2_000, __fgets_7qG2_str_7qG2_000_inline_main
0	1016	798	#line 1016 "C:\Users\Sakeeb\Documents\School\Fall 2017\CSCC85\Phase 1\Phase1---Little-Lost-Robot\Distro\pfilter prob.nxc"
0	1017	798		mov __strretvalmain, __strbuffgets_inline_main
0	1016	800	#line 1016 "C:\Users\Sakeeb\Documents\School\Fall 2017\CSCC85\Phase 1\Phase1---Little-Lost-Robot\Distro\pfilter prob.nxc"
0	1016	800	#line 1016 "C:\Users\Sakeeb\Documents\School\Fall 2017\CSCC85\Phase 1\Phase1---Little-Lost-Robot\Distro\pfilter prob.nxc"
0	1017	800		strcat __strbufmain, __main_7qG2_line_7qG2_000
0	1016	804	#line 1016 "C:\Users\Sakeeb\Documents\School\Fall 2017\CSCC85\Phase 1\Phase1---Little-Lost-Robot\Distro\pfilter prob.nxc"
0	1017	804		set __D0main, 0
0	1017	807	#line 1017 "C:\Users\Sakeeb\Documents\School\Fall 2017\CSCC85\Phase 1\Phase1---Little-Lost-Robot\Distro\pfilter prob.nxc"
0	1018	807		index __main_7qG2_charat_7qG2_000, __strbufmain, __D0main
0	1017	811	#line 1017 "C:\Users\Sakeeb\Documents\School\Fall 2017\CSCC85\Phase 1\Phase1---Little-Lost-Robot\Distro\pfilter prob.nxc"
0	1017	811	#line 1017 "C:\Users\Sakeeb\Documents\School\Fall 2017\CSCC85\Phase 1\Phase1---Little-Lost-Robot\Distro\pfilter prob.nxc"
0	1017	811	#line 1017 "C:\Users\Sakeeb\Documents\School\Fall 2017\CSCC85\Phase 1\Phase1---Little-Lost-Robot\Distro\pfilter prob.nxc"
0	1018	811		mov __unsigned_stack_001main, __main_7qG2_charat_7qG2_000
0	1017	814	#line 1017 "C:\Users\Sakeeb\Documents\School\Fall 2017\CSCC85\Phase 1\Phase1---Little-Lost-Robot\Distro\pfilter prob.nxc"
0	1018	814	#line 1018 "C:\Users\Sakeeb\Documents\School\Fall 2017\CSCC85\Phase 1\Phase1---Little-Lost-Robot\Distro\pfilter prob.nxc"
0	1019	814		set __D0main, 48
0	1018	817	#line 1018 "C:\Users\Sakeeb\Documents\School\Fall 2017\CSCC85\Phase 1\Phase1---Little-Lost-Robot\Distro\pfilter prob.nxc"
0	1019	817		sub __main_7qG2_dest_7qG2_000, __unsigned_stack_001main, __D0main
0	1018	821	#line 1018 "C:\Users\Sakeeb\Documents\School\Fall 2017\CSCC85\Phase 1\Phase1---Little-Lost-Robot\Distro\pfilter prob.nxc"
0	1018	821	#line 1018 "C:\Users\Sakeeb\Documents\School\Fall 2017\CSCC85\Phase 1\Phase1---Little-Lost-Robot\Distro\pfilter prob.nxc"
0	1018	821	#line 1018 "C:\Users\Sakeeb\Documents\School\Fall 2017\CSCC85\Phase 1\Phase1---Little-Lost-Robot\Distro\pfilter prob.nxc"
0	1019	821		mov __signed_stack_001main, __main_7qG2_dest_7qG2_000
0	1018	824	#line 1018 "C:\Users\Sakeeb\Documents\School\Fall 2017\CSCC85\Phase 1\Phase1---Little-Lost-Robot\Distro\pfilter prob.nxc"
0	1019	824	#line 1019 "C:\Users\Sakeeb\Documents\School\Fall 2017\CSCC85\Phase 1\Phase1---Little-Lost-Robot\Distro\pfilter prob.nxc"
0	1020	824		set __D0main, 5
0	1019	827	#line 1019 "C:\Users\Sakeeb\Documents\School\Fall 2017\CSCC85\Phase 1\Phase1---Little-Lost-Robot\Distro\pfilter prob.nxc"
0	1020	827		mul __main_7qG2_dest_7qG2_000, __signed_stack_001main, __D0main
0	1019	831	#line 1019 "C:\Users\Sakeeb\Documents\School\Fall 2017\CSCC85\Phase 1\Phase1---Little-Lost-Robot\Distro\pfilter prob.nxc"
0	1019	831	#line 1019 "C:\Users\Sakeeb\Documents\School\Fall 2017\CSCC85\Phase 1\Phase1---Little-Lost-Robot\Distro\pfilter prob.nxc"
0	1019	831	#line 1019 "C:\Users\Sakeeb\Documents\School\Fall 2017\CSCC85\Phase 1\Phase1---Little-Lost-Robot\Distro\pfilter prob.nxc"
0	1020	831		strcat __strbufmain, __main_7qG2_line_7qG2_000
0	1019	835	#line 1019 "C:\Users\Sakeeb\Documents\School\Fall 2017\CSCC85\Phase 1\Phase1---Little-Lost-Robot\Distro\pfilter prob.nxc"
0	1020	835		set __D0main, 2
0	1020	838	#line 1020 "C:\Users\Sakeeb\Documents\School\Fall 2017\CSCC85\Phase 1\Phase1---Little-Lost-Robot\Distro\pfilter prob.nxc"
0	1021	838		index __main_7qG2_charat_7qG2_000, __strbufmain, __D0main
0	1020	842	#line 1020 "C:\Users\Sakeeb\Documents\School\Fall 2017\CSCC85\Phase 1\Phase1---Little-Lost-Robot\Distro\pfilter prob.nxc"
0	1020	842	#line 1020 "C:\Users\Sakeeb\Documents\School\Fall 2017\CSCC85\Phase 1\Phase1---Little-Lost-Robot\Distro\pfilter prob.nxc"
0	1020	842	#line 1020 "C:\Users\Sakeeb\Documents\School\Fall 2017\CSCC85\Phase 1\Phase1---Little-Lost-Robot\Distro\pfilter prob.nxc"
0	1021	842		mov __signed_stack_001main, __main_7qG2_dest_7qG2_000
0	1020	845	#line 1020 "C:\Users\Sakeeb\Documents\School\Fall 2017\CSCC85\Phase 1\Phase1---Little-Lost-Robot\Distro\pfilter prob.nxc"
0	1020	845	#line 1020 "C:\Users\Sakeeb\Documents\School\Fall 2017\CSCC85\Phase 1\Phase1---Little-Lost-Robot\Distro\pfilter prob.nxc"
0	1021	845		mov __DU0main, __main_7qG2_charat_7qG2_000
0	1020	847	#line 1020 "C:\Users\Sakeeb\Documents\School\Fall 2017\CSCC85\Phase 1\Phase1---Little-Lost-Robot\Distro\pfilter prob.nxc"
0	1021	847		add __signed_stack_001main, __signed_stack_001main, __DU0main
0	1020	851	#line 1020 "C:\Users\Sakeeb\Documents\School\Fall 2017\CSCC85\Phase 1\Phase1---Little-Lost-Robot\Distro\pfilter prob.nxc"
0	1022	851	#line 1022 "C:\Users\Sakeeb\Documents\School\Fall 2017\CSCC85\Phase 1\Phase1---Little-Lost-Robot\Distro\pfilter prob.nxc"
0	1023	851		set __D0main, 48
0	1022	854	#line 1022 "C:\Users\Sakeeb\Documents\School\Fall 2017\CSCC85\Phase 1\Phase1---Little-Lost-Robot\Distro\pfilter prob.nxc"
0	1023	854		sub __main_7qG2_dest_7qG2_000, __signed_stack_001main, __D0main
0	1022	858	#line 1022 "C:\Users\Sakeeb\Documents\School\Fall 2017\CSCC85\Phase 1\Phase1---Little-Lost-Robot\Distro\pfilter prob.nxc"
0	1022	858	#line 1022 "C:\Users\Sakeeb\Documents\School\Fall 2017\CSCC85\Phase 1\Phase1---Little-Lost-Robot\Distro\pfilter prob.nxc"
0	1022	858	#line 1022 "C:\Users\Sakeeb\Documents\School\Fall 2017\CSCC85\Phase 1\Phase1---Little-Lost-Robot\Distro\pfilter prob.nxc"
0	1022	858	#line 1022 "C:\Users\Sakeeb\Documents\School\Fall 2017\CSCC85\Phase 1\Phase1---Little-Lost-Robot\Distro\pfilter prob.nxc"
0	19196	858	#line 19196 "NXCDefs.h"
0	19197	858	#pragma macro 5
0	19197	858		mov __FCArgs.FileHandle, __main_7qG2_fd_7qG2_000
0	19197	860		syscall 5, __FCArgs
0	19197	863		mov __D0main, __FCArgs.Result
0	11667	866	#line 11667 "NXCDefs.h"
0	19196	866	#line 19196 "NXCDefs.h"
0	19196	866	#line 19196 "NXCDefs.h"
0	19196	866	#line 19196 "NXCDefs.h"
0	1085	866	#line 1085 "C:\Users\Sakeeb\Documents\School\Fall 2017\CSCC85\Phase 1\Phase1---Little-Lost-Robot\Distro\pfilter prob.nxc"
0	1085	866	#line 1085 "C:\Users\Sakeeb\Documents\School\Fall 2017\CSCC85\Phase 1\Phase1---Little-Lost-Robot\Distro\pfilter prob.nxc"
0	1085	866	#line 1085 "C:\Users\Sakeeb\Documents\School\Fall 2017\CSCC85\Phase 1\Phase1---Little-Lost-Robot\Distro\pfilter prob.nxc"
0	1086	866		mov __float_stack_001main, __main_7qG2_robp_7qG2_000
0	1085	868	#line 1085 "C:\Users\Sakeeb\Documents\School\Fall 2017\CSCC85\Phase 1\Phase1---Little-Lost-Robot\Distro\pfilter prob.nxc"
0	1085	868	#line 1085 "C:\Users\Sakeeb\Documents\School\Fall 2017\CSCC85\Phase 1\Phase1---Little-Lost-Robot\Distro\pfilter prob.nxc"
0	1086	868		mov __DF0main, __constValf0P8
0	1085	870	#line 1085 "C:\Users\Sakeeb\Documents\School\Fall 2017\CSCC85\Phase 1\Phase1---Little-Lost-Robot\Distro\pfilter prob.nxc"
0	1086	870		cmp 0, __D0main, __float_stack_001main, __DF0main
0	1088	874	#line 1088 "C:\Users\Sakeeb\Documents\School\Fall 2017\CSCC85\Phase 1\Phase1---Little-Lost-Robot\Distro\pfilter prob.nxc"
0	1089	874		brtst 4, __ASM_Label_1790, __D0main
0	1089	877	#line 1089 "C:\Users\Sakeeb\Documents\School\Fall 2017\CSCC85\Phase 1\Phase1---Little-Lost-Robot\Distro\pfilter prob.nxc"
0	1090	877		mov __main_7qG2_maxprob_7qG2_000, __constVal0
0	1089	879	#line 1089 "C:\Users\Sakeeb\Documents\School\Fall 2017\CSCC85\Phase 1\Phase1---Little-Lost-Robot\Distro\pfilter prob.nxc"
0	1089	879	#line 1089 "C:\Users\Sakeeb\Documents\School\Fall 2017\CSCC85\Phase 1\Phase1---Little-Lost-Robot\Distro\pfilter prob.nxc"
0	1090	879	#line 1090 "C:\Users\Sakeeb\Documents\School\Fall 2017\CSCC85\Phase 1\Phase1---Little-Lost-Robot\Distro\pfilter prob.nxc"
0	1091	879		mov __main_7qG2_totalprob_7qG2_000, __constVal0
0	1090	881	#line 1090 "C:\Users\Sakeeb\Documents\School\Fall 2017\CSCC85\Phase 1\Phase1---Little-Lost-Robot\Distro\pfilter prob.nxc"
0	1090	881	#line 1090 "C:\Users\Sakeeb\Documents\School\Fall 2017\CSCC85\Phase 1\Phase1---Little-Lost-Robot\Distro\pfilter prob.nxc"
0	1090	881	#line 1090 "C:\Users\Sakeeb\Documents\School\Fall 2017\CSCC85\Phase 1\Phase1---Little-Lost-Robot\Distro\pfilter prob.nxc"
0	1091	881		set __robot_sense_7qG2_iter_7qG2_000, 200
0	1090	884	#line 1090 "C:\Users\Sakeeb\Documents\School\Fall 2017\CSCC85\Phase 1\Phase1---Little-Lost-Robot\Distro\pfilter prob.nxc"
0	1091	884	#line 1091 "C:\Users\Sakeeb\Documents\School\Fall 2017\CSCC85\Phase 1\Phase1---Little-Lost-Robot\Distro\pfilter prob.nxc"
0	1092	884		subcall robot_sense, __robot_sense_return
0	1091	887	#line 1091 "C:\Users\Sakeeb\Documents\School\Fall 2017\CSCC85\Phase 1\Phase1---Little-Lost-Robot\Distro\pfilter prob.nxc"
0	1092	887		mov __main_7qG2_nColor_7qG2_000, __D0robot_sense
0	1091	889	#line 1091 "C:\Users\Sakeeb\Documents\School\Fall 2017\CSCC85\Phase 1\Phase1---Little-Lost-Robot\Distro\pfilter prob.nxc"
0	1091	889	#line 1091 "C:\Users\Sakeeb\Documents\School\Fall 2017\CSCC85\Phase 1\Phase1---Little-Lost-Robot\Distro\pfilter prob.nxc"
0	1091	889	#line 1091 "C:\Users\Sakeeb\Documents\School\Fall 2017\CSCC85\Phase 1\Phase1---Little-Lost-Robot\Distro\pfilter prob.nxc"
0	1092	889		mov __move_robot_7qG2_color_7qG2_000, __main_7qG2_nColor_7qG2_000
0	1091	891	#line 1091 "C:\Users\Sakeeb\Documents\School\Fall 2017\CSCC85\Phase 1\Phase1---Little-Lost-Robot\Distro\pfilter prob.nxc"
0	1093	891	#line 1093 "C:\Users\Sakeeb\Documents\School\Fall 2017\CSCC85\Phase 1\Phase1---Little-Lost-Robot\Distro\pfilter prob.nxc"
0	1094	891		subcall move_robot, __move_robot_return
0	1093	894	#line 1093 "C:\Users\Sakeeb\Documents\School\Fall 2017\CSCC85\Phase 1\Phase1---Little-Lost-Robot\Distro\pfilter prob.nxc"
0	1093	894	#line 1093 "C:\Users\Sakeeb\Documents\School\Fall 2017\CSCC85\Phase 1\Phase1---Little-Lost-Robot\Distro\pfilter prob.nxc"
0	1094	894		mov __signed_stack_001main, __main_7qG2_nColor_7qG2_000
0	1093	897	#line 1093 "C:\Users\Sakeeb\Documents\School\Fall 2017\CSCC85\Phase 1\Phase1---Little-Lost-Robot\Distro\pfilter prob.nxc"
0	1093	897	#line 1093 "C:\Users\Sakeeb\Documents\School\Fall 2017\CSCC85\Phase 1\Phase1---Little-Lost-Robot\Distro\pfilter prob.nxc"
0	1094	897		set __D0main, 4
0	1093	900	#line 1093 "C:\Users\Sakeeb\Documents\School\Fall 2017\CSCC85\Phase 1\Phase1---Little-Lost-Robot\Distro\pfilter prob.nxc"
0	1094	900		cmp 4, __D0main, __signed_stack_001main, __D0main
0	1096	904	#line 1096 "C:\Users\Sakeeb\Documents\School\Fall 2017\CSCC85\Phase 1\Phase1---Little-Lost-Robot\Distro\pfilter prob.nxc"
0	1097	904		brtst 4, __ASM_Label_1805, __D0main
0	1096	907	#line 1096 "C:\Users\Sakeeb\Documents\School\Fall 2017\CSCC85\Phase 1\Phase1---Little-Lost-Robot\Distro\pfilter prob.nxc"
0	1097	907		set __main_7qG2_i_7qG2_000, 0
0	1096	910	#line 1096 "C:\Users\Sakeeb\Documents\School\Fall 2017\CSCC85\Phase 1\Phase1---Little-Lost-Robot\Distro\pfilter prob.nxc"
0	1096	910	#line 1096 "C:\Users\Sakeeb\Documents\School\Fall 2017\CSCC85\Phase 1\Phase1---Little-Lost-Robot\Distro\pfilter prob.nxc"
0	1097	910		mov __signed_stack_001main, __main_7qG2_i_7qG2_000
0	1096	913	#line 1096 "C:\Users\Sakeeb\Documents\School\Fall 2017\CSCC85\Phase 1\Phase1---Little-Lost-Robot\Distro\pfilter prob.nxc"
0	1096	913	#line 1096 "C:\Users\Sakeeb\Documents\School\Fall 2017\CSCC85\Phase 1\Phase1---Little-Lost-Robot\Distro\pfilter prob.nxc"
0	1097	913		set __D0main, 60
0	1096	916	#line 1096 "C:\Users\Sakeeb\Documents\School\Fall 2017\CSCC85\Phase 1\Phase1---Little-Lost-Robot\Distro\pfilter prob.nxc"
0	1097	916		cmp 0, __D0main, __signed_stack_001main, __D0main
0	1096	920	#line 1096 "C:\Users\Sakeeb\Documents\School\Fall 2017\CSCC85\Phase 1\Phase1---Little-Lost-Robot\Distro\pfilter prob.nxc"
0	1097	920		brtst 4, __ASM_Label_1807, __D0main
0	1096	923	#line 1096 "C:\Users\Sakeeb\Documents\School\Fall 2017\CSCC85\Phase 1\Phase1---Little-Lost-Robot\Distro\pfilter prob.nxc"
0	1097	923		jmp __ASM_Label_1808
0	1096	925	#line 1096 "C:\Users\Sakeeb\Documents\School\Fall 2017\CSCC85\Phase 1\Phase1---Little-Lost-Robot\Distro\pfilter prob.nxc"
0	1097	925		mov __signed_stack_001main, __main_7qG2_i_7qG2_000
0	1096	928	#line 1096 "C:\Users\Sakeeb\Documents\School\Fall 2017\CSCC85\Phase 1\Phase1---Little-Lost-Robot\Distro\pfilter prob.nxc"
0	1096	928	#line 1096 "C:\Users\Sakeeb\Documents\School\Fall 2017\CSCC85\Phase 1\Phase1---Little-Lost-Robot\Distro\pfilter prob.nxc"
0	1097	928		set __D0main, 1
0	1096	931	#line 1096 "C:\Users\Sakeeb\Documents\School\Fall 2017\CSCC85\Phase 1\Phase1---Little-Lost-Robot\Distro\pfilter prob.nxc"
0	1097	931		add __main_7qG2_i_7qG2_000, __signed_stack_001main, __D0main
0	1096	935	#line 1096 "C:\Users\Sakeeb\Documents\School\Fall 2017\CSCC85\Phase 1\Phase1---Little-Lost-Robot\Distro\pfilter prob.nxc"
0	1097	935	#line 1097 "C:\Users\Sakeeb\Documents\School\Fall 2017\CSCC85\Phase 1\Phase1---Little-Lost-Robot\Distro\pfilter prob.nxc"
0	1098	935		jmp __ASM_Label_1806
0	1097	937	#line 1097 "C:\Users\Sakeeb\Documents\School\Fall 2017\CSCC85\Phase 1\Phase1---Little-Lost-Robot\Distro\pfilter prob.nxc"
0	1098	937		mov __signed_stack_001main, __main_7qG2_i_7qG2_000
0	1097	940	#line 1097 "C:\Users\Sakeeb\Documents\School\Fall 2017\CSCC85\Phase 1\Phase1---Little-Lost-Robot\Distro\pfilter prob.nxc"
0	1097	940	#line 1097 "C:\Users\Sakeeb\Documents\School\Fall 2017\CSCC85\Phase 1\Phase1---Little-Lost-Robot\Distro\pfilter prob.nxc"
0	1098	940		mov __signed_stack_002main, __main_7qG2_i_7qG2_000
0	1097	942	#line 1097 "C:\Users\Sakeeb\Documents\School\Fall 2017\CSCC85\Phase 1\Phase1---Little-Lost-Robot\Distro\pfilter prob.nxc"
0	1097	942	#line 1097 "C:\Users\Sakeeb\Documents\School\Fall 2017\CSCC85\Phase 1\Phase1---Little-Lost-Robot\Distro\pfilter prob.nxc"
0	1098	942		index __move_7qG2_p_7qG2_000, __main_7qG2_list_7qG2_000, __signed_stack_002main
0	1097	946	#line 1097 "C:\Users\Sakeeb\Documents\School\Fall 2017\CSCC85\Phase 1\Phase1---Little-Lost-Robot\Distro\pfilter prob.nxc"
0	1099	946	#line 1099 "C:\Users\Sakeeb\Documents\School\Fall 2017\CSCC85\Phase 1\Phase1---Little-Lost-Robot\Distro\pfilter prob.nxc"
0	1100	946		subcall move, __move_return
0	1099	949	#line 1099 "C:\Users\Sakeeb\Documents\School\Fall 2017\CSCC85\Phase 1\Phase1---Little-Lost-Robot\Distro\pfilter prob.nxc"
0	1100	949		replace __main_7qG2_list_7qG2_000, __main_7qG2_list_7qG2_000, __signed_stack_001main, __result_move
0	1099	954	#line 1099 "C:\Users\Sakeeb\Documents\School\Fall 2017\CSCC85\Phase 1\Phase1---Little-Lost-Robot\Distro\pfilter prob.nxc"
0	1101	954	#line 1101 "C:\Users\Sakeeb\Documents\School\Fall 2017\CSCC85\Phase 1\Phase1---Little-Lost-Robot\Distro\pfilter prob.nxc"
0	1102	954		jmp __ASM_Label_1809
0	1101	956	#line 1101 "C:\Users\Sakeeb\Documents\School\Fall 2017\CSCC85\Phase 1\Phase1---Little-Lost-Robot\Distro\pfilter prob.nxc"
0	1101	956	#line 1101 "C:\Users\Sakeeb\Documents\School\Fall 2017\CSCC85\Phase 1\Phase1---Little-Lost-Robot\Distro\pfilter prob.nxc"
0	1101	956	#line 1101 "C:\Users\Sakeeb\Documents\School\Fall 2017\CSCC85\Phase 1\Phase1---Little-Lost-Robot\Distro\pfilter prob.nxc"
0	1104	956	#line 1104 "C:\Users\Sakeeb\Documents\School\Fall 2017\CSCC85\Phase 1\Phase1---Little-Lost-Robot\Distro\pfilter prob.nxc"
0	1105	956		subcall scan_surroundings, __scan_surroundings_return
0	1104	959	#line 1104 "C:\Users\Sakeeb\Documents\School\Fall 2017\CSCC85\Phase 1\Phase1---Little-Lost-Robot\Distro\pfilter prob.nxc"
0	1105	959		mov __main_7qG2_rsense_7qG2_000, __result_scan_surroundings
0	1104	961	#line 1104 "C:\Users\Sakeeb\Documents\School\Fall 2017\CSCC85\Phase 1\Phase1---Little-Lost-Robot\Distro\pfilter prob.nxc"
0	1104	961	#line 1104 "C:\Users\Sakeeb\Documents\School\Fall 2017\CSCC85\Phase 1\Phase1---Little-Lost-Robot\Distro\pfilter prob.nxc"
0	1105	961		set __main_7qG2_i_7qG2_000, 0
0	1104	964	#line 1104 "C:\Users\Sakeeb\Documents\School\Fall 2017\CSCC85\Phase 1\Phase1---Little-Lost-Robot\Distro\pfilter prob.nxc"
0	1104	964	#line 1104 "C:\Users\Sakeeb\Documents\School\Fall 2017\CSCC85\Phase 1\Phase1---Little-Lost-Robot\Distro\pfilter prob.nxc"
0	1105	964		mov __signed_stack_001main, __main_7qG2_i_7qG2_000
0	1104	967	#line 1104 "C:\Users\Sakeeb\Documents\School\Fall 2017\CSCC85\Phase 1\Phase1---Little-Lost-Robot\Distro\pfilter prob.nxc"
0	1104	967	#line 1104 "C:\Users\Sakeeb\Documents\School\Fall 2017\CSCC85\Phase 1\Phase1---Little-Lost-Robot\Distro\pfilter prob.nxc"
0	1105	967		set __D0main, 60
0	1104	970	#line 1104 "C:\Users\Sakeeb\Documents\School\Fall 2017\CSCC85\Phase 1\Phase1---Little-Lost-Robot\Distro\pfilter prob.nxc"
0	1105	970		cmp 0, __D0main, __signed_stack_001main, __D0main
0	1104	974	#line 1104 "C:\Users\Sakeeb\Documents\School\Fall 2017\CSCC85\Phase 1\Phase1---Little-Lost-Robot\Distro\pfilter prob.nxc"
0	1105	974		brtst 4, __ASM_Label_1825, __D0main
0	1104	977	#line 1104 "C:\Users\Sakeeb\Documents\School\Fall 2017\CSCC85\Phase 1\Phase1---Little-Lost-Robot\Distro\pfilter prob.nxc"
0	1105	977		jmp __ASM_Label_1826
0	1104	979	#line 1104 "C:\Users\Sakeeb\Documents\School\Fall 2017\CSCC85\Phase 1\Phase1---Little-Lost-Robot\Distro\pfilter prob.nxc"
0	1105	979		mov __signed_stack_001main, __main_7qG2_i_7qG2_000
0	1104	982	#line 1104 "C:\Users\Sakeeb\Documents\School\Fall 2017\CSCC85\Phase 1\Phase1---Little-Lost-Robot\Distro\pfilter prob.nxc"
0	1104	982	#line 1104 "C:\Users\Sakeeb\Documents\School\Fall 2017\CSCC85\Phase 1\Phase1---Little-Lost-Robot\Distro\pfilter prob.nxc"
0	1105	982		set __D0main, 1
0	1104	985	#line 1104 "C:\Users\Sakeeb\Documents\School\Fall 2017\CSCC85\Phase 1\Phase1---Little-Lost-Robot\Distro\pfilter prob.nxc"
0	1105	985		add __main_7qG2_i_7qG2_000, __signed_stack_001main, __D0main
0	1104	989	#line 1104 "C:\Users\Sakeeb\Documents\School\Fall 2017\CSCC85\Phase 1\Phase1---Little-Lost-Robot\Distro\pfilter prob.nxc"
0	1106	989	#line 1106 "C:\Users\Sakeeb\Documents\School\Fall 2017\CSCC85\Phase 1\Phase1---Little-Lost-Robot\Distro\pfilter prob.nxc"
0	1107	989		jmp __ASM_Label_1824
0	1106	991	#line 1106 "C:\Users\Sakeeb\Documents\School\Fall 2017\CSCC85\Phase 1\Phase1---Little-Lost-Robot\Distro\pfilter prob.nxc"
0	1107	991		mov __sense_7qG2_map_7qG2_000, __main_7qG2_map_7qG2_000
0	1106	993	#line 1106 "C:\Users\Sakeeb\Documents\School\Fall 2017\CSCC85\Phase 1\Phase1---Little-Lost-Robot\Distro\pfilter prob.nxc"
0	1107	993		mov __signed_stack_001main, __main_7qG2_i_7qG2_000
0	1106	996	#line 1106 "C:\Users\Sakeeb\Documents\School\Fall 2017\CSCC85\Phase 1\Phase1---Little-Lost-Robot\Distro\pfilter prob.nxc"
0	1106	996	#line 1106 "C:\Users\Sakeeb\Documents\School\Fall 2017\CSCC85\Phase 1\Phase1---Little-Lost-Robot\Distro\pfilter prob.nxc"
0	1107	996		index __ArrHelper__mainparticle_219_0, __main_7qG2_list_7qG2_000, __signed_stack_001main
0	1106	1000	#line 1106 "C:\Users\Sakeeb\Documents\School\Fall 2017\CSCC85\Phase 1\Phase1---Little-Lost-Robot\Distro\pfilter prob.nxc"
0	1107	1000		mov __sense_7qG2_x_7qG2_000, __ArrHelper__mainparticle_219_0.x
0	1106	1002	#line 1106 "C:\Users\Sakeeb\Documents\School\Fall 2017\CSCC85\Phase 1\Phase1---Little-Lost-Robot\Distro\pfilter prob.nxc"
0	1106	1002	#line 1106 "C:\Users\Sakeeb\Documents\School\Fall 2017\CSCC85\Phase 1\Phase1---Little-Lost-Robot\Distro\pfilter prob.nxc"
0	1107	1002		mov __signed_stack_001main, __main_7qG2_i_7qG2_000
0	1106	1005	#line 1106 "C:\Users\Sakeeb\Documents\School\Fall 2017\CSCC85\Phase 1\Phase1---Little-Lost-Robot\Distro\pfilter prob.nxc"
0	1106	1005	#line 1106 "C:\Users\Sakeeb\Documents\School\Fall 2017\CSCC85\Phase 1\Phase1---Little-Lost-Robot\Distro\pfilter prob.nxc"
0	1107	1005		index __ArrHelper__mainparticle_219_0, __main_7qG2_list_7qG2_000, __signed_stack_001main
0	1106	1009	#line 1106 "C:\Users\Sakeeb\Documents\School\Fall 2017\CSCC85\Phase 1\Phase1---Little-Lost-Robot\Distro\pfilter prob.nxc"
0	1107	1009		mov __sense_7qG2_y_7qG2_000, __ArrHelper__mainparticle_219_0.y
0	1106	1011	#line 1106 "C:\Users\Sakeeb\Documents\School\Fall 2017\CSCC85\Phase 1\Phase1---Little-Lost-Robot\Distro\pfilter prob.nxc"
0	1106	1011	#line 1106 "C:\Users\Sakeeb\Documents\School\Fall 2017\CSCC85\Phase 1\Phase1---Little-Lost-Robot\Distro\pfilter prob.nxc"
0	1107	1011		set __sense_7qG2_dir_7qG2_000, 1000
0	1106	1014	#line 1106 "C:\Users\Sakeeb\Documents\School\Fall 2017\CSCC85\Phase 1\Phase1---Little-Lost-Robot\Distro\pfilter prob.nxc"
0	1106	1014	#line 1106 "C:\Users\Sakeeb\Documents\School\Fall 2017\CSCC85\Phase 1\Phase1---Little-Lost-Robot\Distro\pfilter prob.nxc"
0	1107	1014		mov __signed_stack_001main, __main_7qG2_i_7qG2_000
0	1106	1017	#line 1106 "C:\Users\Sakeeb\Documents\School\Fall 2017\CSCC85\Phase 1\Phase1---Little-Lost-Robot\Distro\pfilter prob.nxc"
0	1106	1017	#line 1106 "C:\Users\Sakeeb\Documents\School\Fall 2017\CSCC85\Phase 1\Phase1---Little-Lost-Robot\Distro\pfilter prob.nxc"
0	1107	1017		index __ArrHelper__mainparticle_219_0, __main_7qG2_list_7qG2_000, __signed_stack_001main
0	1106	1021	#line 1106 "C:\Users\Sakeeb\Documents\School\Fall 2017\CSCC85\Phase 1\Phase1---Little-Lost-Robot\Distro\pfilter prob.nxc"
0	1107	1021		mov __sense_7qG2_heading_7qG2_000, __ArrHelper__mainparticle_219_0.theta
0	1106	1023	#line 1106 "C:\Users\Sakeeb\Documents\School\Fall 2017\CSCC85\Phase 1\Phase1---Little-Lost-Robot\Distro\pfilter prob.nxc"
0	1107	1023	#line 1107 "C:\Users\Sakeeb\Documents\School\Fall 2017\CSCC85\Phase 1\Phase1---Little-Lost-Robot\Distro\pfilter prob.nxc"
0	1108	1023		subcall sense, __sense_return
0	1107	1026	#line 1107 "C:\Users\Sakeeb\Documents\School\Fall 2017\CSCC85\Phase 1\Phase1---Little-Lost-Robot\Distro\pfilter prob.nxc"
0	1108	1026		mov __main_7qG2_pNE_7qG2_004, __D0sense
0	1107	1028	#line 1107 "C:\Users\Sakeeb\Documents\School\Fall 2017\CSCC85\Phase 1\Phase1---Little-Lost-Robot\Distro\pfilter prob.nxc"
0	1107	1028	#line 1107 "C:\Users\Sakeeb\Documents\School\Fall 2017\CSCC85\Phase 1\Phase1---Little-Lost-Robot\Distro\pfilter prob.nxc"
0	1108	1028		mov __sense_7qG2_map_7qG2_000, __main_7qG2_map_7qG2_000
0	1107	1030	#line 1107 "C:\Users\Sakeeb\Documents\School\Fall 2017\CSCC85\Phase 1\Phase1---Little-Lost-Robot\Distro\pfilter prob.nxc"
0	1108	1030		mov __signed_stack_001main, __main_7qG2_i_7qG2_000
0	1107	1033	#line 1107 "C:\Users\Sakeeb\Documents\School\Fall 2017\CSCC85\Phase 1\Phase1---Little-Lost-Robot\Distro\pfilter prob.nxc"
0	1107	1033	#line 1107 "C:\Users\Sakeeb\Documents\School\Fall 2017\CSCC85\Phase 1\Phase1---Little-Lost-Robot\Distro\pfilter prob.nxc"
0	1108	1033		index __ArrHelper__mainparticle_219_0, __main_7qG2_list_7qG2_000, __signed_stack_001main
0	1107	1037	#line 1107 "C:\Users\Sakeeb\Documents\School\Fall 2017\CSCC85\Phase 1\Phase1---Little-Lost-Robot\Distro\pfilter prob.nxc"
0	1108	1037		mov __sense_7qG2_x_7qG2_000, __ArrHelper__mainparticle_219_0.x
0	1107	1039	#line 1107 "C:\Users\Sakeeb\Documents\School\Fall 2017\CSCC85\Phase 1\Phase1---Little-Lost-Robot\Distro\pfilter prob.nxc"
0	1107	1039	#line 1107 "C:\Users\Sakeeb\Documents\School\Fall 2017\CSCC85\Phase 1\Phase1---Little-Lost-Robot\Distro\pfilter prob.nxc"
0	1108	1039		mov __signed_stack_001main, __main_7qG2_i_7qG2_000
0	1107	1042	#line 1107 "C:\Users\Sakeeb\Documents\School\Fall 2017\CSCC85\Phase 1\Phase1---Little-Lost-Robot\Distro\pfilter prob.nxc"
0	1107	1042	#line 1107 "C:\Users\Sakeeb\Documents\School\Fall 2017\CSCC85\Phase 1\Phase1---Little-Lost-Robot\Distro\pfilter prob.nxc"
0	1108	1042		index __ArrHelper__mainparticle_219_0, __main_7qG2_list_7qG2_000, __signed_stack_001main
0	1107	1046	#line 1107 "C:\Users\Sakeeb\Documents\School\Fall 2017\CSCC85\Phase 1\Phase1---Little-Lost-Robot\Distro\pfilter prob.nxc"
0	1108	1046		mov __sense_7qG2_y_7qG2_000, __ArrHelper__mainparticle_219_0.y
0	1107	1048	#line 1107 "C:\Users\Sakeeb\Documents\School\Fall 2017\CSCC85\Phase 1\Phase1---Little-Lost-Robot\Distro\pfilter prob.nxc"
0	1107	1048	#line 1107 "C:\Users\Sakeeb\Documents\School\Fall 2017\CSCC85\Phase 1\Phase1---Little-Lost-Robot\Distro\pfilter prob.nxc"
0	1108	1048		set __sense_7qG2_dir_7qG2_000, 1003
0	1107	1051	#line 1107 "C:\Users\Sakeeb\Documents\School\Fall 2017\CSCC85\Phase 1\Phase1---Little-Lost-Robot\Distro\pfilter prob.nxc"
0	1107	1051	#line 1107 "C:\Users\Sakeeb\Documents\School\Fall 2017\CSCC85\Phase 1\Phase1---Little-Lost-Robot\Distro\pfilter prob.nxc"
0	1108	1051		mov __signed_stack_001main, __main_7qG2_i_7qG2_000
0	1107	1054	#line 1107 "C:\Users\Sakeeb\Documents\School\Fall 2017\CSCC85\Phase 1\Phase1---Little-Lost-Robot\Distro\pfilter prob.nxc"
0	1107	1054	#line 1107 "C:\Users\Sakeeb\Documents\School\Fall 2017\CSCC85\Phase 1\Phase1---Little-Lost-Robot\Distro\pfilter prob.nxc"
0	1108	1054		index __ArrHelper__mainparticle_219_0, __main_7qG2_list_7qG2_000, __signed_stack_001main
0	1107	1058	#line 1107 "C:\Users\Sakeeb\Documents\School\Fall 2017\CSCC85\Phase 1\Phase1---Little-Lost-Robot\Distro\pfilter prob.nxc"
0	1108	1058		mov __sense_7qG2_heading_7qG2_000, __ArrHelper__mainparticle_219_0.theta
0	1107	1060	#line 1107 "C:\Users\Sakeeb\Documents\School\Fall 2017\CSCC85\Phase 1\Phase1---Little-Lost-Robot\Distro\pfilter prob.nxc"
0	1108	1060	#line 1108 "C:\Users\Sakeeb\Documents\School\Fall 2017\CSCC85\Phase 1\Phase1---Little-Lost-Robot\Distro\pfilter prob.nxc"
0	1109	1060		subcall sense, __sense_return
0	1108	1063	#line 1108 "C:\Users\Sakeeb\Documents\School\Fall 2017\CSCC85\Phase 1\Phase1---Little-Lost-Robot\Distro\pfilter prob.nxc"
0	1109	1063		mov __main_7qG2_pNW_7qG2_004, __D0sense
0	1108	1065	#line 1108 "C:\Users\Sakeeb\Documents\School\Fall 2017\CSCC85\Phase 1\Phase1---Little-Lost-Robot\Distro\pfilter prob.nxc"
0	1108	1065	#line 1108 "C:\Users\Sakeeb\Documents\School\Fall 2017\CSCC85\Phase 1\Phase1---Little-Lost-Robot\Distro\pfilter prob.nxc"
0	1109	1065		mov __sense_7qG2_map_7qG2_000, __main_7qG2_map_7qG2_000
0	1108	1067	#line 1108 "C:\Users\Sakeeb\Documents\School\Fall 2017\CSCC85\Phase 1\Phase1---Little-Lost-Robot\Distro\pfilter prob.nxc"
0	1109	1067		mov __signed_stack_001main, __main_7qG2_i_7qG2_000
0	1108	1070	#line 1108 "C:\Users\Sakeeb\Documents\School\Fall 2017\CSCC85\Phase 1\Phase1---Little-Lost-Robot\Distro\pfilter prob.nxc"
0	1108	1070	#line 1108 "C:\Users\Sakeeb\Documents\School\Fall 2017\CSCC85\Phase 1\Phase1---Little-Lost-Robot\Distro\pfilter prob.nxc"
0	1109	1070		index __ArrHelper__mainparticle_219_0, __main_7qG2_list_7qG2_000, __signed_stack_001main
0	1108	1074	#line 1108 "C:\Users\Sakeeb\Documents\School\Fall 2017\CSCC85\Phase 1\Phase1---Little-Lost-Robot\Distro\pfilter prob.nxc"
0	1109	1074		mov __sense_7qG2_x_7qG2_000, __ArrHelper__mainparticle_219_0.x
0	1108	1076	#line 1108 "C:\Users\Sakeeb\Documents\School\Fall 2017\CSCC85\Phase 1\Phase1---Little-Lost-Robot\Distro\pfilter prob.nxc"
0	1108	1076	#line 1108 "C:\Users\Sakeeb\Documents\School\Fall 2017\CSCC85\Phase 1\Phase1---Little-Lost-Robot\Distro\pfilter prob.nxc"
0	1109	1076		mov __signed_stack_001main, __main_7qG2_i_7qG2_000
0	1108	1079	#line 1108 "C:\Users\Sakeeb\Documents\School\Fall 2017\CSCC85\Phase 1\Phase1---Little-Lost-Robot\Distro\pfilter prob.nxc"
0	1108	1079	#line 1108 "C:\Users\Sakeeb\Documents\School\Fall 2017\CSCC85\Phase 1\Phase1---Little-Lost-Robot\Distro\pfilter prob.nxc"
0	1109	1079		index __ArrHelper__mainparticle_219_0, __main_7qG2_list_7qG2_000, __signed_stack_001main
0	1108	1083	#line 1108 "C:\Users\Sakeeb\Documents\School\Fall 2017\CSCC85\Phase 1\Phase1---Little-Lost-Robot\Distro\pfilter prob.nxc"
0	1109	1083		mov __sense_7qG2_y_7qG2_000, __ArrHelper__mainparticle_219_0.y
0	1108	1085	#line 1108 "C:\Users\Sakeeb\Documents\School\Fall 2017\CSCC85\Phase 1\Phase1---Little-Lost-Robot\Distro\pfilter prob.nxc"
0	1108	1085	#line 1108 "C:\Users\Sakeeb\Documents\School\Fall 2017\CSCC85\Phase 1\Phase1---Little-Lost-Robot\Distro\pfilter prob.nxc"
0	1109	1085		set __sense_7qG2_dir_7qG2_000, 1001
0	1108	1088	#line 1108 "C:\Users\Sakeeb\Documents\School\Fall 2017\CSCC85\Phase 1\Phase1---Little-Lost-Robot\Distro\pfilter prob.nxc"
0	1108	1088	#line 1108 "C:\Users\Sakeeb\Documents\School\Fall 2017\CSCC85\Phase 1\Phase1---Little-Lost-Robot\Distro\pfilter prob.nxc"
0	1109	1088		mov __signed_stack_001main, __main_7qG2_i_7qG2_000
0	1108	1091	#line 1108 "C:\Users\Sakeeb\Documents\School\Fall 2017\CSCC85\Phase 1\Phase1---Little-Lost-Robot\Distro\pfilter prob.nxc"
0	1108	1091	#line 1108 "C:\Users\Sakeeb\Documents\School\Fall 2017\CSCC85\Phase 1\Phase1---Little-Lost-Robot\Distro\pfilter prob.nxc"
0	1109	1091		index __ArrHelper__mainparticle_219_0, __main_7qG2_list_7qG2_000, __signed_stack_001main
0	1108	1095	#line 1108 "C:\Users\Sakeeb\Documents\School\Fall 2017\CSCC85\Phase 1\Phase1---Little-Lost-Robot\Distro\pfilter prob.nxc"
0	1109	1095		mov __sense_7qG2_heading_7qG2_000, __ArrHelper__mainparticle_219_0.theta
0	1108	1097	#line 1108 "C:\Users\Sakeeb\Documents\School\Fall 2017\CSCC85\Phase 1\Phase1---Little-Lost-Robot\Distro\pfilter prob.nxc"
0	1109	1097	#line 1109 "C:\Users\Sakeeb\Documents\School\Fall 2017\CSCC85\Phase 1\Phase1---Little-Lost-Robot\Distro\pfilter prob.nxc"
0	1110	1097		subcall sense, __sense_return
0	1109	1100	#line 1109 "C:\Users\Sakeeb\Documents\School\Fall 2017\CSCC85\Phase 1\Phase1---Little-Lost-Robot\Distro\pfilter prob.nxc"
0	1110	1100		mov __main_7qG2_pSE_7qG2_004, __D0sense
0	1109	1102	#line 1109 "C:\Users\Sakeeb\Documents\School\Fall 2017\CSCC85\Phase 1\Phase1---Little-Lost-Robot\Distro\pfilter prob.nxc"
0	1109	1102	#line 1109 "C:\Users\Sakeeb\Documents\School\Fall 2017\CSCC85\Phase 1\Phase1---Little-Lost-Robot\Distro\pfilter prob.nxc"
0	1110	1102		mov __sense_7qG2_map_7qG2_000, __main_7qG2_map_7qG2_000
0	1109	1104	#line 1109 "C:\Users\Sakeeb\Documents\School\Fall 2017\CSCC85\Phase 1\Phase1---Little-Lost-Robot\Distro\pfilter prob.nxc"
0	1110	1104		mov __signed_stack_001main, __main_7qG2_i_7qG2_000
0	1109	1107	#line 1109 "C:\Users\Sakeeb\Documents\School\Fall 2017\CSCC85\Phase 1\Phase1---Little-Lost-Robot\Distro\pfilter prob.nxc"
0	1109	1107	#line 1109 "C:\Users\Sakeeb\Documents\School\Fall 2017\CSCC85\Phase 1\Phase1---Little-Lost-Robot\Distro\pfilter prob.nxc"
0	1110	1107		index __ArrHelper__mainparticle_219_0, __main_7qG2_list_7qG2_000, __signed_stack_001main
0	1109	1111	#line 1109 "C:\Users\Sakeeb\Documents\School\Fall 2017\CSCC85\Phase 1\Phase1---Little-Lost-Robot\Distro\pfilter prob.nxc"
0	1110	1111		mov __sense_7qG2_x_7qG2_000, __ArrHelper__mainparticle_219_0.x
0	1109	1113	#line 1109 "C:\Users\Sakeeb\Documents\School\Fall 2017\CSCC85\Phase 1\Phase1---Little-Lost-Robot\Distro\pfilter prob.nxc"
0	1109	1113	#line 1109 "C:\Users\Sakeeb\Documents\School\Fall 2017\CSCC85\Phase 1\Phase1---Little-Lost-Robot\Distro\pfilter prob.nxc"
0	1110	1113		mov __signed_stack_001main, __main_7qG2_i_7qG2_000
0	1109	1116	#line 1109 "C:\Users\Sakeeb\Documents\School\Fall 2017\CSCC85\Phase 1\Phase1---Little-Lost-Robot\Distro\pfilter prob.nxc"
0	1109	1116	#line 1109 "C:\Users\Sakeeb\Documents\School\Fall 2017\CSCC85\Phase 1\Phase1---Little-Lost-Robot\Distro\pfilter prob.nxc"
0	1110	1116		index __ArrHelper__mainparticle_219_0, __main_7qG2_list_7qG2_000, __signed_stack_001main
0	1109	1120	#line 1109 "C:\Users\Sakeeb\Documents\School\Fall 2017\CSCC85\Phase 1\Phase1---Little-Lost-Robot\Distro\pfilter prob.nxc"
0	1110	1120		mov __sense_7qG2_y_7qG2_000, __ArrHelper__mainparticle_219_0.y
0	1109	1122	#line 1109 "C:\Users\Sakeeb\Documents\School\Fall 2017\CSCC85\Phase 1\Phase1---Little-Lost-Robot\Distro\pfilter prob.nxc"
0	1109	1122	#line 1109 "C:\Users\Sakeeb\Documents\School\Fall 2017\CSCC85\Phase 1\Phase1---Little-Lost-Robot\Distro\pfilter prob.nxc"
0	1110	1122		set __sense_7qG2_dir_7qG2_000, 1002
0	1109	1125	#line 1109 "C:\Users\Sakeeb\Documents\School\Fall 2017\CSCC85\Phase 1\Phase1---Little-Lost-Robot\Distro\pfilter prob.nxc"
0	1109	1125	#line 1109 "C:\Users\Sakeeb\Documents\School\Fall 2017\CSCC85\Phase 1\Phase1---Little-Lost-Robot\Distro\pfilter prob.nxc"
0	1110	1125		mov __signed_stack_001main, __main_7qG2_i_7qG2_000
0	1109	1128	#line 1109 "C:\Users\Sakeeb\Documents\School\Fall 2017\CSCC85\Phase 1\Phase1---Little-Lost-Robot\Distro\pfilter prob.nxc"
0	1109	1128	#line 1109 "C:\Users\Sakeeb\Documents\School\Fall 2017\CSCC85\Phase 1\Phase1---Little-Lost-Robot\Distro\pfilter prob.nxc"
0	1110	1128		index __ArrHelper__mainparticle_219_0, __main_7qG2_list_7qG2_000, __signed_stack_001main
0	1109	1132	#line 1109 "C:\Users\Sakeeb\Documents\School\Fall 2017\CSCC85\Phase 1\Phase1---Little-Lost-Robot\Distro\pfilter prob.nxc"
0	1110	1132		mov __sense_7qG2_heading_7qG2_000, __ArrHelper__mainparticle_219_0.theta
0	1109	1134	#line 1109 "C:\Users\Sakeeb\Documents\School\Fall 2017\CSCC85\Phase 1\Phase1---Little-Lost-Robot\Distro\pfilter prob.nxc"
0	1111	1134	#line 1111 "C:\Users\Sakeeb\Documents\School\Fall 2017\CSCC85\Phase 1\Phase1---Little-Lost-Robot\Distro\pfilter prob.nxc"
0	1112	1134		subcall sense, __sense_return
0	1111	1137	#line 1111 "C:\Users\Sakeeb\Documents\School\Fall 2017\CSCC85\Phase 1\Phase1---Little-Lost-Robot\Distro\pfilter prob.nxc"
0	1112	1137		mov __main_7qG2_pSW_7qG2_004, __D0sense
0	1111	1139	#line 1111 "C:\Users\Sakeeb\Documents\School\Fall 2017\CSCC85\Phase 1\Phase1---Little-Lost-Robot\Distro\pfilter prob.nxc"
0	1111	1139	#line 1111 "C:\Users\Sakeeb\Documents\School\Fall 2017\CSCC85\Phase 1\Phase1---Little-Lost-Robot\Distro\pfilter prob.nxc"
0	1112	1139		mov __signed_stack_001main, __main_7qG2_pNE_7qG2_004
0	1111	1141	#line 1111 "C:\Users\Sakeeb\Documents\School\Fall 2017\CSCC85\Phase 1\Phase1---Little-Lost-Robot\Distro\pfilter prob.nxc"
0	1111	1141	#line 1111 "C:\Users\Sakeeb\Documents\School\Fall 2017\CSCC85\Phase 1\Phase1---Little-Lost-Robot\Distro\pfilter prob.nxc"
0	1112	1141		mov __D0main, __main_7qG2_rsense_7qG2_000.NE
0	1111	1144	#line 1111 "C:\Users\Sakeeb\Documents\School\Fall 2017\CSCC85\Phase 1\Phase1---Little-Lost-Robot\Distro\pfilter prob.nxc"
0	1112	1144		cmp 4, __D0main, __signed_stack_001main, __D0main
0	1111	1148	#line 1111 "C:\Users\Sakeeb\Documents\School\Fall 2017\CSCC85\Phase 1\Phase1---Little-Lost-Robot\Distro\pfilter prob.nxc"
0	1112	1148		brtst 4, __ASM_Label_1899, __D0main
0	1111	1151	#line 1111 "C:\Users\Sakeeb\Documents\School\Fall 2017\CSCC85\Phase 1\Phase1---Little-Lost-Robot\Distro\pfilter prob.nxc"
0	1112	1151		mov __signed_stack_001main, __main_7qG2_pNW_7qG2_004
0	1111	1153	#line 1111 "C:\Users\Sakeeb\Documents\School\Fall 2017\CSCC85\Phase 1\Phase1---Little-Lost-Robot\Distro\pfilter prob.nxc"
0	1111	1153	#line 1111 "C:\Users\Sakeeb\Documents\School\Fall 2017\CSCC85\Phase 1\Phase1---Little-Lost-Robot\Distro\pfilter prob.nxc"
0	1112	1153		mov __D0main, __main_7qG2_rsense_7qG2_000.NW
0	1111	1156	#line 1111 "C:\Users\Sakeeb\Documents\School\Fall 2017\CSCC85\Phase 1\Phase1---Little-Lost-Robot\Distro\pfilter prob.nxc"
0	1112	1156		cmp 4, __D0main, __signed_stack_001main, __D0main
0	1111	1160	#line 1111 "C:\Users\Sakeeb\Documents\School\Fall 2017\CSCC85\Phase 1\Phase1---Little-Lost-Robot\Distro\pfilter prob.nxc"
0	1112	1160		brtst 4, __ASM_Label_1899, __D0main
0	1111	1163	#line 1111 "C:\Users\Sakeeb\Documents\School\Fall 2017\CSCC85\Phase 1\Phase1---Little-Lost-Robot\Distro\pfilter prob.nxc"
0	1112	1163		mov __signed_stack_001main, __main_7qG2_pSE_7qG2_004
0	1111	1165	#line 1111 "C:\Users\Sakeeb\Documents\School\Fall 2017\CSCC85\Phase 1\Phase1---Little-Lost-Robot\Distro\pfilter prob.nxc"
0	1111	1165	#line 1111 "C:\Users\Sakeeb\Documents\School\Fall 2017\CSCC85\Phase 1\Phase1---Little-Lost-Robot\Distro\pfilter prob.nxc"
0	1112	1165		mov __D0main, __main_7qG2_rsense_7qG2_000.SE
0	1111	1168	#line 1111 "C:\Users\Sakeeb\Documents\School\Fall 2017\CSCC85\Phase 1\Phase1---Little-Lost-Robot\Distro\pfilter prob.nxc"
0	1112	1168		cmp 4, __D0main, __signed_stack_001main, __D0main
0	1111	1172	#line 1111 "C:\Users\Sakeeb\Documents\School\Fall 2017\CSCC85\Phase 1\Phase1---Little-Lost-Robot\Distro\pfilter prob.nxc"
0	1112	1172		brtst 4, __ASM_Label_1899, __D0main
0	1111	1175	#line 1111 "C:\Users\Sakeeb\Documents\School\Fall 2017\CSCC85\Phase 1\Phase1---Little-Lost-Robot\Distro\pfilter prob.nxc"
0	1112	1175		mov __signed_stack_001main, __main_7qG2_pSW_7qG2_004
0	1111	1177	#line 1111 "C:\Users\Sakeeb\Documents\School\Fall 2017\CSCC85\Phase 1\Phase1---Little-Lost-Robot\Distro\pfilter prob.nxc"
0	1111	1177	#line 1111 "C:\Users\Sakeeb\Documents\School\Fall 2017\CSCC85\Phase 1\Phase1---Little-Lost-Robot\Distro\pfilter prob.nxc"
0	1112	1177		mov __D0main, __main_7qG2_rsense_7qG2_000.SW
0	1111	1180	#line 1111 "C:\Users\Sakeeb\Documents\School\Fall 2017\CSCC85\Phase 1\Phase1---Little-Lost-Robot\Distro\pfilter prob.nxc"
0	1112	1180		cmp 4, __D0main, __signed_stack_001main, __D0main
0	1112	1184	#line 1112 "C:\Users\Sakeeb\Documents\School\Fall 2017\CSCC85\Phase 1\Phase1---Little-Lost-Robot\Distro\pfilter prob.nxc"
0	1113	1184		brtst 4, __ASM_Label_1900, __D0main
0	1112	1187	#line 1112 "C:\Users\Sakeeb\Documents\School\Fall 2017\CSCC85\Phase 1\Phase1---Little-Lost-Robot\Distro\pfilter prob.nxc"
0	1113	1187		mov __signed_stack_001main, __main_7qG2_i_7qG2_000
0	1112	1190	#line 1112 "C:\Users\Sakeeb\Documents\School\Fall 2017\CSCC85\Phase 1\Phase1---Little-Lost-Robot\Distro\pfilter prob.nxc"
0	1112	1190	#line 1112 "C:\Users\Sakeeb\Documents\School\Fall 2017\CSCC85\Phase 1\Phase1---Little-Lost-Robot\Distro\pfilter prob.nxc"
0	1113	1190		index __ArrHelper__mainparticle_219_0, __main_7qG2_list_7qG2_000, __signed_stack_001main
0	1112	1194	#line 1112 "C:\Users\Sakeeb\Documents\School\Fall 2017\CSCC85\Phase 1\Phase1---Little-Lost-Robot\Distro\pfilter prob.nxc"
0	1113	1194		mov __signed_stack_002main, __main_7qG2_i_7qG2_000
0	1112	1196	#line 1112 "C:\Users\Sakeeb\Documents\School\Fall 2017\CSCC85\Phase 1\Phase1---Little-Lost-Robot\Distro\pfilter prob.nxc"
0	1112	1196	#line 1112 "C:\Users\Sakeeb\Documents\School\Fall 2017\CSCC85\Phase 1\Phase1---Little-Lost-Robot\Distro\pfilter prob.nxc"
0	1113	1196		index __ArrHelper__mainparticle_219_1, __main_7qG2_list_7qG2_000, __signed_stack_002main
0	1112	1200	#line 1112 "C:\Users\Sakeeb\Documents\School\Fall 2017\CSCC85\Phase 1\Phase1---Little-Lost-Robot\Distro\pfilter prob.nxc"
0	1112	1200	#line 1112 "C:\Users\Sakeeb\Documents\School\Fall 2017\CSCC85\Phase 1\Phase1---Little-Lost-Robot\Distro\pfilter prob.nxc"
0	1113	1200	#line 1113 "C:\Users\Sakeeb\Documents\School\Fall 2017\CSCC85\Phase 1\Phase1---Little-Lost-Robot\Distro\pfilter prob.nxc"
0	1113	1200	#line 1113 "C:\Users\Sakeeb\Documents\School\Fall 2017\CSCC85\Phase 1\Phase1---Little-Lost-Robot\Distro\pfilter prob.nxc"
0	1114	1200		mul __ArrHelper__mainparticle_219_0.prob, __ArrHelper__mainparticle_219_1.prob, __constValf0P8
0	1113	1204	#line 1113 "C:\Users\Sakeeb\Documents\School\Fall 2017\CSCC85\Phase 1\Phase1---Little-Lost-Robot\Distro\pfilter prob.nxc"
0	1113	1204	#line 1113 "C:\Users\Sakeeb\Documents\School\Fall 2017\CSCC85\Phase 1\Phase1---Little-Lost-Robot\Distro\pfilter prob.nxc"
0	1114	1204		replace __main_7qG2_list_7qG2_000, __main_7qG2_list_7qG2_000, __signed_stack_001main, __ArrHelper__mainparticle_219_0
0	1113	1209	#line 1113 "C:\Users\Sakeeb\Documents\School\Fall 2017\CSCC85\Phase 1\Phase1---Little-Lost-Robot\Distro\pfilter prob.nxc"
0	1115	1209	#line 1115 "C:\Users\Sakeeb\Documents\School\Fall 2017\CSCC85\Phase 1\Phase1---Little-Lost-Robot\Distro\pfilter prob.nxc"
0	1116	1209		jmp __ASM_Label_1907
0	1115	1211	#line 1115 "C:\Users\Sakeeb\Documents\School\Fall 2017\CSCC85\Phase 1\Phase1---Little-Lost-Robot\Distro\pfilter prob.nxc"
0	1116	1211		mov __signed_stack_001main, __main_7qG2_i_7qG2_000
0	1115	1214	#line 1115 "C:\Users\Sakeeb\Documents\School\Fall 2017\CSCC85\Phase 1\Phase1---Little-Lost-Robot\Distro\pfilter prob.nxc"
0	1115	1214	#line 1115 "C:\Users\Sakeeb\Documents\School\Fall 2017\CSCC85\Phase 1\Phase1---Little-Lost-Robot\Distro\pfilter prob.nxc"
0	1116	1214		index __ArrHelper__mainparticle_219_0, __main_7qG2_list_7qG2_000, __signed_stack_001main
0	1115	1218	#line 1115 "C:\Users\Sakeeb\Documents\School\Fall 2017\CSCC85\Phase 1\Phase1---Little-Lost-Robot\Distro\pfilter prob.nxc"
0	1116	1218		mov __signed_stack_002main, __main_7qG2_i_7qG2_000
0	1115	1220	#line 1115 "C:\Users\Sakeeb\Documents\School\Fall 2017\CSCC85\Phase 1\Phase1---Little-Lost-Robot\Distro\pfilter prob.nxc"
0	1115	1220	#line 1115 "C:\Users\Sakeeb\Documents\School\Fall 2017\CSCC85\Phase 1\Phase1---Little-Lost-Robot\Distro\pfilter prob.nxc"
0	1116	1220		index __ArrHelper__mainparticle_219_1, __main_7qG2_list_7qG2_000, __signed_stack_002main
0	1115	1224	#line 1115 "C:\Users\Sakeeb\Documents\School\Fall 2017\CSCC85\Phase 1\Phase1---Little-Lost-Robot\Distro\pfilter prob.nxc"
0	1115	1224	#line 1115 "C:\Users\Sakeeb\Documents\School\Fall 2017\CSCC85\Phase 1\Phase1---Little-Lost-Robot\Distro\pfilter prob.nxc"
0	1116	1224	#line 1116 "C:\Users\Sakeeb\Documents\School\Fall 2017\CSCC85\Phase 1\Phase1---Little-Lost-Robot\Distro\pfilter prob.nxc"
0	1116	1224	#line 1116 "C:\Users\Sakeeb\Documents\School\Fall 2017\CSCC85\Phase 1\Phase1---Little-Lost-Robot\Distro\pfilter prob.nxc"
0	1117	1224		mul __ArrHelper__mainparticle_219_0.prob, __ArrHelper__mainparticle_219_1.prob, __constValf0P2
0	1116	1228	#line 1116 "C:\Users\Sakeeb\Documents\School\Fall 2017\CSCC85\Phase 1\Phase1---Little-Lost-Robot\Distro\pfilter prob.nxc"
0	1116	1228	#line 1116 "C:\Users\Sakeeb\Documents\School\Fall 2017\CSCC85\Phase 1\Phase1---Little-Lost-Robot\Distro\pfilter prob.nxc"
0	1117	1228		replace __main_7qG2_list_7qG2_000, __main_7qG2_list_7qG2_000, __signed_stack_001main, __ArrHelper__mainparticle_219_0
0	1116	1233	#line 1116 "C:\Users\Sakeeb\Documents\School\Fall 2017\CSCC85\Phase 1\Phase1---Little-Lost-Robot\Distro\pfilter prob.nxc"
0	1118	1233	#line 1118 "C:\Users\Sakeeb\Documents\School\Fall 2017\CSCC85\Phase 1\Phase1---Little-Lost-Robot\Distro\pfilter prob.nxc"
0	1118	1233	#line 1118 "C:\Users\Sakeeb\Documents\School\Fall 2017\CSCC85\Phase 1\Phase1---Little-Lost-Robot\Distro\pfilter prob.nxc"
0	1119	1233		mov __float_stack_001main, __main_7qG2_totalprob_7qG2_000
0	1118	1235	#line 1118 "C:\Users\Sakeeb\Documents\School\Fall 2017\CSCC85\Phase 1\Phase1---Little-Lost-Robot\Distro\pfilter prob.nxc"
0	1118	1235	#line 1118 "C:\Users\Sakeeb\Documents\School\Fall 2017\CSCC85\Phase 1\Phase1---Little-Lost-Robot\Distro\pfilter prob.nxc"
0	1119	1235		mov __signed_stack_002main, __main_7qG2_i_7qG2_000
0	1118	1237	#line 1118 "C:\Users\Sakeeb\Documents\School\Fall 2017\CSCC85\Phase 1\Phase1---Little-Lost-Robot\Distro\pfilter prob.nxc"
0	1118	1237	#line 1118 "C:\Users\Sakeeb\Documents\School\Fall 2017\CSCC85\Phase 1\Phase1---Little-Lost-Robot\Distro\pfilter prob.nxc"
0	1119	1237		index __ArrHelper__mainparticle_219_0, __main_7qG2_list_7qG2_000, __signed_stack_002main
0	1118	1241	#line 1118 "C:\Users\Sakeeb\Documents\School\Fall 2017\CSCC85\Phase 1\Phase1---Little-Lost-Robot\Distro\pfilter prob.nxc"
0	1120	1241	#line 1120 "C:\Users\Sakeeb\Documents\School\Fall 2017\CSCC85\Phase 1\Phase1---Little-Lost-Robot\Distro\pfilter prob.nxc"
0	1121	1241		add __main_7qG2_totalprob_7qG2_000, __float_stack_001main, __ArrHelper__mainparticle_219_0.prob
0	1120	1245	#line 1120 "C:\Users\Sakeeb\Documents\School\Fall 2017\CSCC85\Phase 1\Phase1---Little-Lost-Robot\Distro\pfilter prob.nxc"
0	1120	1245	#line 1120 "C:\Users\Sakeeb\Documents\School\Fall 2017\CSCC85\Phase 1\Phase1---Little-Lost-Robot\Distro\pfilter prob.nxc"
0	1120	1245	#line 1120 "C:\Users\Sakeeb\Documents\School\Fall 2017\CSCC85\Phase 1\Phase1---Little-Lost-Robot\Distro\pfilter prob.nxc"
0	1121	1245		mov __float_stack_001main, __main_7qG2_maxprob_7qG2_000
0	1120	1247	#line 1120 "C:\Users\Sakeeb\Documents\School\Fall 2017\CSCC85\Phase 1\Phase1---Little-Lost-Robot\Distro\pfilter prob.nxc"
0	1120	1247	#line 1120 "C:\Users\Sakeeb\Documents\School\Fall 2017\CSCC85\Phase 1\Phase1---Little-Lost-Robot\Distro\pfilter prob.nxc"
0	1121	1247		mov __signed_stack_002main, __main_7qG2_i_7qG2_000
0	1120	1249	#line 1120 "C:\Users\Sakeeb\Documents\School\Fall 2017\CSCC85\Phase 1\Phase1---Little-Lost-Robot\Distro\pfilter prob.nxc"
0	1120	1249	#line 1120 "C:\Users\Sakeeb\Documents\School\Fall 2017\CSCC85\Phase 1\Phase1---Little-Lost-Robot\Distro\pfilter prob.nxc"
0	1121	1249		index __ArrHelper__mainparticle_219_0, __main_7qG2_list_7qG2_000, __signed_stack_002main
0	1120	1253	#line 1120 "C:\Users\Sakeeb\Documents\School\Fall 2017\CSCC85\Phase 1\Phase1---Little-Lost-Robot\Distro\pfilter prob.nxc"
0	1121	1253		mov __DF0main, __ArrHelper__mainparticle_219_0.prob
0	1120	1256	#line 1120 "C:\Users\Sakeeb\Documents\School\Fall 2017\CSCC85\Phase 1\Phase1---Little-Lost-Robot\Distro\pfilter prob.nxc"
0	1121	1256		cmp 0, __D0main, __float_stack_001main, __DF0main
0	1121	1260	#line 1121 "C:\Users\Sakeeb\Documents\School\Fall 2017\CSCC85\Phase 1\Phase1---Little-Lost-Robot\Distro\pfilter prob.nxc"
0	1122	1260		brtst 4, __ASM_Label_1922, __D0main
0	1121	1263	#line 1121 "C:\Users\Sakeeb\Documents\School\Fall 2017\CSCC85\Phase 1\Phase1---Little-Lost-Robot\Distro\pfilter prob.nxc"
0	1122	1263		mov __signed_stack_001main, __main_7qG2_i_7qG2_000
0	1121	1266	#line 1121 "C:\Users\Sakeeb\Documents\School\Fall 2017\CSCC85\Phase 1\Phase1---Little-Lost-Robot\Distro\pfilter prob.nxc"
0	1121	1266	#line 1121 "C:\Users\Sakeeb\Documents\School\Fall 2017\CSCC85\Phase 1\Phase1---Little-Lost-Robot\Distro\pfilter prob.nxc"
0	1122	1266		index __ArrHelper__mainparticle_219_0, __main_7qG2_list_7qG2_000, __signed_stack_001main
0	1121	1270	#line 1121 "C:\Users\Sakeeb\Documents\School\Fall 2017\CSCC85\Phase 1\Phase1---Little-Lost-Robot\Distro\pfilter prob.nxc"
0	1122	1270		mov __main_7qG2_maxprob_7qG2_000, __ArrHelper__mainparticle_219_0.prob
0	1122	1273	#line 1122 "C:\Users\Sakeeb\Documents\School\Fall 2017\CSCC85\Phase 1\Phase1---Little-Lost-Robot\Distro\pfilter prob.nxc"
0	1122	1273	#line 1122 "C:\Users\Sakeeb\Documents\School\Fall 2017\CSCC85\Phase 1\Phase1---Little-Lost-Robot\Distro\pfilter prob.nxc"
0	1122	1273	#line 1122 "C:\Users\Sakeeb\Documents\School\Fall 2017\CSCC85\Phase 1\Phase1---Little-Lost-Robot\Distro\pfilter prob.nxc"
0	1123	1273		set __signed_stack_001main, 0
0	1122	1276	#line 1122 "C:\Users\Sakeeb\Documents\School\Fall 2017\CSCC85\Phase 1\Phase1---Little-Lost-Robot\Distro\pfilter prob.nxc"
0	1122	1276	#line 1122 "C:\Users\Sakeeb\Documents\School\Fall 2017\CSCC85\Phase 1\Phase1---Little-Lost-Robot\Distro\pfilter prob.nxc"
0	1123	1276		mov __signed_stack_002main, __main_7qG2_i_7qG2_000
0	1122	1278	#line 1122 "C:\Users\Sakeeb\Documents\School\Fall 2017\CSCC85\Phase 1\Phase1---Little-Lost-Robot\Distro\pfilter prob.nxc"
0	1122	1278	#line 1122 "C:\Users\Sakeeb\Documents\School\Fall 2017\CSCC85\Phase 1\Phase1---Little-Lost-Robot\Distro\pfilter prob.nxc"
0	1123	1278		index __ArrHelper__mainparticle_219_0, __main_7qG2_list_7qG2_000, __signed_stack_002main
0	1122	1282	#line 1122 "C:\Users\Sakeeb\Documents\School\Fall 2017\CSCC85\Phase 1\Phase1---Little-Lost-Robot\Distro\pfilter prob.nxc"
0	1123	1282		mov __D0main, __ArrHelper__mainparticle_219_0.x
0	1123	1285	#line 1123 "C:\Users\Sakeeb\Documents\School\Fall 2017\CSCC85\Phase 1\Phase1---Little-Lost-Robot\Distro\pfilter prob.nxc"
0	1124	1285		replace __main_7qG2_guess_7qG2_000, __main_7qG2_guess_7qG2_000, __signed_stack_001main, __D0main
0	1123	1290	#line 1123 "C:\Users\Sakeeb\Documents\School\Fall 2017\CSCC85\Phase 1\Phase1---Little-Lost-Robot\Distro\pfilter prob.nxc"
0	1123	1290	#line 1123 "C:\Users\Sakeeb\Documents\School\Fall 2017\CSCC85\Phase 1\Phase1---Little-Lost-Robot\Distro\pfilter prob.nxc"
0	1124	1290		set __signed_stack_001main, 1
0	1123	1293	#line 1123 "C:\Users\Sakeeb\Documents\School\Fall 2017\CSCC85\Phase 1\Phase1---Little-Lost-Robot\Distro\pfilter prob.nxc"
0	1123	1293	#line 1123 "C:\Users\Sakeeb\Documents\School\Fall 2017\CSCC85\Phase 1\Phase1---Little-Lost-Robot\Distro\pfilter prob.nxc"
0	1124	1293		mov __signed_stack_002main, __main_7qG2_i_7qG2_000
0	1123	1295	#line 1123 "C:\Users\Sakeeb\Documents\School\Fall 2017\CSCC85\Phase 1\Phase1---Little-Lost-Robot\Distro\pfilter prob.nxc"
0	1123	1295	#line 1123 "C:\Users\Sakeeb\Documents\School\Fall 2017\CSCC85\Phase 1\Phase1---Little-Lost-Robot\Distro\pfilter prob.nxc"
0	1124	1295		index __ArrHelper__mainparticle_219_0, __main_7qG2_list_7qG2_000, __signed_stack_002main
0	1123	1299	#line 1123 "C:\Users\Sakeeb\Documents\School\Fall 2017\CSCC85\Phase 1\Phase1---Little-Lost-Robot\Distro\pfilter prob.nxc"
0	1124	1299		mov __D0main, __ArrHelper__mainparticle_219_0.y
0	1124	1302	#line 1124 "C:\Users\Sakeeb\Documents\School\Fall 2017\CSCC85\Phase 1\Phase1---Little-Lost-Robot\Distro\pfilter prob.nxc"
0	1125	1302		replace __main_7qG2_guess_7qG2_000, __main_7qG2_guess_7qG2_000, __signed_stack_001main, __D0main
0	1124	1307	#line 1124 "C:\Users\Sakeeb\Documents\School\Fall 2017\CSCC85\Phase 1\Phase1---Little-Lost-Robot\Distro\pfilter prob.nxc"
0	1124	1307	#line 1124 "C:\Users\Sakeeb\Documents\School\Fall 2017\CSCC85\Phase 1\Phase1---Little-Lost-Robot\Distro\pfilter prob.nxc"
0	1125	1307		set __signed_stack_001main, 2
0	1124	1310	#line 1124 "C:\Users\Sakeeb\Documents\School\Fall 2017\CSCC85\Phase 1\Phase1---Little-Lost-Robot\Distro\pfilter prob.nxc"
0	1124	1310	#line 1124 "C:\Users\Sakeeb\Documents\School\Fall 2017\CSCC85\Phase 1\Phase1---Little-Lost-Robot\Distro\pfilter prob.nxc"
0	1125	1310		mov __signed_stack_002main, __main_7qG2_i_7qG2_000
0	1124	1312	#line 1124 "C:\Users\Sakeeb\Documents\School\Fall 2017\CSCC85\Phase 1\Phase1---Little-Lost-Robot\Distro\pfilter prob.nxc"
0	1124	1312	#line 1124 "C:\Users\Sakeeb\Documents\School\Fall 2017\CSCC85\Phase 1\Phase1---Little-Lost-Robot\Distro\pfilter prob.nxc"
0	1125	1312		index __ArrHelper__mainparticle_219_0, __main_7qG2_list_7qG2_000, __signed_stack_002main
0	1124	1316	#line 1124 "C:\Users\Sakeeb\Documents\School\Fall 2017\CSCC85\Phase 1\Phase1---Little-Lost-Robot\Distro\pfilter prob.nxc"
0	1125	1316		mov __D0main, __ArrHelper__mainparticle_219_0.theta
0	1126	1319	#line 1126 "C:\Users\Sakeeb\Documents\School\Fall 2017\CSCC85\Phase 1\Phase1---Little-Lost-Robot\Distro\pfilter prob.nxc"
0	1127	1319		replace __main_7qG2_guess_7qG2_000, __main_7qG2_guess_7qG2_000, __signed_stack_001main, __D0main
0	1126	1324	#line 1126 "C:\Users\Sakeeb\Documents\School\Fall 2017\CSCC85\Phase 1\Phase1---Little-Lost-Robot\Distro\pfilter prob.nxc"
0	1130	1324	#line 1130 "C:\Users\Sakeeb\Documents\School\Fall 2017\CSCC85\Phase 1\Phase1---Little-Lost-Robot\Distro\pfilter prob.nxc"
0	1130	1324	#line 1130 "C:\Users\Sakeeb\Documents\School\Fall 2017\CSCC85\Phase 1\Phase1---Little-Lost-Robot\Distro\pfilter prob.nxc"
0	1131	1324		jmp __ASM_Label_1827
0	1130	1326	#line 1130 "C:\Users\Sakeeb\Documents\School\Fall 2017\CSCC85\Phase 1\Phase1---Little-Lost-Robot\Distro\pfilter prob.nxc"
0	1130	1326	#line 1130 "C:\Users\Sakeeb\Documents\School\Fall 2017\CSCC85\Phase 1\Phase1---Little-Lost-Robot\Distro\pfilter prob.nxc"
0	1130	1326	#line 1130 "C:\Users\Sakeeb\Documents\School\Fall 2017\CSCC85\Phase 1\Phase1---Little-Lost-Robot\Distro\pfilter prob.nxc"
0	1131	1326	#line 1131 "C:\Users\Sakeeb\Documents\School\Fall 2017\CSCC85\Phase 1\Phase1---Little-Lost-Robot\Distro\pfilter prob.nxc"
0	1131	1326	#line 1131 "C:\Users\Sakeeb\Documents\School\Fall 2017\CSCC85\Phase 1\Phase1---Little-Lost-Robot\Distro\pfilter prob.nxc"
0	1132	1326		div __main_7qG2_maxprob_7qG2_000, __main_7qG2_maxprob_7qG2_000, __main_7qG2_totalprob_7qG2_000
0	1131	1330	#line 1131 "C:\Users\Sakeeb\Documents\School\Fall 2017\CSCC85\Phase 1\Phase1---Little-Lost-Robot\Distro\pfilter prob.nxc"
0	1131	1330	#line 1131 "C:\Users\Sakeeb\Documents\School\Fall 2017\CSCC85\Phase 1\Phase1---Little-Lost-Robot\Distro\pfilter prob.nxc"
0	1133	1330	#line 1133 "C:\Users\Sakeeb\Documents\School\Fall 2017\CSCC85\Phase 1\Phase1---Little-Lost-Robot\Distro\pfilter prob.nxc"
0	1134	1330		mov __main_7qG2_robp_7qG2_000, __main_7qG2_maxprob_7qG2_000
0	1133	1332	#line 1133 "C:\Users\Sakeeb\Documents\School\Fall 2017\CSCC85\Phase 1\Phase1---Little-Lost-Robot\Distro\pfilter prob.nxc"
0	1133	1332	#line 1133 "C:\Users\Sakeeb\Documents\School\Fall 2017\CSCC85\Phase 1\Phase1---Little-Lost-Robot\Distro\pfilter prob.nxc"
0	6678	1332	#line 6678 "NXCDefs.h"
0	6679	1332	#pragma macro 6
0	6679	1332		acquire __PointOutMutex
0	6679	1333		mov __PointOutArgs.Location.X, __constVal200
0	6679	1336		mov __PointOutArgs.Location.Y, __constVal200
0	6679	1339		mov __PointOutArgs.Options, __constVal1
0	6679	1341		syscall 14, __PointOutArgs
0	6679	1344		release __PointOutMutex
0	12463	1345	#line 12463 "NXCDefs.h"
0	6678	1345	#line 6678 "NXCDefs.h"
0	1134	1345	#line 1134 "C:\Users\Sakeeb\Documents\School\Fall 2017\CSCC85\Phase 1\Phase1---Little-Lost-Robot\Distro\pfilter prob.nxc"
0	1134	1345	#line 1134 "C:\Users\Sakeeb\Documents\School\Fall 2017\CSCC85\Phase 1\Phase1---Little-Lost-Robot\Distro\pfilter prob.nxc"
0	1135	1345		set __signed_stack_001main, 0
0	1134	1348	#line 1134 "C:\Users\Sakeeb\Documents\School\Fall 2017\CSCC85\Phase 1\Phase1---Little-Lost-Robot\Distro\pfilter prob.nxc"
0	1134	1348	#line 1134 "C:\Users\Sakeeb\Documents\School\Fall 2017\CSCC85\Phase 1\Phase1---Little-Lost-Robot\Distro\pfilter prob.nxc"
0	1135	1348		set __signed_stack_002main, 56
0	1134	1351	#line 1134 "C:\Users\Sakeeb\Documents\School\Fall 2017\CSCC85\Phase 1\Phase1---Little-Lost-Robot\Distro\pfilter prob.nxc"
0	1134	1351	#line 1134 "C:\Users\Sakeeb\Documents\School\Fall 2017\CSCC85\Phase 1\Phase1---Little-Lost-Robot\Distro\pfilter prob.nxc"
0	1135	1351		mov __ArrHelper__main_244_0, __constStr0018
0	1134	1353	#line 1134 "C:\Users\Sakeeb\Documents\School\Fall 2017\CSCC85\Phase 1\Phase1---Little-Lost-Robot\Distro\pfilter prob.nxc"
0	1135	1353		set __signed_stack_003main, 0
0	1134	1356	#line 1134 "C:\Users\Sakeeb\Documents\School\Fall 2017\CSCC85\Phase 1\Phase1---Little-Lost-Robot\Distro\pfilter prob.nxc"
0	1134	1356	#line 1134 "C:\Users\Sakeeb\Documents\School\Fall 2017\CSCC85\Phase 1\Phase1---Little-Lost-Robot\Distro\pfilter prob.nxc"
0	1135	1356		index __D0main, __main_7qG2_guess_7qG2_000, __signed_stack_003main
0	1134	1360	#line 1134 "C:\Users\Sakeeb\Documents\School\Fall 2017\CSCC85\Phase 1\Phase1---Little-Lost-Robot\Distro\pfilter prob.nxc"
0	1134	1360	#line 1134 "C:\Users\Sakeeb\Documents\School\Fall 2017\CSCC85\Phase 1\Phase1---Little-Lost-Robot\Distro\pfilter prob.nxc"
0	1135	1360		numtostr __strretvalmain, __D0main
0	1134	1363	#line 1134 "C:\Users\Sakeeb\Documents\School\Fall 2017\CSCC85\Phase 1\Phase1---Little-Lost-Robot\Distro\pfilter prob.nxc"
0	1135	1363		mov __ArrHelper__main_244_1, __strretvalmain
0	1134	1365	#line 1134 "C:\Users\Sakeeb\Documents\School\Fall 2017\CSCC85\Phase 1\Phase1---Little-Lost-Robot\Distro\pfilter prob.nxc"
0	1135	1365		mov __ArrHelper__main_244_2, __constStr0019
0	1134	1367	#line 1134 "C:\Users\Sakeeb\Documents\School\Fall 2017\CSCC85\Phase 1\Phase1---Little-Lost-Robot\Distro\pfilter prob.nxc"
0	1135	1367		set __signed_stack_003main, 1
0	1134	1370	#line 1134 "C:\Users\Sakeeb\Documents\School\Fall 2017\CSCC85\Phase 1\Phase1---Little-Lost-Robot\Distro\pfilter prob.nxc"
0	1134	1370	#line 1134 "C:\Users\Sakeeb\Documents\School\Fall 2017\CSCC85\Phase 1\Phase1---Little-Lost-Robot\Distro\pfilter prob.nxc"
0	1135	1370		index __D0main, __main_7qG2_guess_7qG2_000, __signed_stack_003main
0	1134	1374	#line 1134 "C:\Users\Sakeeb\Documents\School\Fall 2017\CSCC85\Phase 1\Phase1---Little-Lost-Robot\Distro\pfilter prob.nxc"
0	1134	1374	#line 1134 "C:\Users\Sakeeb\Documents\School\Fall 2017\CSCC85\Phase 1\Phase1---Little-Lost-Robot\Distro\pfilter prob.nxc"
0	1135	1374		numtostr __strretvalmain, __D0main
0	1134	1377	#line 1134 "C:\Users\Sakeeb\Documents\School\Fall 2017\CSCC85\Phase 1\Phase1---Little-Lost-Robot\Distro\pfilter prob.nxc"
0	1135	1377		mov __ArrHelper__main_244_3, __strretvalmain
0	1134	1379	#line 1134 "C:\Users\Sakeeb\Documents\School\Fall 2017\CSCC85\Phase 1\Phase1---Little-Lost-Robot\Distro\pfilter prob.nxc"
0	1135	1379		mov __ArrHelper__main_244_4, __constStr0020
0	1134	1381	#line 1134 "C:\Users\Sakeeb\Documents\School\Fall 2017\CSCC85\Phase 1\Phase1---Little-Lost-Robot\Distro\pfilter prob.nxc"
0	1135	1381		mov __DF0main, __main_7qG2_robp_7qG2_000
0	1134	1383	#line 1134 "C:\Users\Sakeeb\Documents\School\Fall 2017\CSCC85\Phase 1\Phase1---Little-Lost-Robot\Distro\pfilter prob.nxc"
0	1135	1383		numtostr __strretvalmain, __DF0main
0	1134	1386	#line 1134 "C:\Users\Sakeeb\Documents\School\Fall 2017\CSCC85\Phase 1\Phase1---Little-Lost-Robot\Distro\pfilter prob.nxc"
0	1135	1386		mov __ArrHelper__main_244_5, __strretvalmain
0	1134	1388	#line 1134 "C:\Users\Sakeeb\Documents\School\Fall 2017\CSCC85\Phase 1\Phase1---Little-Lost-Robot\Distro\pfilter prob.nxc"
0	1135	1388		mov __ArrHelper__main_244_6, __constStr0020
0	1134	1390	#line 1134 "C:\Users\Sakeeb\Documents\School\Fall 2017\CSCC85\Phase 1\Phase1---Little-Lost-Robot\Distro\pfilter prob.nxc"
0	1135	1390		mov __float_stack_003main, __constVal2
0	1134	1393	#line 1134 "C:\Users\Sakeeb\Documents\School\Fall 2017\CSCC85\Phase 1\Phase1---Little-Lost-Robot\Distro\pfilter prob.nxc"
0	1134	1393	#line 1134 "C:\Users\Sakeeb\Documents\School\Fall 2017\CSCC85\Phase 1\Phase1---Little-Lost-Robot\Distro\pfilter prob.nxc"
0	1135	1393		index __D0main, __main_7qG2_guess_7qG2_000, __float_stack_003main
0	1134	1397	#line 1134 "C:\Users\Sakeeb\Documents\School\Fall 2017\CSCC85\Phase 1\Phase1---Little-Lost-Robot\Distro\pfilter prob.nxc"
0	1134	1397	#line 1134 "C:\Users\Sakeeb\Documents\School\Fall 2017\CSCC85\Phase 1\Phase1---Little-Lost-Robot\Distro\pfilter prob.nxc"
0	1135	1397		numtostr __strretvalmain, __D0main
0	1134	1400	#line 1134 "C:\Users\Sakeeb\Documents\School\Fall 2017\CSCC85\Phase 1\Phase1---Little-Lost-Robot\Distro\pfilter prob.nxc"
0	1135	1400		strcat __strbufmain, __strretvalmain
0	1134	1404	#line 1134 "C:\Users\Sakeeb\Documents\School\Fall 2017\CSCC85\Phase 1\Phase1---Little-Lost-Robot\Distro\pfilter prob.nxc"
0	1135	1404		mov __ArrHelper__main_244_7, __strbufmain
0	1134	1406	#line 1134 "C:\Users\Sakeeb\Documents\School\Fall 2017\CSCC85\Phase 1\Phase1---Little-Lost-Robot\Distro\pfilter prob.nxc"
0	1135	1406		strcat __strbufmain, __ArrHelper__main_244_6, __ArrHelper__main_244_7
0	1134	1411	#line 1134 "C:\Users\Sakeeb\Documents\School\Fall 2017\CSCC85\Phase 1\Phase1---Little-Lost-Robot\Distro\pfilter prob.nxc"
0	1135	1411		mov __ArrHelper__main_244_6, __strbufmain
0	1134	1413	#line 1134 "C:\Users\Sakeeb\Documents\School\Fall 2017\CSCC85\Phase 1\Phase1---Little-Lost-Robot\Distro\pfilter prob.nxc"
0	1135	1413		strcat __strbufmain, __ArrHelper__main_244_5, __ArrHelper__main_244_6
0	1134	1418	#line 1134 "C:\Users\Sakeeb\Documents\School\Fall 2017\CSCC85\Phase 1\Phase1---Little-Lost-Robot\Distro\pfilter prob.nxc"
0	1135	1418		mov __ArrHelper__main_244_5, __strbufmain
0	1134	1420	#line 1134 "C:\Users\Sakeeb\Documents\School\Fall 2017\CSCC85\Phase 1\Phase1---Little-Lost-Robot\Distro\pfilter prob.nxc"
0	1135	1420		strcat __strbufmain, __ArrHelper__main_244_4, __ArrHelper__main_244_5
0	1134	1425	#line 1134 "C:\Users\Sakeeb\Documents\School\Fall 2017\CSCC85\Phase 1\Phase1---Little-Lost-Robot\Distro\pfilter prob.nxc"
0	1135	1425		mov __ArrHelper__main_244_4, __strbufmain
0	1134	1427	#line 1134 "C:\Users\Sakeeb\Documents\School\Fall 2017\CSCC85\Phase 1\Phase1---Little-Lost-Robot\Distro\pfilter prob.nxc"
0	1135	1427		strcat __strbufmain, __ArrHelper__main_244_3, __ArrHelper__main_244_4
0	1134	1432	#line 1134 "C:\Users\Sakeeb\Documents\School\Fall 2017\CSCC85\Phase 1\Phase1---Little-Lost-Robot\Distro\pfilter prob.nxc"
0	1135	1432		mov __ArrHelper__main_244_3, __strbufmain
0	1134	1434	#line 1134 "C:\Users\Sakeeb\Documents\School\Fall 2017\CSCC85\Phase 1\Phase1---Little-Lost-Robot\Distro\pfilter prob.nxc"
0	1135	1434		strcat __strbufmain, __ArrHelper__main_244_2, __ArrHelper__main_244_3
0	1134	1439	#line 1134 "C:\Users\Sakeeb\Documents\School\Fall 2017\CSCC85\Phase 1\Phase1---Little-Lost-Robot\Distro\pfilter prob.nxc"
0	1135	1439		mov __ArrHelper__main_244_2, __strbufmain
0	1134	1441	#line 1134 "C:\Users\Sakeeb\Documents\School\Fall 2017\CSCC85\Phase 1\Phase1---Little-Lost-Robot\Distro\pfilter prob.nxc"
0	1135	1441		strcat __strbufmain, __ArrHelper__main_244_1, __ArrHelper__main_244_2
0	1134	1446	#line 1134 "C:\Users\Sakeeb\Documents\School\Fall 2017\CSCC85\Phase 1\Phase1---Little-Lost-Robot\Distro\pfilter prob.nxc"
0	1135	1446		mov __ArrHelper__main_244_1, __strbufmain
0	1134	1448	#line 1134 "C:\Users\Sakeeb\Documents\School\Fall 2017\CSCC85\Phase 1\Phase1---Little-Lost-Robot\Distro\pfilter prob.nxc"
0	1135	1448		strcat __strbufmain, __ArrHelper__main_244_0, __ArrHelper__main_244_1
0	1135	1453	#line 1135 "C:\Users\Sakeeb\Documents\School\Fall 2017\CSCC85\Phase 1\Phase1---Little-Lost-Robot\Distro\pfilter prob.nxc"
0	1136	1453		acquire __TextOutMutex
0	1135	1454	#line 1135 "C:\Users\Sakeeb\Documents\School\Fall 2017\CSCC85\Phase 1\Phase1---Little-Lost-Robot\Distro\pfilter prob.nxc"
0	1136	1454		mov __TextOutArgs.Location.X, __signed_stack_001main
0	1135	1457	#line 1135 "C:\Users\Sakeeb\Documents\School\Fall 2017\CSCC85\Phase 1\Phase1---Little-Lost-Robot\Distro\pfilter prob.nxc"
0	1136	1457		mov __TextOutArgs.Location.Y, __signed_stack_002main
0	1135	1460	#line 1135 "C:\Users\Sakeeb\Documents\School\Fall 2017\CSCC85\Phase 1\Phase1---Little-Lost-Robot\Distro\pfilter prob.nxc"
0	1136	1460		set __TextOutArgs.Options, 0
0	1135	1463	#line 1135 "C:\Users\Sakeeb\Documents\School\Fall 2017\CSCC85\Phase 1\Phase1---Little-Lost-Robot\Distro\pfilter prob.nxc"
0	1136	1463		mov __TextOutArgs.Text, __strbufmain
0	1135	1466	#line 1135 "C:\Users\Sakeeb\Documents\School\Fall 2017\CSCC85\Phase 1\Phase1---Little-Lost-Robot\Distro\pfilter prob.nxc"
0	1136	1466		syscall 13, __TextOutArgs
0	1135	1469	#line 1135 "C:\Users\Sakeeb\Documents\School\Fall 2017\CSCC85\Phase 1\Phase1---Little-Lost-Robot\Distro\pfilter prob.nxc"
0	1136	1469		mov __D0main, __TextOutArgs.Result
0	1135	1472	#line 1135 "C:\Users\Sakeeb\Documents\School\Fall 2017\CSCC85\Phase 1\Phase1---Little-Lost-Robot\Distro\pfilter prob.nxc"
0	1136	1472		release __TextOutMutex
0	1135	1473	#line 1135 "C:\Users\Sakeeb\Documents\School\Fall 2017\CSCC85\Phase 1\Phase1---Little-Lost-Robot\Distro\pfilter prob.nxc"
0	1135	1473	#line 1135 "C:\Users\Sakeeb\Documents\School\Fall 2017\CSCC85\Phase 1\Phase1---Little-Lost-Robot\Distro\pfilter prob.nxc"
0	1136	1473		set __Wait_7qG2_ms_7qG2_000_inline_main, 1000
0	1135	1476	#line 1135 "C:\Users\Sakeeb\Documents\School\Fall 2017\CSCC85\Phase 1\Phase1---Little-Lost-Robot\Distro\pfilter prob.nxc"
0	8551	1476	#line 8551 "NXCDefs.h"
0	8552	1476		wait2 NA, __Wait_7qG2_ms_7qG2_000_inline_main
0	8551	1479	#line 8551 "NXCDefs.h"
0	1137	1479	#line 1137 "C:\Users\Sakeeb\Documents\School\Fall 2017\CSCC85\Phase 1\Phase1---Little-Lost-Robot\Distro\pfilter prob.nxc"
0	1137	1479	#line 1137 "C:\Users\Sakeeb\Documents\School\Fall 2017\CSCC85\Phase 1\Phase1---Little-Lost-Robot\Distro\pfilter prob.nxc"
0	1138	1479		set __main_7qG2_i_7qG2_000, 0
0	1137	1482	#line 1137 "C:\Users\Sakeeb\Documents\School\Fall 2017\CSCC85\Phase 1\Phase1---Little-Lost-Robot\Distro\pfilter prob.nxc"
0	1137	1482	#line 1137 "C:\Users\Sakeeb\Documents\School\Fall 2017\CSCC85\Phase 1\Phase1---Little-Lost-Robot\Distro\pfilter prob.nxc"
0	1138	1482		mov __signed_stack_001main, __main_7qG2_i_7qG2_000
0	1137	1485	#line 1137 "C:\Users\Sakeeb\Documents\School\Fall 2017\CSCC85\Phase 1\Phase1---Little-Lost-Robot\Distro\pfilter prob.nxc"
0	1137	1485	#line 1137 "C:\Users\Sakeeb\Documents\School\Fall 2017\CSCC85\Phase 1\Phase1---Little-Lost-Robot\Distro\pfilter prob.nxc"
0	1138	1485		set __D0main, 60
0	1137	1488	#line 1137 "C:\Users\Sakeeb\Documents\School\Fall 2017\CSCC85\Phase 1\Phase1---Little-Lost-Robot\Distro\pfilter prob.nxc"
0	1138	1488		cmp 0, __D0main, __signed_stack_001main, __D0main
0	1137	1492	#line 1137 "C:\Users\Sakeeb\Documents\School\Fall 2017\CSCC85\Phase 1\Phase1---Little-Lost-Robot\Distro\pfilter prob.nxc"
0	1138	1492		brtst 4, __ASM_Label_1970, __D0main
0	1137	1495	#line 1137 "C:\Users\Sakeeb\Documents\School\Fall 2017\CSCC85\Phase 1\Phase1---Little-Lost-Robot\Distro\pfilter prob.nxc"
0	1138	1495		jmp __ASM_Label_1971
0	1137	1497	#line 1137 "C:\Users\Sakeeb\Documents\School\Fall 2017\CSCC85\Phase 1\Phase1---Little-Lost-Robot\Distro\pfilter prob.nxc"
0	1138	1497		mov __signed_stack_001main, __main_7qG2_i_7qG2_000
0	1137	1500	#line 1137 "C:\Users\Sakeeb\Documents\School\Fall 2017\CSCC85\Phase 1\Phase1---Little-Lost-Robot\Distro\pfilter prob.nxc"
0	1137	1500	#line 1137 "C:\Users\Sakeeb\Documents\School\Fall 2017\CSCC85\Phase 1\Phase1---Little-Lost-Robot\Distro\pfilter prob.nxc"
0	1138	1500		set __D0main, 1
0	1137	1503	#line 1137 "C:\Users\Sakeeb\Documents\School\Fall 2017\CSCC85\Phase 1\Phase1---Little-Lost-Robot\Distro\pfilter prob.nxc"
0	1138	1503		add __main_7qG2_i_7qG2_000, __signed_stack_001main, __D0main
0	1137	1507	#line 1137 "C:\Users\Sakeeb\Documents\School\Fall 2017\CSCC85\Phase 1\Phase1---Little-Lost-Robot\Distro\pfilter prob.nxc"
0	1138	1507	#line 1138 "C:\Users\Sakeeb\Documents\School\Fall 2017\CSCC85\Phase 1\Phase1---Little-Lost-Robot\Distro\pfilter prob.nxc"
0	1139	1507		jmp __ASM_Label_1969
0	1138	1509	#line 1138 "C:\Users\Sakeeb\Documents\School\Fall 2017\CSCC85\Phase 1\Phase1---Little-Lost-Robot\Distro\pfilter prob.nxc"
0	1139	1509		mov __signed_stack_001main, __main_7qG2_i_7qG2_000
0	1138	1512	#line 1138 "C:\Users\Sakeeb\Documents\School\Fall 2017\CSCC85\Phase 1\Phase1---Little-Lost-Robot\Distro\pfilter prob.nxc"
0	1138	1512	#line 1138 "C:\Users\Sakeeb\Documents\School\Fall 2017\CSCC85\Phase 1\Phase1---Little-Lost-Robot\Distro\pfilter prob.nxc"
0	1139	1512		index __ArrHelper__mainparticle_219_0, __main_7qG2_list_7qG2_000, __signed_stack_001main
0	1138	1516	#line 1138 "C:\Users\Sakeeb\Documents\School\Fall 2017\CSCC85\Phase 1\Phase1---Little-Lost-Robot\Distro\pfilter prob.nxc"
0	1139	1516		mov __signed_stack_002main, __main_7qG2_i_7qG2_000
0	1138	1518	#line 1138 "C:\Users\Sakeeb\Documents\School\Fall 2017\CSCC85\Phase 1\Phase1---Little-Lost-Robot\Distro\pfilter prob.nxc"
0	1138	1518	#line 1138 "C:\Users\Sakeeb\Documents\School\Fall 2017\CSCC85\Phase 1\Phase1---Little-Lost-Robot\Distro\pfilter prob.nxc"
0	1139	1518		index __ArrHelper__mainparticle_219_1, __main_7qG2_list_7qG2_000, __signed_stack_002main
0	1138	1522	#line 1138 "C:\Users\Sakeeb\Documents\School\Fall 2017\CSCC85\Phase 1\Phase1---Little-Lost-Robot\Distro\pfilter prob.nxc"
0	1138	1522	#line 1138 "C:\Users\Sakeeb\Documents\School\Fall 2017\CSCC85\Phase 1\Phase1---Little-Lost-Robot\Distro\pfilter prob.nxc"
0	1139	1522	#line 1139 "C:\Users\Sakeeb\Documents\School\Fall 2017\CSCC85\Phase 1\Phase1---Little-Lost-Robot\Distro\pfilter prob.nxc"
0	1139	1522	#line 1139 "C:\Users\Sakeeb\Documents\School\Fall 2017\CSCC85\Phase 1\Phase1---Little-Lost-Robot\Distro\pfilter prob.nxc"
0	1140	1522		div __ArrHelper__mainparticle_219_0.prob, __ArrHelper__mainparticle_219_1.prob, __main_7qG2_totalprob_7qG2_000
0	1139	1526	#line 1139 "C:\Users\Sakeeb\Documents\School\Fall 2017\CSCC85\Phase 1\Phase1---Little-Lost-Robot\Distro\pfilter prob.nxc"
0	1139	1526	#line 1139 "C:\Users\Sakeeb\Documents\School\Fall 2017\CSCC85\Phase 1\Phase1---Little-Lost-Robot\Distro\pfilter prob.nxc"
0	1140	1526		replace __main_7qG2_list_7qG2_000, __main_7qG2_list_7qG2_000, __signed_stack_001main, __ArrHelper__mainparticle_219_0
0	1139	1531	#line 1139 "C:\Users\Sakeeb\Documents\School\Fall 2017\CSCC85\Phase 1\Phase1---Little-Lost-Robot\Distro\pfilter prob.nxc"
0	1142	1531	#line 1142 "C:\Users\Sakeeb\Documents\School\Fall 2017\CSCC85\Phase 1\Phase1---Little-Lost-Robot\Distro\pfilter prob.nxc"
0	1143	1531		jmp __ASM_Label_1972
0	1142	1533	#line 1142 "C:\Users\Sakeeb\Documents\School\Fall 2017\CSCC85\Phase 1\Phase1---Little-Lost-Robot\Distro\pfilter prob.nxc"
0	1142	1533	#line 1142 "C:\Users\Sakeeb\Documents\School\Fall 2017\CSCC85\Phase 1\Phase1---Little-Lost-Robot\Distro\pfilter prob.nxc"
0	1143	1533		set __Wait_7qG2_ms_7qG2_000_inline_main, 500
0	1142	1536	#line 1142 "C:\Users\Sakeeb\Documents\School\Fall 2017\CSCC85\Phase 1\Phase1---Little-Lost-Robot\Distro\pfilter prob.nxc"
0	8551	1536	#line 8551 "NXCDefs.h"
0	8552	1536		wait2 NA, __Wait_7qG2_ms_7qG2_000_inline_main
0	8551	1539	#line 8551 "NXCDefs.h"
0	1143	1539	#line 1143 "C:\Users\Sakeeb\Documents\School\Fall 2017\CSCC85\Phase 1\Phase1---Little-Lost-Robot\Distro\pfilter prob.nxc"
0	1143	1539	#line 1143 "C:\Users\Sakeeb\Documents\School\Fall 2017\CSCC85\Phase 1\Phase1---Little-Lost-Robot\Distro\pfilter prob.nxc"
0	1144	1539		set __moveForward_7qG2_seconds_7qG2_000, 8
0	1143	1542	#line 1143 "C:\Users\Sakeeb\Documents\School\Fall 2017\CSCC85\Phase 1\Phase1---Little-Lost-Robot\Distro\pfilter prob.nxc"
0	1144	1542	#line 1144 "C:\Users\Sakeeb\Documents\School\Fall 2017\CSCC85\Phase 1\Phase1---Little-Lost-Robot\Distro\pfilter prob.nxc"
0	1145	1542		subcall moveForward, __moveForward_return
0	1144	1545	#line 1144 "C:\Users\Sakeeb\Documents\School\Fall 2017\CSCC85\Phase 1\Phase1---Little-Lost-Robot\Distro\pfilter prob.nxc"
0	1144	1545	#line 1144 "C:\Users\Sakeeb\Documents\School\Fall 2017\CSCC85\Phase 1\Phase1---Little-Lost-Robot\Distro\pfilter prob.nxc"
0	1145	1545		set __Wait_7qG2_ms_7qG2_000_inline_main, 500
0	1144	1548	#line 1144 "C:\Users\Sakeeb\Documents\School\Fall 2017\CSCC85\Phase 1\Phase1---Little-Lost-Robot\Distro\pfilter prob.nxc"
0	8551	1548	#line 8551 "NXCDefs.h"
0	8552	1548		wait2 NA, __Wait_7qG2_ms_7qG2_000_inline_main
0	8551	1551	#line 8551 "NXCDefs.h"
0	1147	1551	#line 1147 "C:\Users\Sakeeb\Documents\School\Fall 2017\CSCC85\Phase 1\Phase1---Little-Lost-Robot\Distro\pfilter prob.nxc"
0	1147	1551	#line 1147 "C:\Users\Sakeeb\Documents\School\Fall 2017\CSCC85\Phase 1\Phase1---Little-Lost-Robot\Distro\pfilter prob.nxc"
0	1148	1551		set __D0main, 3
0	1148	1554	#line 1148 "C:\Users\Sakeeb\Documents\School\Fall 2017\CSCC85\Phase 1\Phase1---Little-Lost-Robot\Distro\pfilter prob.nxc"
0	1149	1554	#pragma macro 7
0	1149	1554		syscall 24, __RandomArgs
0	1149	1557		add __RandomTmp, __RandomArgs.Result, __constVal32768
0	1149	1561		mul __RandomTmp, __RandomTmp, __D0main
0	1149	1565		div __RandomTmp, __RandomTmp, __constVal65536
0	1149	1569		mov __main_7qG2_dir_7qG2_000, __RandomTmp
0	12743	1571	#line 12743 "C:\Users\Sakeeb\Documents\School\Fall 2017\CSCC85\Phase 1\Phase1---Little-Lost-Robot\Distro\pfilter prob.nxc"
0	1148	1571	#line 1148 "C:\Users\Sakeeb\Documents\School\Fall 2017\CSCC85\Phase 1\Phase1---Little-Lost-Robot\Distro\pfilter prob.nxc"
0	1148	1571	#line 1148 "C:\Users\Sakeeb\Documents\School\Fall 2017\CSCC85\Phase 1\Phase1---Little-Lost-Robot\Distro\pfilter prob.nxc"
0	1148	1571	#line 1148 "C:\Users\Sakeeb\Documents\School\Fall 2017\CSCC85\Phase 1\Phase1---Little-Lost-Robot\Distro\pfilter prob.nxc"
0	1149	1571		mov __signed_stack_001main, __main_7qG2_dir_7qG2_000
0	1148	1573	#line 1148 "C:\Users\Sakeeb\Documents\School\Fall 2017\CSCC85\Phase 1\Phase1---Little-Lost-Robot\Distro\pfilter prob.nxc"
0	1148	1573	#line 1148 "C:\Users\Sakeeb\Documents\School\Fall 2017\CSCC85\Phase 1\Phase1---Little-Lost-Robot\Distro\pfilter prob.nxc"
0	1149	1573		set __D0main, 0
0	1148	1576	#line 1148 "C:\Users\Sakeeb\Documents\School\Fall 2017\CSCC85\Phase 1\Phase1---Little-Lost-Robot\Distro\pfilter prob.nxc"
0	1149	1576		cmp 4, __D0main, __signed_stack_001main, __D0main
0	1149	1580	#line 1149 "C:\Users\Sakeeb\Documents\School\Fall 2017\CSCC85\Phase 1\Phase1---Little-Lost-Robot\Distro\pfilter prob.nxc"
0	1150	1580		brtst 4, __ASM_Label_1997, __D0main
0	1149	1583	#line 1149 "C:\Users\Sakeeb\Documents\School\Fall 2017\CSCC85\Phase 1\Phase1---Little-Lost-Robot\Distro\pfilter prob.nxc"
0	1150	1583		set __turnRight_7qG2_degree_7qG2_000, 80
0	1149	1586	#line 1149 "C:\Users\Sakeeb\Documents\School\Fall 2017\CSCC85\Phase 1\Phase1---Little-Lost-Robot\Distro\pfilter prob.nxc"
0	1150	1586	#line 1150 "C:\Users\Sakeeb\Documents\School\Fall 2017\CSCC85\Phase 1\Phase1---Little-Lost-Robot\Distro\pfilter prob.nxc"
0	1151	1586		subcall turnRight, __turnRight_return
0	1150	1589	#line 1150 "C:\Users\Sakeeb\Documents\School\Fall 2017\CSCC85\Phase 1\Phase1---Little-Lost-Robot\Distro\pfilter prob.nxc"
0	1151	1589	#line 1151 "C:\Users\Sakeeb\Documents\School\Fall 2017\CSCC85\Phase 1\Phase1---Little-Lost-Robot\Distro\pfilter prob.nxc"
0	1152	1589		jmp __ASM_Label_2000
0	1151	1591	#line 1151 "C:\Users\Sakeeb\Documents\School\Fall 2017\CSCC85\Phase 1\Phase1---Little-Lost-Robot\Distro\pfilter prob.nxc"
0	1152	1591		mov __signed_stack_001main, __main_7qG2_dir_7qG2_000
0	1151	1593	#line 1151 "C:\Users\Sakeeb\Documents\School\Fall 2017\CSCC85\Phase 1\Phase1---Little-Lost-Robot\Distro\pfilter prob.nxc"
0	1151	1593	#line 1151 "C:\Users\Sakeeb\Documents\School\Fall 2017\CSCC85\Phase 1\Phase1---Little-Lost-Robot\Distro\pfilter prob.nxc"
0	1152	1593		set __D0main, 1
0	1151	1596	#line 1151 "C:\Users\Sakeeb\Documents\School\Fall 2017\CSCC85\Phase 1\Phase1---Little-Lost-Robot\Distro\pfilter prob.nxc"
0	1152	1596		cmp 4, __D0main, __signed_stack_001main, __D0main
0	1152	1600	#line 1152 "C:\Users\Sakeeb\Documents\School\Fall 2017\CSCC85\Phase 1\Phase1---Little-Lost-Robot\Distro\pfilter prob.nxc"
0	1153	1600		brtst 4, __ASM_Label_2003, __D0main
0	1152	1603	#line 1152 "C:\Users\Sakeeb\Documents\School\Fall 2017\CSCC85\Phase 1\Phase1---Little-Lost-Robot\Distro\pfilter prob.nxc"
0	1153	1603		set __turnLeft_7qG2_degree_7qG2_000, 80
0	1152	1606	#line 1152 "C:\Users\Sakeeb\Documents\School\Fall 2017\CSCC85\Phase 1\Phase1---Little-Lost-Robot\Distro\pfilter prob.nxc"
0	1153	1606	#line 1153 "C:\Users\Sakeeb\Documents\School\Fall 2017\CSCC85\Phase 1\Phase1---Little-Lost-Robot\Distro\pfilter prob.nxc"
0	1154	1606		subcall turnLeft, __turnLeft_return
0	1153	1609	#line 1153 "C:\Users\Sakeeb\Documents\School\Fall 2017\CSCC85\Phase 1\Phase1---Little-Lost-Robot\Distro\pfilter prob.nxc"
0	1155	1609	#line 1155 "C:\Users\Sakeeb\Documents\School\Fall 2017\CSCC85\Phase 1\Phase1---Little-Lost-Robot\Distro\pfilter prob.nxc"
0	1155	1609	#line 1155 "C:\Users\Sakeeb\Documents\School\Fall 2017\CSCC85\Phase 1\Phase1---Little-Lost-Robot\Distro\pfilter prob.nxc"
0	1155	1609	#line 1155 "C:\Users\Sakeeb\Documents\School\Fall 2017\CSCC85\Phase 1\Phase1---Little-Lost-Robot\Distro\pfilter prob.nxc"
0	1156	1609		set __main_7qG2_i_7qG2_000, 0
0	1155	1612	#line 1155 "C:\Users\Sakeeb\Documents\School\Fall 2017\CSCC85\Phase 1\Phase1---Little-Lost-Robot\Distro\pfilter prob.nxc"
0	1155	1612	#line 1155 "C:\Users\Sakeeb\Documents\School\Fall 2017\CSCC85\Phase 1\Phase1---Little-Lost-Robot\Distro\pfilter prob.nxc"
0	1156	1612		mov __signed_stack_001main, __main_7qG2_i_7qG2_000
0	1155	1615	#line 1155 "C:\Users\Sakeeb\Documents\School\Fall 2017\CSCC85\Phase 1\Phase1---Little-Lost-Robot\Distro\pfilter prob.nxc"
0	1155	1615	#line 1155 "C:\Users\Sakeeb\Documents\School\Fall 2017\CSCC85\Phase 1\Phase1---Little-Lost-Robot\Distro\pfilter prob.nxc"
0	1156	1615		set __D0main, 60
0	1155	1618	#line 1155 "C:\Users\Sakeeb\Documents\School\Fall 2017\CSCC85\Phase 1\Phase1---Little-Lost-Robot\Distro\pfilter prob.nxc"
0	1156	1618		cmp 0, __D0main, __signed_stack_001main, __D0main
0	1155	1622	#line 1155 "C:\Users\Sakeeb\Documents\School\Fall 2017\CSCC85\Phase 1\Phase1---Little-Lost-Robot\Distro\pfilter prob.nxc"
0	1156	1622		brtst 4, __ASM_Label_2007, __D0main
0	1155	1625	#line 1155 "C:\Users\Sakeeb\Documents\School\Fall 2017\CSCC85\Phase 1\Phase1---Little-Lost-Robot\Distro\pfilter prob.nxc"
0	1156	1625		jmp __ASM_Label_2008
0	1155	1627	#line 1155 "C:\Users\Sakeeb\Documents\School\Fall 2017\CSCC85\Phase 1\Phase1---Little-Lost-Robot\Distro\pfilter prob.nxc"
0	1156	1627		mov __signed_stack_001main, __main_7qG2_i_7qG2_000
0	1155	1630	#line 1155 "C:\Users\Sakeeb\Documents\School\Fall 2017\CSCC85\Phase 1\Phase1---Little-Lost-Robot\Distro\pfilter prob.nxc"
0	1155	1630	#line 1155 "C:\Users\Sakeeb\Documents\School\Fall 2017\CSCC85\Phase 1\Phase1---Little-Lost-Robot\Distro\pfilter prob.nxc"
0	1156	1630		set __D0main, 1
0	1155	1633	#line 1155 "C:\Users\Sakeeb\Documents\School\Fall 2017\CSCC85\Phase 1\Phase1---Little-Lost-Robot\Distro\pfilter prob.nxc"
0	1156	1633		add __main_7qG2_i_7qG2_000, __signed_stack_001main, __D0main
0	1155	1637	#line 1155 "C:\Users\Sakeeb\Documents\School\Fall 2017\CSCC85\Phase 1\Phase1---Little-Lost-Robot\Distro\pfilter prob.nxc"
0	1157	1637	#line 1157 "C:\Users\Sakeeb\Documents\School\Fall 2017\CSCC85\Phase 1\Phase1---Little-Lost-Robot\Distro\pfilter prob.nxc"
0	1158	1637		jmp __ASM_Label_2006
0	1157	1639	#line 1157 "C:\Users\Sakeeb\Documents\School\Fall 2017\CSCC85\Phase 1\Phase1---Little-Lost-Robot\Distro\pfilter prob.nxc"
0	1158	1639		mov __signed_stack_001main, __main_7qG2_dir_7qG2_000
0	1157	1641	#line 1157 "C:\Users\Sakeeb\Documents\School\Fall 2017\CSCC85\Phase 1\Phase1---Little-Lost-Robot\Distro\pfilter prob.nxc"
0	1157	1641	#line 1157 "C:\Users\Sakeeb\Documents\School\Fall 2017\CSCC85\Phase 1\Phase1---Little-Lost-Robot\Distro\pfilter prob.nxc"
0	1158	1641		set __D0main, 0
0	1157	1644	#line 1157 "C:\Users\Sakeeb\Documents\School\Fall 2017\CSCC85\Phase 1\Phase1---Little-Lost-Robot\Distro\pfilter prob.nxc"
0	1158	1644		cmp 4, __D0main, __signed_stack_001main, __D0main
0	1158	1648	#line 1158 "C:\Users\Sakeeb\Documents\School\Fall 2017\CSCC85\Phase 1\Phase1---Little-Lost-Robot\Distro\pfilter prob.nxc"
0	1159	1648		brtst 4, __ASM_Label_2018, __D0main
0	1158	1651	#line 1158 "C:\Users\Sakeeb\Documents\School\Fall 2017\CSCC85\Phase 1\Phase1---Little-Lost-Robot\Distro\pfilter prob.nxc"
0	1159	1651		mov __signed_stack_001main, __main_7qG2_i_7qG2_000
0	1158	1654	#line 1158 "C:\Users\Sakeeb\Documents\School\Fall 2017\CSCC85\Phase 1\Phase1---Little-Lost-Robot\Distro\pfilter prob.nxc"
0	1158	1654	#line 1158 "C:\Users\Sakeeb\Documents\School\Fall 2017\CSCC85\Phase 1\Phase1---Little-Lost-Robot\Distro\pfilter prob.nxc"
0	1159	1654		index __ArrHelper__mainparticle_219_0, __main_7qG2_list_7qG2_000, __signed_stack_001main
0	1158	1658	#line 1158 "C:\Users\Sakeeb\Documents\School\Fall 2017\CSCC85\Phase 1\Phase1---Little-Lost-Robot\Distro\pfilter prob.nxc"
0	1159	1658		mov __signed_stack_002main, __main_7qG2_i_7qG2_000
0	1158	1660	#line 1158 "C:\Users\Sakeeb\Documents\School\Fall 2017\CSCC85\Phase 1\Phase1---Little-Lost-Robot\Distro\pfilter prob.nxc"
0	1158	1660	#line 1158 "C:\Users\Sakeeb\Documents\School\Fall 2017\CSCC85\Phase 1\Phase1---Little-Lost-Robot\Distro\pfilter prob.nxc"
0	1159	1660		index __ArrHelper__mainparticle_219_1, __main_7qG2_list_7qG2_000, __signed_stack_002main
0	1158	1664	#line 1158 "C:\Users\Sakeeb\Documents\School\Fall 2017\CSCC85\Phase 1\Phase1---Little-Lost-Robot\Distro\pfilter prob.nxc"
0	1159	1664		mov __signed_stack_002main, __ArrHelper__mainparticle_219_1.theta
0	1158	1667	#line 1158 "C:\Users\Sakeeb\Documents\School\Fall 2017\CSCC85\Phase 1\Phase1---Little-Lost-Robot\Distro\pfilter prob.nxc"
0	1158	1667	#line 1158 "C:\Users\Sakeeb\Documents\School\Fall 2017\CSCC85\Phase 1\Phase1---Little-Lost-Robot\Distro\pfilter prob.nxc"
0	1159	1667		set __D0main, 100
0	1158	1670	#line 1158 "C:\Users\Sakeeb\Documents\School\Fall 2017\CSCC85\Phase 1\Phase1---Little-Lost-Robot\Distro\pfilter prob.nxc"
0	1159	1670		sub __signed_stack_002main, __signed_stack_002main, __D0main
0	1158	1674	#line 1158 "C:\Users\Sakeeb\Documents\School\Fall 2017\CSCC85\Phase 1\Phase1---Little-Lost-Robot\Distro\pfilter prob.nxc"
0	1158	1674	#line 1158 "C:\Users\Sakeeb\Documents\School\Fall 2017\CSCC85\Phase 1\Phase1---Little-Lost-Robot\Distro\pfilter prob.nxc"
0	1159	1674		set __D0main, 1
0	1158	1677	#line 1158 "C:\Users\Sakeeb\Documents\School\Fall 2017\CSCC85\Phase 1\Phase1---Little-Lost-Robot\Distro\pfilter prob.nxc"
0	1159	1677		add __signed_stack_002main, __signed_stack_002main, __D0main
0	1158	1681	#line 1158 "C:\Users\Sakeeb\Documents\School\Fall 2017\CSCC85\Phase 1\Phase1---Little-Lost-Robot\Distro\pfilter prob.nxc"
0	1158	1681	#line 1158 "C:\Users\Sakeeb\Documents\School\Fall 2017\CSCC85\Phase 1\Phase1---Little-Lost-Robot\Distro\pfilter prob.nxc"
0	1159	1681		set __D0main, 4
0	1158	1684	#line 1158 "C:\Users\Sakeeb\Documents\School\Fall 2017\CSCC85\Phase 1\Phase1---Little-Lost-Robot\Distro\pfilter prob.nxc"
0	1159	1684		mod __signed_stack_002main, __signed_stack_002main, __D0main
0	1158	1688	#line 1158 "C:\Users\Sakeeb\Documents\School\Fall 2017\CSCC85\Phase 1\Phase1---Little-Lost-Robot\Distro\pfilter prob.nxc"
0	1158	1688	#line 1158 "C:\Users\Sakeeb\Documents\School\Fall 2017\CSCC85\Phase 1\Phase1---Little-Lost-Robot\Distro\pfilter prob.nxc"
0	1159	1688		set __D0main, 100
0	1158	1691	#line 1158 "C:\Users\Sakeeb\Documents\School\Fall 2017\CSCC85\Phase 1\Phase1---Little-Lost-Robot\Distro\pfilter prob.nxc"
0	1159	1691		add __ArrHelper__mainparticle_219_0.theta, __signed_stack_002main, __D0main
0	1159	1695	#line 1159 "C:\Users\Sakeeb\Documents\School\Fall 2017\CSCC85\Phase 1\Phase1---Little-Lost-Robot\Distro\pfilter prob.nxc"
0	1159	1695	#line 1159 "C:\Users\Sakeeb\Documents\School\Fall 2017\CSCC85\Phase 1\Phase1---Little-Lost-Robot\Distro\pfilter prob.nxc"
0	1160	1695		replace __main_7qG2_list_7qG2_000, __main_7qG2_list_7qG2_000, __signed_stack_001main, __ArrHelper__mainparticle_219_0
0	1159	1700	#line 1159 "C:\Users\Sakeeb\Documents\School\Fall 2017\CSCC85\Phase 1\Phase1---Little-Lost-Robot\Distro\pfilter prob.nxc"
0	1160	1700	#line 1160 "C:\Users\Sakeeb\Documents\School\Fall 2017\CSCC85\Phase 1\Phase1---Little-Lost-Robot\Distro\pfilter prob.nxc"
0	1161	1700		jmp __ASM_Label_2033
0	1160	1702	#line 1160 "C:\Users\Sakeeb\Documents\School\Fall 2017\CSCC85\Phase 1\Phase1---Little-Lost-Robot\Distro\pfilter prob.nxc"
0	1161	1702		mov __signed_stack_001main, __main_7qG2_dir_7qG2_000
0	1160	1704	#line 1160 "C:\Users\Sakeeb\Documents\School\Fall 2017\CSCC85\Phase 1\Phase1---Little-Lost-Robot\Distro\pfilter prob.nxc"
0	1160	1704	#line 1160 "C:\Users\Sakeeb\Documents\School\Fall 2017\CSCC85\Phase 1\Phase1---Little-Lost-Robot\Distro\pfilter prob.nxc"
0	1161	1704		set __D0main, 1
0	1160	1707	#line 1160 "C:\Users\Sakeeb\Documents\School\Fall 2017\CSCC85\Phase 1\Phase1---Little-Lost-Robot\Distro\pfilter prob.nxc"
0	1161	1707		cmp 4, __D0main, __signed_stack_001main, __D0main
0	1161	1711	#line 1161 "C:\Users\Sakeeb\Documents\School\Fall 2017\CSCC85\Phase 1\Phase1---Little-Lost-Robot\Distro\pfilter prob.nxc"
0	1162	1711		brtst 4, __ASM_Label_2036, __D0main
0	1161	1714	#line 1161 "C:\Users\Sakeeb\Documents\School\Fall 2017\CSCC85\Phase 1\Phase1---Little-Lost-Robot\Distro\pfilter prob.nxc"
0	1162	1714		mov __signed_stack_001main, __main_7qG2_i_7qG2_000
0	1161	1717	#line 1161 "C:\Users\Sakeeb\Documents\School\Fall 2017\CSCC85\Phase 1\Phase1---Little-Lost-Robot\Distro\pfilter prob.nxc"
0	1161	1717	#line 1161 "C:\Users\Sakeeb\Documents\School\Fall 2017\CSCC85\Phase 1\Phase1---Little-Lost-Robot\Distro\pfilter prob.nxc"
0	1162	1717		index __ArrHelper__mainparticle_219_0, __main_7qG2_list_7qG2_000, __signed_stack_001main
0	1161	1721	#line 1161 "C:\Users\Sakeeb\Documents\School\Fall 2017\CSCC85\Phase 1\Phase1---Little-Lost-Robot\Distro\pfilter prob.nxc"
0	1162	1721		mov __signed_stack_002main, __main_7qG2_i_7qG2_000
0	1161	1723	#line 1161 "C:\Users\Sakeeb\Documents\School\Fall 2017\CSCC85\Phase 1\Phase1---Little-Lost-Robot\Distro\pfilter prob.nxc"
0	1161	1723	#line 1161 "C:\Users\Sakeeb\Documents\School\Fall 2017\CSCC85\Phase 1\Phase1---Little-Lost-Robot\Distro\pfilter prob.nxc"
0	1162	1723		index __ArrHelper__mainparticle_219_1, __main_7qG2_list_7qG2_000, __signed_stack_002main
0	1161	1727	#line 1161 "C:\Users\Sakeeb\Documents\School\Fall 2017\CSCC85\Phase 1\Phase1---Little-Lost-Robot\Distro\pfilter prob.nxc"
0	1162	1727		mov __signed_stack_002main, __ArrHelper__mainparticle_219_1.theta
0	1161	1730	#line 1161 "C:\Users\Sakeeb\Documents\School\Fall 2017\CSCC85\Phase 1\Phase1---Little-Lost-Robot\Distro\pfilter prob.nxc"
0	1161	1730	#line 1161 "C:\Users\Sakeeb\Documents\School\Fall 2017\CSCC85\Phase 1\Phase1---Little-Lost-Robot\Distro\pfilter prob.nxc"
0	1162	1730		set __D0main, 100
0	1161	1733	#line 1161 "C:\Users\Sakeeb\Documents\School\Fall 2017\CSCC85\Phase 1\Phase1---Little-Lost-Robot\Distro\pfilter prob.nxc"
0	1162	1733		sub __signed_stack_002main, __signed_stack_002main, __D0main
0	1161	1737	#line 1161 "C:\Users\Sakeeb\Documents\School\Fall 2017\CSCC85\Phase 1\Phase1---Little-Lost-Robot\Distro\pfilter prob.nxc"
0	1161	1737	#line 1161 "C:\Users\Sakeeb\Documents\School\Fall 2017\CSCC85\Phase 1\Phase1---Little-Lost-Robot\Distro\pfilter prob.nxc"
0	1162	1737		set __D0main, 1
0	1161	1740	#line 1161 "C:\Users\Sakeeb\Documents\School\Fall 2017\CSCC85\Phase 1\Phase1---Little-Lost-Robot\Distro\pfilter prob.nxc"
0	1162	1740		sub __signed_stack_002main, __signed_stack_002main, __D0main
0	1161	1744	#line 1161 "C:\Users\Sakeeb\Documents\School\Fall 2017\CSCC85\Phase 1\Phase1---Little-Lost-Robot\Distro\pfilter prob.nxc"
0	1161	1744	#line 1161 "C:\Users\Sakeeb\Documents\School\Fall 2017\CSCC85\Phase 1\Phase1---Little-Lost-Robot\Distro\pfilter prob.nxc"
0	1162	1744		set __D0main, 4
0	1161	1747	#line 1161 "C:\Users\Sakeeb\Documents\School\Fall 2017\CSCC85\Phase 1\Phase1---Little-Lost-Robot\Distro\pfilter prob.nxc"
0	1162	1747		mod __signed_stack_002main, __signed_stack_002main, __D0main
0	1161	1751	#line 1161 "C:\Users\Sakeeb\Documents\School\Fall 2017\CSCC85\Phase 1\Phase1---Little-Lost-Robot\Distro\pfilter prob.nxc"
0	1161	1751	#line 1161 "C:\Users\Sakeeb\Documents\School\Fall 2017\CSCC85\Phase 1\Phase1---Little-Lost-Robot\Distro\pfilter prob.nxc"
0	1162	1751		set __D0main, 100
0	1161	1754	#line 1161 "C:\Users\Sakeeb\Documents\School\Fall 2017\CSCC85\Phase 1\Phase1---Little-Lost-Robot\Distro\pfilter prob.nxc"
0	1162	1754		add __ArrHelper__mainparticle_219_0.theta, __signed_stack_002main, __D0main
0	1162	1758	#line 1162 "C:\Users\Sakeeb\Documents\School\Fall 2017\CSCC85\Phase 1\Phase1---Little-Lost-Robot\Distro\pfilter prob.nxc"
0	1162	1758	#line 1162 "C:\Users\Sakeeb\Documents\School\Fall 2017\CSCC85\Phase 1\Phase1---Little-Lost-Robot\Distro\pfilter prob.nxc"
0	1163	1758		replace __main_7qG2_list_7qG2_000, __main_7qG2_list_7qG2_000, __signed_stack_001main, __ArrHelper__mainparticle_219_0
0	1162	1763	#line 1162 "C:\Users\Sakeeb\Documents\School\Fall 2017\CSCC85\Phase 1\Phase1---Little-Lost-Robot\Distro\pfilter prob.nxc"
0	1165	1763	#line 1165 "C:\Users\Sakeeb\Documents\School\Fall 2017\CSCC85\Phase 1\Phase1---Little-Lost-Robot\Distro\pfilter prob.nxc"
0	1165	1763	#line 1165 "C:\Users\Sakeeb\Documents\School\Fall 2017\CSCC85\Phase 1\Phase1---Little-Lost-Robot\Distro\pfilter prob.nxc"
0	1166	1763	#line 1166 "C:\Users\Sakeeb\Documents\School\Fall 2017\CSCC85\Phase 1\Phase1---Little-Lost-Robot\Distro\pfilter prob.nxc"
0	1167	1763		jmp __ASM_Label_2009
0	1166	1765	#line 1166 "C:\Users\Sakeeb\Documents\School\Fall 2017\CSCC85\Phase 1\Phase1---Little-Lost-Robot\Distro\pfilter prob.nxc"
0	1168	1765	#line 1168 "C:\Users\Sakeeb\Documents\School\Fall 2017\CSCC85\Phase 1\Phase1---Little-Lost-Robot\Distro\pfilter prob.nxc"
0	1168	1765	#line 1168 "C:\Users\Sakeeb\Documents\School\Fall 2017\CSCC85\Phase 1\Phase1---Little-Lost-Robot\Distro\pfilter prob.nxc"
0	1169	1765		jmp __ASM_Label_1789
0	1168	1767	#line 1168 "C:\Users\Sakeeb\Documents\School\Fall 2017\CSCC85\Phase 1\Phase1---Little-Lost-Robot\Distro\pfilter prob.nxc"
0	1168	1767	#line 1168 "C:\Users\Sakeeb\Documents\School\Fall 2017\CSCC85\Phase 1\Phase1---Little-Lost-Robot\Distro\pfilter prob.nxc"
0	1169	1767		mov __signed_stack_001main, __main_7qG2_dir_7qG2_000
0	1168	1769	#line 1168 "C:\Users\Sakeeb\Documents\School\Fall 2017\CSCC85\Phase 1\Phase1---Little-Lost-Robot\Distro\pfilter prob.nxc"
0	1168	1769	#line 1168 "C:\Users\Sakeeb\Documents\School\Fall 2017\CSCC85\Phase 1\Phase1---Little-Lost-Robot\Distro\pfilter prob.nxc"
0	1169	1769		set __D0main, 0
0	1168	1772	#line 1168 "C:\Users\Sakeeb\Documents\School\Fall 2017\CSCC85\Phase 1\Phase1---Little-Lost-Robot\Distro\pfilter prob.nxc"
0	1169	1772		cmp 4, __D0main, __signed_stack_001main, __D0main
0	1169	1776	#line 1169 "C:\Users\Sakeeb\Documents\School\Fall 2017\CSCC85\Phase 1\Phase1---Little-Lost-Robot\Distro\pfilter prob.nxc"
0	1170	1776		brtst 4, __ASM_Label_2053, __D0main
0	1169	1779	#line 1169 "C:\Users\Sakeeb\Documents\School\Fall 2017\CSCC85\Phase 1\Phase1---Little-Lost-Robot\Distro\pfilter prob.nxc"
0	1170	1779		set __signed_stack_001main, 2
0	1169	1782	#line 1169 "C:\Users\Sakeeb\Documents\School\Fall 2017\CSCC85\Phase 1\Phase1---Little-Lost-Robot\Distro\pfilter prob.nxc"
0	1169	1782	#line 1169 "C:\Users\Sakeeb\Documents\School\Fall 2017\CSCC85\Phase 1\Phase1---Little-Lost-Robot\Distro\pfilter prob.nxc"
0	1170	1782		set __signed_stack_002main, 2
0	1169	1785	#line 1169 "C:\Users\Sakeeb\Documents\School\Fall 2017\CSCC85\Phase 1\Phase1---Little-Lost-Robot\Distro\pfilter prob.nxc"
0	1169	1785	#line 1169 "C:\Users\Sakeeb\Documents\School\Fall 2017\CSCC85\Phase 1\Phase1---Little-Lost-Robot\Distro\pfilter prob.nxc"
0	1170	1785		index __signed_stack_002main, __main_7qG2_guess_7qG2_000, __signed_stack_002main
0	1169	1789	#line 1169 "C:\Users\Sakeeb\Documents\School\Fall 2017\CSCC85\Phase 1\Phase1---Little-Lost-Robot\Distro\pfilter prob.nxc"
0	1169	1789	#line 1169 "C:\Users\Sakeeb\Documents\School\Fall 2017\CSCC85\Phase 1\Phase1---Little-Lost-Robot\Distro\pfilter prob.nxc"
0	1169	1789	#line 1169 "C:\Users\Sakeeb\Documents\School\Fall 2017\CSCC85\Phase 1\Phase1---Little-Lost-Robot\Distro\pfilter prob.nxc"
0	1170	1789		set __D0main, 100
0	1169	1792	#line 1169 "C:\Users\Sakeeb\Documents\School\Fall 2017\CSCC85\Phase 1\Phase1---Little-Lost-Robot\Distro\pfilter prob.nxc"
0	1170	1792		sub __signed_stack_002main, __signed_stack_002main, __D0main
0	1169	1796	#line 1169 "C:\Users\Sakeeb\Documents\School\Fall 2017\CSCC85\Phase 1\Phase1---Little-Lost-Robot\Distro\pfilter prob.nxc"
0	1169	1796	#line 1169 "C:\Users\Sakeeb\Documents\School\Fall 2017\CSCC85\Phase 1\Phase1---Little-Lost-Robot\Distro\pfilter prob.nxc"
0	1170	1796		set __D0main, 1
0	1169	1799	#line 1169 "C:\Users\Sakeeb\Documents\School\Fall 2017\CSCC85\Phase 1\Phase1---Little-Lost-Robot\Distro\pfilter prob.nxc"
0	1170	1799		add __signed_stack_002main, __signed_stack_002main, __D0main
0	1169	1803	#line 1169 "C:\Users\Sakeeb\Documents\School\Fall 2017\CSCC85\Phase 1\Phase1---Little-Lost-Robot\Distro\pfilter prob.nxc"
0	1169	1803	#line 1169 "C:\Users\Sakeeb\Documents\School\Fall 2017\CSCC85\Phase 1\Phase1---Little-Lost-Robot\Distro\pfilter prob.nxc"
0	1170	1803		set __D0main, 4
0	1169	1806	#line 1169 "C:\Users\Sakeeb\Documents\School\Fall 2017\CSCC85\Phase 1\Phase1---Little-Lost-Robot\Distro\pfilter prob.nxc"
0	1170	1806		mod __signed_stack_002main, __signed_stack_002main, __D0main
0	1169	1810	#line 1169 "C:\Users\Sakeeb\Documents\School\Fall 2017\CSCC85\Phase 1\Phase1---Little-Lost-Robot\Distro\pfilter prob.nxc"
0	1169	1810	#line 1169 "C:\Users\Sakeeb\Documents\School\Fall 2017\CSCC85\Phase 1\Phase1---Little-Lost-Robot\Distro\pfilter prob.nxc"
0	1170	1810		set __D0main, 100
0	1169	1813	#line 1169 "C:\Users\Sakeeb\Documents\School\Fall 2017\CSCC85\Phase 1\Phase1---Little-Lost-Robot\Distro\pfilter prob.nxc"
0	1170	1813		add __D0main, __signed_stack_002main, __D0main
0	1170	1817	#line 1170 "C:\Users\Sakeeb\Documents\School\Fall 2017\CSCC85\Phase 1\Phase1---Little-Lost-Robot\Distro\pfilter prob.nxc"
0	1171	1817		replace __main_7qG2_guess_7qG2_000, __main_7qG2_guess_7qG2_000, __signed_stack_001main, __D0main
0	1170	1822	#line 1170 "C:\Users\Sakeeb\Documents\School\Fall 2017\CSCC85\Phase 1\Phase1---Little-Lost-Robot\Distro\pfilter prob.nxc"
0	1171	1822	#line 1171 "C:\Users\Sakeeb\Documents\School\Fall 2017\CSCC85\Phase 1\Phase1---Little-Lost-Robot\Distro\pfilter prob.nxc"
0	1172	1822		jmp __ASM_Label_2068
0	1171	1824	#line 1171 "C:\Users\Sakeeb\Documents\School\Fall 2017\CSCC85\Phase 1\Phase1---Little-Lost-Robot\Distro\pfilter prob.nxc"
0	1172	1824		mov __signed_stack_001main, __main_7qG2_dir_7qG2_000
0	1171	1826	#line 1171 "C:\Users\Sakeeb\Documents\School\Fall 2017\CSCC85\Phase 1\Phase1---Little-Lost-Robot\Distro\pfilter prob.nxc"
0	1171	1826	#line 1171 "C:\Users\Sakeeb\Documents\School\Fall 2017\CSCC85\Phase 1\Phase1---Little-Lost-Robot\Distro\pfilter prob.nxc"
0	1172	1826		set __D0main, 1
0	1171	1829	#line 1171 "C:\Users\Sakeeb\Documents\School\Fall 2017\CSCC85\Phase 1\Phase1---Little-Lost-Robot\Distro\pfilter prob.nxc"
0	1172	1829		cmp 4, __D0main, __signed_stack_001main, __D0main
0	1172	1833	#line 1172 "C:\Users\Sakeeb\Documents\School\Fall 2017\CSCC85\Phase 1\Phase1---Little-Lost-Robot\Distro\pfilter prob.nxc"
0	1173	1833		brtst 4, __ASM_Label_2071, __D0main
0	1172	1836	#line 1172 "C:\Users\Sakeeb\Documents\School\Fall 2017\CSCC85\Phase 1\Phase1---Little-Lost-Robot\Distro\pfilter prob.nxc"
0	1173	1836		set __signed_stack_001main, 2
0	1172	1839	#line 1172 "C:\Users\Sakeeb\Documents\School\Fall 2017\CSCC85\Phase 1\Phase1---Little-Lost-Robot\Distro\pfilter prob.nxc"
0	1172	1839	#line 1172 "C:\Users\Sakeeb\Documents\School\Fall 2017\CSCC85\Phase 1\Phase1---Little-Lost-Robot\Distro\pfilter prob.nxc"
0	1173	1839		set __signed_stack_002main, 2
0	1172	1842	#line 1172 "C:\Users\Sakeeb\Documents\School\Fall 2017\CSCC85\Phase 1\Phase1---Little-Lost-Robot\Distro\pfilter prob.nxc"
0	1172	1842	#line 1172 "C:\Users\Sakeeb\Documents\School\Fall 2017\CSCC85\Phase 1\Phase1---Little-Lost-Robot\Distro\pfilter prob.nxc"
0	1173	1842		index __signed_stack_002main, __main_7qG2_guess_7qG2_000, __signed_stack_002main
0	1172	1846	#line 1172 "C:\Users\Sakeeb\Documents\School\Fall 2017\CSCC85\Phase 1\Phase1---Little-Lost-Robot\Distro\pfilter prob.nxc"
0	1172	1846	#line 1172 "C:\Users\Sakeeb\Documents\School\Fall 2017\CSCC85\Phase 1\Phase1---Little-Lost-Robot\Distro\pfilter prob.nxc"
0	1172	1846	#line 1172 "C:\Users\Sakeeb\Documents\School\Fall 2017\CSCC85\Phase 1\Phase1---Little-Lost-Robot\Distro\pfilter prob.nxc"
0	1173	1846		set __D0main, 100
0	1172	1849	#line 1172 "C:\Users\Sakeeb\Documents\School\Fall 2017\CSCC85\Phase 1\Phase1---Little-Lost-Robot\Distro\pfilter prob.nxc"
0	1173	1849		sub __signed_stack_002main, __signed_stack_002main, __D0main
0	1172	1853	#line 1172 "C:\Users\Sakeeb\Documents\School\Fall 2017\CSCC85\Phase 1\Phase1---Little-Lost-Robot\Distro\pfilter prob.nxc"
0	1172	1853	#line 1172 "C:\Users\Sakeeb\Documents\School\Fall 2017\CSCC85\Phase 1\Phase1---Little-Lost-Robot\Distro\pfilter prob.nxc"
0	1173	1853		set __D0main, 1
0	1172	1856	#line 1172 "C:\Users\Sakeeb\Documents\School\Fall 2017\CSCC85\Phase 1\Phase1---Little-Lost-Robot\Distro\pfilter prob.nxc"
0	1173	1856		sub __signed_stack_002main, __signed_stack_002main, __D0main
0	1172	1860	#line 1172 "C:\Users\Sakeeb\Documents\School\Fall 2017\CSCC85\Phase 1\Phase1---Little-Lost-Robot\Distro\pfilter prob.nxc"
0	1172	1860	#line 1172 "C:\Users\Sakeeb\Documents\School\Fall 2017\CSCC85\Phase 1\Phase1---Little-Lost-Robot\Distro\pfilter prob.nxc"
0	1173	1860		set __D0main, 4
0	1172	1863	#line 1172 "C:\Users\Sakeeb\Documents\School\Fall 2017\CSCC85\Phase 1\Phase1---Little-Lost-Robot\Distro\pfilter prob.nxc"
0	1173	1863		mod __signed_stack_002main, __signed_stack_002main, __D0main
0	1172	1867	#line 1172 "C:\Users\Sakeeb\Documents\School\Fall 2017\CSCC85\Phase 1\Phase1---Little-Lost-Robot\Distro\pfilter prob.nxc"
0	1172	1867	#line 1172 "C:\Users\Sakeeb\Documents\School\Fall 2017\CSCC85\Phase 1\Phase1---Little-Lost-Robot\Distro\pfilter prob.nxc"
0	1173	1867		set __D0main, 100
0	1172	1870	#line 1172 "C:\Users\Sakeeb\Documents\School\Fall 2017\CSCC85\Phase 1\Phase1---Little-Lost-Robot\Distro\pfilter prob.nxc"
0	1173	1870		add __D0main, __signed_stack_002main, __D0main
0	1173	1874	#line 1173 "C:\Users\Sakeeb\Documents\School\Fall 2017\CSCC85\Phase 1\Phase1---Little-Lost-Robot\Distro\pfilter prob.nxc"
0	1174	1874		replace __main_7qG2_guess_7qG2_000, __main_7qG2_guess_7qG2_000, __signed_stack_001main, __D0main
0	1173	1879	#line 1173 "C:\Users\Sakeeb\Documents\School\Fall 2017\CSCC85\Phase 1\Phase1---Little-Lost-Robot\Distro\pfilter prob.nxc"
0	1175	1879	#line 1175 "C:\Users\Sakeeb\Documents\School\Fall 2017\CSCC85\Phase 1\Phase1---Little-Lost-Robot\Distro\pfilter prob.nxc"
0	1175	1879	#line 1175 "C:\Users\Sakeeb\Documents\School\Fall 2017\CSCC85\Phase 1\Phase1---Little-Lost-Robot\Distro\pfilter prob.nxc"
0	6678	1879	#line 6678 "NXCDefs.h"
0	6679	1879	#pragma macro 6
0	6679	1879		acquire __PointOutMutex
0	6679	1880		mov __PointOutArgs.Location.X, __constVal200
0	6679	1883		mov __PointOutArgs.Location.Y, __constVal200
0	6679	1886		mov __PointOutArgs.Options, __constVal1
0	6679	1888		syscall 14, __PointOutArgs
0	6679	1891		release __PointOutMutex
0	13190	1892	#line 13190 "NXCDefs.h"
0	6678	1892	#line 6678 "NXCDefs.h"
0	1176	1892	#line 1176 "C:\Users\Sakeeb\Documents\School\Fall 2017\CSCC85\Phase 1\Phase1---Little-Lost-Robot\Distro\pfilter prob.nxc"
0	1176	1892	#line 1176 "C:\Users\Sakeeb\Documents\School\Fall 2017\CSCC85\Phase 1\Phase1---Little-Lost-Robot\Distro\pfilter prob.nxc"
0	1177	1892		set __signed_stack_001main, 0
0	1176	1895	#line 1176 "C:\Users\Sakeeb\Documents\School\Fall 2017\CSCC85\Phase 1\Phase1---Little-Lost-Robot\Distro\pfilter prob.nxc"
0	1176	1895	#line 1176 "C:\Users\Sakeeb\Documents\School\Fall 2017\CSCC85\Phase 1\Phase1---Little-Lost-Robot\Distro\pfilter prob.nxc"
0	1177	1895		set __signed_stack_002main, 56
0	1176	1898	#line 1176 "C:\Users\Sakeeb\Documents\School\Fall 2017\CSCC85\Phase 1\Phase1---Little-Lost-Robot\Distro\pfilter prob.nxc"
0	1176	1898	#line 1176 "C:\Users\Sakeeb\Documents\School\Fall 2017\CSCC85\Phase 1\Phase1---Little-Lost-Robot\Distro\pfilter prob.nxc"
0	1177	1898		mov __ArrHelper__main_244_0, __constStr0021
0	1176	1900	#line 1176 "C:\Users\Sakeeb\Documents\School\Fall 2017\CSCC85\Phase 1\Phase1---Little-Lost-Robot\Distro\pfilter prob.nxc"
0	1177	1900		set __signed_stack_003main, 0
0	1176	1903	#line 1176 "C:\Users\Sakeeb\Documents\School\Fall 2017\CSCC85\Phase 1\Phase1---Little-Lost-Robot\Distro\pfilter prob.nxc"
0	1176	1903	#line 1176 "C:\Users\Sakeeb\Documents\School\Fall 2017\CSCC85\Phase 1\Phase1---Little-Lost-Robot\Distro\pfilter prob.nxc"
0	1177	1903		index __D0main, __main_7qG2_guess_7qG2_000, __signed_stack_003main
0	1176	1907	#line 1176 "C:\Users\Sakeeb\Documents\School\Fall 2017\CSCC85\Phase 1\Phase1---Little-Lost-Robot\Distro\pfilter prob.nxc"
0	1176	1907	#line 1176 "C:\Users\Sakeeb\Documents\School\Fall 2017\CSCC85\Phase 1\Phase1---Little-Lost-Robot\Distro\pfilter prob.nxc"
0	1177	1907		numtostr __strretvalmain, __D0main
0	1176	1910	#line 1176 "C:\Users\Sakeeb\Documents\School\Fall 2017\CSCC85\Phase 1\Phase1---Little-Lost-Robot\Distro\pfilter prob.nxc"
0	1177	1910		mov __ArrHelper__main_244_1, __strretvalmain
0	1176	1912	#line 1176 "C:\Users\Sakeeb\Documents\School\Fall 2017\CSCC85\Phase 1\Phase1---Little-Lost-Robot\Distro\pfilter prob.nxc"
0	1177	1912		mov __ArrHelper__main_244_2, __constStr0022
0	1176	1914	#line 1176 "C:\Users\Sakeeb\Documents\School\Fall 2017\CSCC85\Phase 1\Phase1---Little-Lost-Robot\Distro\pfilter prob.nxc"
0	1177	1914		set __signed_stack_003main, 1
0	1176	1917	#line 1176 "C:\Users\Sakeeb\Documents\School\Fall 2017\CSCC85\Phase 1\Phase1---Little-Lost-Robot\Distro\pfilter prob.nxc"
0	1176	1917	#line 1176 "C:\Users\Sakeeb\Documents\School\Fall 2017\CSCC85\Phase 1\Phase1---Little-Lost-Robot\Distro\pfilter prob.nxc"
0	1177	1917		index __D0main, __main_7qG2_guess_7qG2_000, __signed_stack_003main
0	1176	1921	#line 1176 "C:\Users\Sakeeb\Documents\School\Fall 2017\CSCC85\Phase 1\Phase1---Little-Lost-Robot\Distro\pfilter prob.nxc"
0	1176	1921	#line 1176 "C:\Users\Sakeeb\Documents\School\Fall 2017\CSCC85\Phase 1\Phase1---Little-Lost-Robot\Distro\pfilter prob.nxc"
0	1177	1921		numtostr __strretvalmain, __D0main
0	1176	1924	#line 1176 "C:\Users\Sakeeb\Documents\School\Fall 2017\CSCC85\Phase 1\Phase1---Little-Lost-Robot\Distro\pfilter prob.nxc"
0	1177	1924		mov __ArrHelper__main_244_3, __strretvalmain
0	1176	1926	#line 1176 "C:\Users\Sakeeb\Documents\School\Fall 2017\CSCC85\Phase 1\Phase1---Little-Lost-Robot\Distro\pfilter prob.nxc"
0	1177	1926		mov __ArrHelper__main_244_4, __constStr0020
0	1176	1928	#line 1176 "C:\Users\Sakeeb\Documents\School\Fall 2017\CSCC85\Phase 1\Phase1---Little-Lost-Robot\Distro\pfilter prob.nxc"
0	1177	1928		set __signed_stack_003main, 2
0	1176	1931	#line 1176 "C:\Users\Sakeeb\Documents\School\Fall 2017\CSCC85\Phase 1\Phase1---Little-Lost-Robot\Distro\pfilter prob.nxc"
0	1176	1931	#line 1176 "C:\Users\Sakeeb\Documents\School\Fall 2017\CSCC85\Phase 1\Phase1---Little-Lost-Robot\Distro\pfilter prob.nxc"
0	1177	1931		index __D0main, __main_7qG2_guess_7qG2_000, __signed_stack_003main
0	1176	1935	#line 1176 "C:\Users\Sakeeb\Documents\School\Fall 2017\CSCC85\Phase 1\Phase1---Little-Lost-Robot\Distro\pfilter prob.nxc"
0	1176	1935	#line 1176 "C:\Users\Sakeeb\Documents\School\Fall 2017\CSCC85\Phase 1\Phase1---Little-Lost-Robot\Distro\pfilter prob.nxc"
0	1177	1935		numtostr __strretvalmain, __D0main
0	1176	1938	#line 1176 "C:\Users\Sakeeb\Documents\School\Fall 2017\CSCC85\Phase 1\Phase1---Little-Lost-Robot\Distro\pfilter prob.nxc"
0	1177	1938		strcat __strbufmain, __strretvalmain
0	1176	1942	#line 1176 "C:\Users\Sakeeb\Documents\School\Fall 2017\CSCC85\Phase 1\Phase1---Little-Lost-Robot\Distro\pfilter prob.nxc"
0	1177	1942		mov __ArrHelper__main_244_5, __strbufmain
0	1176	1944	#line 1176 "C:\Users\Sakeeb\Documents\School\Fall 2017\CSCC85\Phase 1\Phase1---Little-Lost-Robot\Distro\pfilter prob.nxc"
0	1177	1944		strcat __strbufmain, __ArrHelper__main_244_4, __ArrHelper__main_244_5
0	1176	1949	#line 1176 "C:\Users\Sakeeb\Documents\School\Fall 2017\CSCC85\Phase 1\Phase1---Little-Lost-Robot\Distro\pfilter prob.nxc"
0	1177	1949		mov __ArrHelper__main_244_4, __strbufmain
0	1176	1951	#line 1176 "C:\Users\Sakeeb\Documents\School\Fall 2017\CSCC85\Phase 1\Phase1---Little-Lost-Robot\Distro\pfilter prob.nxc"
0	1177	1951		strcat __strbufmain, __ArrHelper__main_244_3, __ArrHelper__main_244_4
0	1176	1956	#line 1176 "C:\Users\Sakeeb\Documents\School\Fall 2017\CSCC85\Phase 1\Phase1---Little-Lost-Robot\Distro\pfilter prob.nxc"
0	1177	1956		mov __ArrHelper__main_244_3, __strbufmain
0	1176	1958	#line 1176 "C:\Users\Sakeeb\Documents\School\Fall 2017\CSCC85\Phase 1\Phase1---Little-Lost-Robot\Distro\pfilter prob.nxc"
0	1177	1958		strcat __strbufmain, __ArrHelper__main_244_2, __ArrHelper__main_244_3
0	1176	1963	#line 1176 "C:\Users\Sakeeb\Documents\School\Fall 2017\CSCC85\Phase 1\Phase1---Little-Lost-Robot\Distro\pfilter prob.nxc"
0	1177	1963		mov __ArrHelper__main_244_2, __strbufmain
0	1176	1965	#line 1176 "C:\Users\Sakeeb\Documents\School\Fall 2017\CSCC85\Phase 1\Phase1---Little-Lost-Robot\Distro\pfilter prob.nxc"
0	1177	1965		strcat __strbufmain, __ArrHelper__main_244_1, __ArrHelper__main_244_2
0	1176	1970	#line 1176 "C:\Users\Sakeeb\Documents\School\Fall 2017\CSCC85\Phase 1\Phase1---Little-Lost-Robot\Distro\pfilter prob.nxc"
0	1177	1970		mov __ArrHelper__main_244_1, __strbufmain
0	1176	1972	#line 1176 "C:\Users\Sakeeb\Documents\School\Fall 2017\CSCC85\Phase 1\Phase1---Little-Lost-Robot\Distro\pfilter prob.nxc"
0	1177	1972		strcat __strbufmain, __ArrHelper__main_244_0, __ArrHelper__main_244_1
0	1177	1977	#line 1177 "C:\Users\Sakeeb\Documents\School\Fall 2017\CSCC85\Phase 1\Phase1---Little-Lost-Robot\Distro\pfilter prob.nxc"
0	1178	1977		acquire __TextOutMutex
0	1177	1978	#line 1177 "C:\Users\Sakeeb\Documents\School\Fall 2017\CSCC85\Phase 1\Phase1---Little-Lost-Robot\Distro\pfilter prob.nxc"
0	1178	1978		mov __TextOutArgs.Location.X, __signed_stack_001main
0	1177	1981	#line 1177 "C:\Users\Sakeeb\Documents\School\Fall 2017\CSCC85\Phase 1\Phase1---Little-Lost-Robot\Distro\pfilter prob.nxc"
0	1178	1981		mov __TextOutArgs.Location.Y, __signed_stack_002main
0	1177	1984	#line 1177 "C:\Users\Sakeeb\Documents\School\Fall 2017\CSCC85\Phase 1\Phase1---Little-Lost-Robot\Distro\pfilter prob.nxc"
0	1178	1984		set __TextOutArgs.Options, 0
0	1177	1987	#line 1177 "C:\Users\Sakeeb\Documents\School\Fall 2017\CSCC85\Phase 1\Phase1---Little-Lost-Robot\Distro\pfilter prob.nxc"
0	1178	1987		mov __TextOutArgs.Text, __strbufmain
0	1177	1990	#line 1177 "C:\Users\Sakeeb\Documents\School\Fall 2017\CSCC85\Phase 1\Phase1---Little-Lost-Robot\Distro\pfilter prob.nxc"
0	1178	1990		syscall 13, __TextOutArgs
0	1177	1993	#line 1177 "C:\Users\Sakeeb\Documents\School\Fall 2017\CSCC85\Phase 1\Phase1---Little-Lost-Robot\Distro\pfilter prob.nxc"
0	1178	1993		mov __D0main, __TextOutArgs.Result
0	1177	1996	#line 1177 "C:\Users\Sakeeb\Documents\School\Fall 2017\CSCC85\Phase 1\Phase1---Little-Lost-Robot\Distro\pfilter prob.nxc"
0	1178	1996		release __TextOutMutex
0	1177	1997	#line 1177 "C:\Users\Sakeeb\Documents\School\Fall 2017\CSCC85\Phase 1\Phase1---Little-Lost-Robot\Distro\pfilter prob.nxc"
0	1188	1997	#line 1188 "C:\Users\Sakeeb\Documents\School\Fall 2017\CSCC85\Phase 1\Phase1---Little-Lost-Robot\Distro\pfilter prob.nxc"
0	1189	1997		subcall found, __found_return
0	1188	2000	#line 1188 "C:\Users\Sakeeb\Documents\School\Fall 2017\CSCC85\Phase 1\Phase1---Little-Lost-Robot\Distro\pfilter prob.nxc"
0	1188	2000	#line 1188 "C:\Users\Sakeeb\Documents\School\Fall 2017\CSCC85\Phase 1\Phase1---Little-Lost-Robot\Distro\pfilter prob.nxc"
0	1189	2000		set __signed_stack_001main, 2
0	1188	2003	#line 1188 "C:\Users\Sakeeb\Documents\School\Fall 2017\CSCC85\Phase 1\Phase1---Little-Lost-Robot\Distro\pfilter prob.nxc"
0	1188	2003	#line 1188 "C:\Users\Sakeeb\Documents\School\Fall 2017\CSCC85\Phase 1\Phase1---Little-Lost-Robot\Distro\pfilter prob.nxc"
0	1189	2003		set __signed_stack_002main, 0
0	1188	2006	#line 1188 "C:\Users\Sakeeb\Documents\School\Fall 2017\CSCC85\Phase 1\Phase1---Little-Lost-Robot\Distro\pfilter prob.nxc"
0	1188	2006	#line 1188 "C:\Users\Sakeeb\Documents\School\Fall 2017\CSCC85\Phase 1\Phase1---Little-Lost-Robot\Distro\pfilter prob.nxc"
0	1189	2006		index __signed_stack_002main, __main_7qG2_guess_7qG2_000, __signed_stack_002main
0	1188	2010	#line 1188 "C:\Users\Sakeeb\Documents\School\Fall 2017\CSCC85\Phase 1\Phase1---Little-Lost-Robot\Distro\pfilter prob.nxc"
0	1188	2010	#line 1188 "C:\Users\Sakeeb\Documents\School\Fall 2017\CSCC85\Phase 1\Phase1---Little-Lost-Robot\Distro\pfilter prob.nxc"
0	1188	2010	#line 1188 "C:\Users\Sakeeb\Documents\School\Fall 2017\CSCC85\Phase 1\Phase1---Little-Lost-Robot\Distro\pfilter prob.nxc"
0	1189	2010		set __D0main, 5
0	1188	2013	#line 1188 "C:\Users\Sakeeb\Documents\School\Fall 2017\CSCC85\Phase 1\Phase1---Little-Lost-Robot\Distro\pfilter prob.nxc"
0	1189	2013		mul __signed_stack_002main, __signed_stack_002main, __D0main
0	1188	2017	#line 1188 "C:\Users\Sakeeb\Documents\School\Fall 2017\CSCC85\Phase 1\Phase1---Little-Lost-Robot\Distro\pfilter prob.nxc"
0	1188	2017	#line 1188 "C:\Users\Sakeeb\Documents\School\Fall 2017\CSCC85\Phase 1\Phase1---Little-Lost-Robot\Distro\pfilter prob.nxc"
0	1189	2017		set __signed_stack_003main, 1
0	1188	2020	#line 1188 "C:\Users\Sakeeb\Documents\School\Fall 2017\CSCC85\Phase 1\Phase1---Little-Lost-Robot\Distro\pfilter prob.nxc"
0	1188	2020	#line 1188 "C:\Users\Sakeeb\Documents\School\Fall 2017\CSCC85\Phase 1\Phase1---Little-Lost-Robot\Distro\pfilter prob.nxc"
0	1189	2020		index __D0main, __main_7qG2_guess_7qG2_000, __signed_stack_003main
0	1188	2024	#line 1188 "C:\Users\Sakeeb\Documents\School\Fall 2017\CSCC85\Phase 1\Phase1---Little-Lost-Robot\Distro\pfilter prob.nxc"
0	1188	2024	#line 1188 "C:\Users\Sakeeb\Documents\School\Fall 2017\CSCC85\Phase 1\Phase1---Little-Lost-Robot\Distro\pfilter prob.nxc"
0	1189	2024		add __move_to_7qG2_s_7qG2_000, __signed_stack_002main, __D0main
0	1188	2028	#line 1188 "C:\Users\Sakeeb\Documents\School\Fall 2017\CSCC85\Phase 1\Phase1---Little-Lost-Robot\Distro\pfilter prob.nxc"
0	1188	2028	#line 1188 "C:\Users\Sakeeb\Documents\School\Fall 2017\CSCC85\Phase 1\Phase1---Little-Lost-Robot\Distro\pfilter prob.nxc"
0	1189	2028		mov __move_to_7qG2_f_7qG2_000, __main_7qG2_target_7qG2_000
0	1188	2030	#line 1188 "C:\Users\Sakeeb\Documents\School\Fall 2017\CSCC85\Phase 1\Phase1---Little-Lost-Robot\Distro\pfilter prob.nxc"
0	1188	2030	#line 1188 "C:\Users\Sakeeb\Documents\School\Fall 2017\CSCC85\Phase 1\Phase1---Little-Lost-Robot\Distro\pfilter prob.nxc"
0	1189	2030		set __signed_stack_002main, 2
0	1188	2033	#line 1188 "C:\Users\Sakeeb\Documents\School\Fall 2017\CSCC85\Phase 1\Phase1---Little-Lost-Robot\Distro\pfilter prob.nxc"
0	1188	2033	#line 1188 "C:\Users\Sakeeb\Documents\School\Fall 2017\CSCC85\Phase 1\Phase1---Little-Lost-Robot\Distro\pfilter prob.nxc"
0	1189	2033		index __move_to_7qG2_h_7qG2_000, __main_7qG2_guess_7qG2_000, __signed_stack_002main
0	1188	2037	#line 1188 "C:\Users\Sakeeb\Documents\School\Fall 2017\CSCC85\Phase 1\Phase1---Little-Lost-Robot\Distro\pfilter prob.nxc"
0	1188	2037	#line 1188 "C:\Users\Sakeeb\Documents\School\Fall 2017\CSCC85\Phase 1\Phase1---Little-Lost-Robot\Distro\pfilter prob.nxc"
0	1189	2037	#line 1189 "C:\Users\Sakeeb\Documents\School\Fall 2017\CSCC85\Phase 1\Phase1---Little-Lost-Robot\Distro\pfilter prob.nxc"
0	1190	2037		subcall move_to, __move_to_return
0	1189	2040	#line 1189 "C:\Users\Sakeeb\Documents\School\Fall 2017\CSCC85\Phase 1\Phase1---Little-Lost-Robot\Distro\pfilter prob.nxc"
0	1190	2040		mov __D0main, __D0move_to
0	1189	2042	#line 1189 "C:\Users\Sakeeb\Documents\School\Fall 2017\CSCC85\Phase 1\Phase1---Little-Lost-Robot\Distro\pfilter prob.nxc"
0	1190	2042		replace __main_7qG2_guess_7qG2_000, __main_7qG2_guess_7qG2_000, __signed_stack_001main, __D0main
0	1189	2047	#line 1189 "C:\Users\Sakeeb\Documents\School\Fall 2017\CSCC85\Phase 1\Phase1---Little-Lost-Robot\Distro\pfilter prob.nxc"
0	1190	2047	#line 1190 "C:\Users\Sakeeb\Documents\School\Fall 2017\CSCC85\Phase 1\Phase1---Little-Lost-Robot\Distro\pfilter prob.nxc"
0	1191	2047		subcall package, __package_return
0	1190	2050	#line 1190 "C:\Users\Sakeeb\Documents\School\Fall 2017\CSCC85\Phase 1\Phase1---Little-Lost-Robot\Distro\pfilter prob.nxc"
0	1190	2050	#line 1190 "C:\Users\Sakeeb\Documents\School\Fall 2017\CSCC85\Phase 1\Phase1---Little-Lost-Robot\Distro\pfilter prob.nxc"
0	1191	2050		mov __move_to_7qG2_s_7qG2_000, __main_7qG2_target_7qG2_000
0	1190	2052	#line 1190 "C:\Users\Sakeeb\Documents\School\Fall 2017\CSCC85\Phase 1\Phase1---Little-Lost-Robot\Distro\pfilter prob.nxc"
0	1190	2052	#line 1190 "C:\Users\Sakeeb\Documents\School\Fall 2017\CSCC85\Phase 1\Phase1---Little-Lost-Robot\Distro\pfilter prob.nxc"
0	1191	2052		mov __move_to_7qG2_f_7qG2_000, __main_7qG2_dest_7qG2_000
0	1190	2054	#line 1190 "C:\Users\Sakeeb\Documents\School\Fall 2017\CSCC85\Phase 1\Phase1---Little-Lost-Robot\Distro\pfilter prob.nxc"
0	1190	2054	#line 1190 "C:\Users\Sakeeb\Documents\School\Fall 2017\CSCC85\Phase 1\Phase1---Little-Lost-Robot\Distro\pfilter prob.nxc"
0	1191	2054		set __signed_stack_001main, 2
0	1190	2057	#line 1190 "C:\Users\Sakeeb\Documents\School\Fall 2017\CSCC85\Phase 1\Phase1---Little-Lost-Robot\Distro\pfilter prob.nxc"
0	1190	2057	#line 1190 "C:\Users\Sakeeb\Documents\School\Fall 2017\CSCC85\Phase 1\Phase1---Little-Lost-Robot\Distro\pfilter prob.nxc"
0	1191	2057		index __move_to_7qG2_h_7qG2_000, __main_7qG2_guess_7qG2_000, __signed_stack_001main
0	1190	2061	#line 1190 "C:\Users\Sakeeb\Documents\School\Fall 2017\CSCC85\Phase 1\Phase1---Little-Lost-Robot\Distro\pfilter prob.nxc"
0	1190	2061	#line 1190 "C:\Users\Sakeeb\Documents\School\Fall 2017\CSCC85\Phase 1\Phase1---Little-Lost-Robot\Distro\pfilter prob.nxc"
0	1191	2061	#line 1191 "C:\Users\Sakeeb\Documents\School\Fall 2017\CSCC85\Phase 1\Phase1---Little-Lost-Robot\Distro\pfilter prob.nxc"
0	1192	2061		subcall move_to, __move_to_return
0	1191	2064	#line 1191 "C:\Users\Sakeeb\Documents\School\Fall 2017\CSCC85\Phase 1\Phase1---Little-Lost-Robot\Distro\pfilter prob.nxc"
0	1192	2064		mov __D0main, __D0move_to
0	1191	2066	#line 1191 "C:\Users\Sakeeb\Documents\School\Fall 2017\CSCC85\Phase 1\Phase1---Little-Lost-Robot\Distro\pfilter prob.nxc"
0	1192	2066	#line 1192 "C:\Users\Sakeeb\Documents\School\Fall 2017\CSCC85\Phase 1\Phase1---Little-Lost-Robot\Distro\pfilter prob.nxc"
0	1193	2066		subcall victory, __victory_return
0	1192	2069	#line 1192 "C:\Users\Sakeeb\Documents\School\Fall 2017\CSCC85\Phase 1\Phase1---Little-Lost-Robot\Distro\pfilter prob.nxc"
0	1193	2069		exit -1, -1
1	5476	0		setin __constVal1, __ResetSensorPort, 5
1	5478	4		getin __ResetSensorTmp, __ResetSensorPort, 5
1	5479	8		brtst 5, __SensorStillInvalid, __ResetSensorTmp
1	5480	11		subret ____ResetSensorSubroutine_return
2	8683	0		arrinit __RLSOutput, __constVal0, __constVal1
2	8684	4		set __RLSByteCount, 0
2	8686	7		set __FReadArgs.Length, 1
2	8687	10		mov __RLSBuffer, __RLSOutput
2	8688	12		syscall 3, __FReadArgs
2	8689	15		mov __RLSReturn, __FReadArgs.Result
2	8690	17		brtst 5, __RLSStringDone, __RLSReturn
2	8691	20		index __FReadTmpByte, __FReadArgs.Buffer, 65535
2	8692	24		brcmp 4, __RLSStringDone, __FReadTmpByte, __constVal10
2	8693	28		brcmp 4, __RLSStringSkip, __FReadTmpByte, __constVal13
2	8694	32		strcat __RLSOutput, __RLSBuffer, __FReadArgs.Buffer
2	8695	37		add __RLSByteCount, __RLSByteCount, __constVal1
2	8696	41		brcmp 3, __RLSStringDone, __RLSByteCount, __RLSMaxBytes
2	8698	45		jmp __RLSStringLoop
2	8700	47		subret __RLSReturnAddress
3	19305	0	#line 19305 "NXCDefs.h"
3	19306	0		mov __fopen_7qG2_result_7qG2_000, __constVal37632
3	19305	2	#line 19305 "NXCDefs.h"
3	19306	2	#line 19306 "NXCDefs.h"
3	19307	2		strcat __strbuffopen, __fopen_7qG2_mode_7qG2_000
3	19308	6		brcmp 4, __ASM_Label_291, __constStr0006, __strbuffopen
3	19309	10		brcmp 4, __ASM_Label_294, __constStr0007, __strbuffopen
3	19310	14		brcmp 4, __ASM_Label_299, __constStr0008, __strbuffopen
3	19311	18		jmp __ASM_Label_290
3	19308	20	#line 19308 "NXCDefs.h"
3	19308	20	#line 19308 "NXCDefs.h"
3	19309	20	#pragma macro 7
3	19309	20		mov __FOArgs.Filename, __fopen_7qG2_filename_7qG2_000
3	19309	22		syscall 0, __FOArgs
3	19309	25		mov __fopen_7qG2_fsize_7qG2_000, __FOArgs.Length
3	19309	28		mov __fopen_7qG2_handle_7qG2_000, __FOArgs.FileHandle
3	19309	30		mov __fopen_7qG2_result_7qG2_000, __FOArgs.Result
3	4821	33	#line 4821 "NXCDefs.h"
3	19308	33	#line 19308 "NXCDefs.h"
3	19308	33	#line 19308 "NXCDefs.h"
3	19308	33	#line 19308 "NXCDefs.h"
3	19310	33	#line 19310 "NXCDefs.h"
3	19311	33		jmp __ASM_Label_290
3	19310	35	#line 19310 "NXCDefs.h"
3	19311	35	#line 19311 "NXCDefs.h"
3	19312	35	#line 19312 "NXCDefs.h"
3	19313	35		mov __fopen_7qG2_fsize_7qG2_000, __fopen_default_size
3	19312	37	#line 19312 "NXCDefs.h"
3	19312	37	#line 19312 "NXCDefs.h"
3	19312	37	#line 19312 "NXCDefs.h"
3	19313	37	#pragma macro 7
3	19313	37		mov __FOArgs.Filename, __fopen_7qG2_filename_7qG2_000
3	19313	39		mov __FOArgs.Length, __fopen_7qG2_fsize_7qG2_000
3	19313	42		syscall 1, __FOArgs
3	19313	45		mov __fopen_7qG2_handle_7qG2_000, __FOArgs.FileHandle
3	19313	47		mov __fopen_7qG2_result_7qG2_000, __FOArgs.Result
3	4841	50	#line 4841 "NXCDefs.h"
3	19312	50	#line 19312 "NXCDefs.h"
3	19312	50	#line 19312 "NXCDefs.h"
3	19312	50	#line 19312 "NXCDefs.h"
3	19314	50	#line 19314 "NXCDefs.h"
3	19315	50		jmp __ASM_Label_290
3	19314	52	#line 19314 "NXCDefs.h"
3	19315	52	#line 19315 "NXCDefs.h"
3	19315	52	#line 19315 "NXCDefs.h"
3	19316	52	#pragma macro 7
3	19316	52		mov __FOArgs.Filename, __fopen_7qG2_filename_7qG2_000
3	19316	54		syscall 2, __FOArgs
3	19316	57		mov __fopen_7qG2_fsize_7qG2_000, __FOArgs.Length
3	19316	60		mov __fopen_7qG2_handle_7qG2_000, __FOArgs.FileHandle
3	19316	62		mov __fopen_7qG2_result_7qG2_000, __FOArgs.Result
3	4854	65	#line 4854 "NXCDefs.h"
3	19315	65	#line 19315 "NXCDefs.h"
3	19315	65	#line 19315 "NXCDefs.h"
3	19315	65	#line 19315 "NXCDefs.h"
3	19317	65	#line 19317 "NXCDefs.h"
3	19317	65	#line 19317 "NXCDefs.h"
3	19318	65	#line 19318 "NXCDefs.h"
3	19318	65	#line 19318 "NXCDefs.h"
3	19319	65		mov __signed_stack_001fopen, __fopen_7qG2_result_7qG2_000
3	19318	67	#line 19318 "NXCDefs.h"
3	19319	67	#line 19319 "NXCDefs.h"
3	19320	67		set __D0fopen, 0
3	19319	70	#line 19319 "NXCDefs.h"
3	19320	70		cmp 5, __D0fopen, __signed_stack_001fopen, __D0fopen
3	19319	74	#line 19319 "NXCDefs.h"
3	19320	74		brtst 4, __ASM_Label_304, __D0fopen
3	19320	77	#line 19320 "NXCDefs.h"
3	19321	77		set __fopen_7qG2_handle_7qG2_000, 0
3	19320	80	#line 19320 "NXCDefs.h"
3	19320	80	#line 19320 "NXCDefs.h"
3	19320	80	#line 19320 "NXCDefs.h"
3	19321	80	#line 19321 "NXCDefs.h"
3	19322	80		mov __DU0fopen, __fopen_7qG2_handle_7qG2_000
3	19321	82	#line 19321 "NXCDefs.h"
3	19322	82		subret __fopen_return
3	19321	84	#line 19321 "NXCDefs.h"
3	19330	84	#line 19330 "NXCDefs.h"
3	19331	84		subret __fopen_return
4	126	0	#line 126 "C:\Users\Sakeeb\Documents\School\Fall 2017\CSCC85\Phase 1\Phase1---Little-Lost-Robot\Distro\pfilter prob.nxc"
4	127	0		set __signed_stack_001victory, 1047
4	126	3	#line 126 "C:\Users\Sakeeb\Documents\School\Fall 2017\CSCC85\Phase 1\Phase1---Little-Lost-Robot\Distro\pfilter prob.nxc"
4	126	3	#line 126 "C:\Users\Sakeeb\Documents\School\Fall 2017\CSCC85\Phase 1\Phase1---Little-Lost-Robot\Distro\pfilter prob.nxc"
4	127	3		set __signed_stack_002victory, 143
4	126	6	#line 126 "C:\Users\Sakeeb\Documents\School\Fall 2017\CSCC85\Phase 1\Phase1---Little-Lost-Robot\Distro\pfilter prob.nxc"
4	126	6	#line 126 "C:\Users\Sakeeb\Documents\School\Fall 2017\CSCC85\Phase 1\Phase1---Little-Lost-Robot\Distro\pfilter prob.nxc"
4	127	6		set __signed_stack_003victory, 2
4	126	9	#line 126 "C:\Users\Sakeeb\Documents\School\Fall 2017\CSCC85\Phase 1\Phase1---Little-Lost-Robot\Distro\pfilter prob.nxc"
4	126	9	#line 126 "C:\Users\Sakeeb\Documents\School\Fall 2017\CSCC85\Phase 1\Phase1---Little-Lost-Robot\Distro\pfilter prob.nxc"
4	127	9		set __D0victory, 0
4	127	12	#line 127 "C:\Users\Sakeeb\Documents\School\Fall 2017\CSCC85\Phase 1\Phase1---Little-Lost-Robot\Distro\pfilter prob.nxc"
4	128	12		acquire __SPTArgsMutex
4	127	13	#line 127 "C:\Users\Sakeeb\Documents\School\Fall 2017\CSCC85\Phase 1\Phase1---Little-Lost-Robot\Distro\pfilter prob.nxc"
4	128	13		mov __SPTArgs.Frequency, __signed_stack_001victory
4	127	16	#line 127 "C:\Users\Sakeeb\Documents\School\Fall 2017\CSCC85\Phase 1\Phase1---Little-Lost-Robot\Distro\pfilter prob.nxc"
4	128	16		mov __SPTArgs.Duration, __signed_stack_002victory
4	127	19	#line 127 "C:\Users\Sakeeb\Documents\School\Fall 2017\CSCC85\Phase 1\Phase1---Little-Lost-Robot\Distro\pfilter prob.nxc"
4	128	19		mov __SPTArgs.Volume, __signed_stack_003victory
4	127	22	#line 127 "C:\Users\Sakeeb\Documents\School\Fall 2017\CSCC85\Phase 1\Phase1---Little-Lost-Robot\Distro\pfilter prob.nxc"
4	128	22		mov __SPTArgs.Loop, __D0victory
4	127	25	#line 127 "C:\Users\Sakeeb\Documents\School\Fall 2017\CSCC85\Phase 1\Phase1---Little-Lost-Robot\Distro\pfilter prob.nxc"
4	128	25		syscall 10, __SPTArgs
4	127	28	#line 127 "C:\Users\Sakeeb\Documents\School\Fall 2017\CSCC85\Phase 1\Phase1---Little-Lost-Robot\Distro\pfilter prob.nxc"
4	128	28		mov __D0victory, __SPTArgs.Result
4	127	31	#line 127 "C:\Users\Sakeeb\Documents\School\Fall 2017\CSCC85\Phase 1\Phase1---Little-Lost-Robot\Distro\pfilter prob.nxc"
4	128	31		release __SPTArgsMutex
4	127	32	#line 127 "C:\Users\Sakeeb\Documents\School\Fall 2017\CSCC85\Phase 1\Phase1---Little-Lost-Robot\Distro\pfilter prob.nxc"
4	127	32	#line 127 "C:\Users\Sakeeb\Documents\School\Fall 2017\CSCC85\Phase 1\Phase1---Little-Lost-Robot\Distro\pfilter prob.nxc"
4	128	32		set __Wait_7qG2_ms_7qG2_000_inline_victory, 243
4	127	35	#line 127 "C:\Users\Sakeeb\Documents\School\Fall 2017\CSCC85\Phase 1\Phase1---Little-Lost-Robot\Distro\pfilter prob.nxc"
4	8551	35	#line 8551 "NXCDefs.h"
4	8552	35		wait2 NA, __Wait_7qG2_ms_7qG2_000_inline_victory
4	8551	38	#line 8551 "NXCDefs.h"
4	128	38	#line 128 "C:\Users\Sakeeb\Documents\School\Fall 2017\CSCC85\Phase 1\Phase1---Little-Lost-Robot\Distro\pfilter prob.nxc"
4	128	38	#line 128 "C:\Users\Sakeeb\Documents\School\Fall 2017\CSCC85\Phase 1\Phase1---Little-Lost-Robot\Distro\pfilter prob.nxc"
4	129	38		set __signed_stack_001victory, 1047
4	128	41	#line 128 "C:\Users\Sakeeb\Documents\School\Fall 2017\CSCC85\Phase 1\Phase1---Little-Lost-Robot\Distro\pfilter prob.nxc"
4	128	41	#line 128 "C:\Users\Sakeeb\Documents\School\Fall 2017\CSCC85\Phase 1\Phase1---Little-Lost-Robot\Distro\pfilter prob.nxc"
4	129	41		set __signed_stack_002victory, 143
4	128	44	#line 128 "C:\Users\Sakeeb\Documents\School\Fall 2017\CSCC85\Phase 1\Phase1---Little-Lost-Robot\Distro\pfilter prob.nxc"
4	128	44	#line 128 "C:\Users\Sakeeb\Documents\School\Fall 2017\CSCC85\Phase 1\Phase1---Little-Lost-Robot\Distro\pfilter prob.nxc"
4	129	44		set __signed_stack_003victory, 2
4	128	47	#line 128 "C:\Users\Sakeeb\Documents\School\Fall 2017\CSCC85\Phase 1\Phase1---Little-Lost-Robot\Distro\pfilter prob.nxc"
4	128	47	#line 128 "C:\Users\Sakeeb\Documents\School\Fall 2017\CSCC85\Phase 1\Phase1---Little-Lost-Robot\Distro\pfilter prob.nxc"
4	129	47		set __D0victory, 0
4	129	50	#line 129 "C:\Users\Sakeeb\Documents\School\Fall 2017\CSCC85\Phase 1\Phase1---Little-Lost-Robot\Distro\pfilter prob.nxc"
4	130	50		acquire __SPTArgsMutex
4	129	51	#line 129 "C:\Users\Sakeeb\Documents\School\Fall 2017\CSCC85\Phase 1\Phase1---Little-Lost-Robot\Distro\pfilter prob.nxc"
4	130	51		mov __SPTArgs.Frequency, __signed_stack_001victory
4	129	54	#line 129 "C:\Users\Sakeeb\Documents\School\Fall 2017\CSCC85\Phase 1\Phase1---Little-Lost-Robot\Distro\pfilter prob.nxc"
4	130	54		mov __SPTArgs.Duration, __signed_stack_002victory
4	129	57	#line 129 "C:\Users\Sakeeb\Documents\School\Fall 2017\CSCC85\Phase 1\Phase1---Little-Lost-Robot\Distro\pfilter prob.nxc"
4	130	57		mov __SPTArgs.Volume, __signed_stack_003victory
4	129	60	#line 129 "C:\Users\Sakeeb\Documents\School\Fall 2017\CSCC85\Phase 1\Phase1---Little-Lost-Robot\Distro\pfilter prob.nxc"
4	130	60		mov __SPTArgs.Loop, __D0victory
4	129	63	#line 129 "C:\Users\Sakeeb\Documents\School\Fall 2017\CSCC85\Phase 1\Phase1---Little-Lost-Robot\Distro\pfilter prob.nxc"
4	130	63		syscall 10, __SPTArgs
4	129	66	#line 129 "C:\Users\Sakeeb\Documents\School\Fall 2017\CSCC85\Phase 1\Phase1---Little-Lost-Robot\Distro\pfilter prob.nxc"
4	130	66		mov __D0victory, __SPTArgs.Result
4	129	69	#line 129 "C:\Users\Sakeeb\Documents\School\Fall 2017\CSCC85\Phase 1\Phase1---Little-Lost-Robot\Distro\pfilter prob.nxc"
4	130	69		release __SPTArgsMutex
4	129	70	#line 129 "C:\Users\Sakeeb\Documents\School\Fall 2017\CSCC85\Phase 1\Phase1---Little-Lost-Robot\Distro\pfilter prob.nxc"
4	129	70	#line 129 "C:\Users\Sakeeb\Documents\School\Fall 2017\CSCC85\Phase 1\Phase1---Little-Lost-Robot\Distro\pfilter prob.nxc"
4	130	70		set __Wait_7qG2_ms_7qG2_000_inline_victory, 243
4	129	73	#line 129 "C:\Users\Sakeeb\Documents\School\Fall 2017\CSCC85\Phase 1\Phase1---Little-Lost-Robot\Distro\pfilter prob.nxc"
4	8551	73	#line 8551 "NXCDefs.h"
4	8552	73		wait2 NA, __Wait_7qG2_ms_7qG2_000_inline_victory
4	8551	76	#line 8551 "NXCDefs.h"
4	130	76	#line 130 "C:\Users\Sakeeb\Documents\School\Fall 2017\CSCC85\Phase 1\Phase1---Little-Lost-Robot\Distro\pfilter prob.nxc"
4	130	76	#line 130 "C:\Users\Sakeeb\Documents\School\Fall 2017\CSCC85\Phase 1\Phase1---Little-Lost-Robot\Distro\pfilter prob.nxc"
4	131	76		set __signed_stack_001victory, 1047
4	130	79	#line 130 "C:\Users\Sakeeb\Documents\School\Fall 2017\CSCC85\Phase 1\Phase1---Little-Lost-Robot\Distro\pfilter prob.nxc"
4	130	79	#line 130 "C:\Users\Sakeeb\Documents\School\Fall 2017\CSCC85\Phase 1\Phase1---Little-Lost-Robot\Distro\pfilter prob.nxc"
4	131	79		set __signed_stack_002victory, 143
4	130	82	#line 130 "C:\Users\Sakeeb\Documents\School\Fall 2017\CSCC85\Phase 1\Phase1---Little-Lost-Robot\Distro\pfilter prob.nxc"
4	130	82	#line 130 "C:\Users\Sakeeb\Documents\School\Fall 2017\CSCC85\Phase 1\Phase1---Little-Lost-Robot\Distro\pfilter prob.nxc"
4	131	82		set __signed_stack_003victory, 2
4	130	85	#line 130 "C:\Users\Sakeeb\Documents\School\Fall 2017\CSCC85\Phase 1\Phase1---Little-Lost-Robot\Distro\pfilter prob.nxc"
4	130	85	#line 130 "C:\Users\Sakeeb\Documents\School\Fall 2017\CSCC85\Phase 1\Phase1---Little-Lost-Robot\Distro\pfilter prob.nxc"
4	131	85		set __D0victory, 0
4	131	88	#line 131 "C:\Users\Sakeeb\Documents\School\Fall 2017\CSCC85\Phase 1\Phase1---Little-Lost-Robot\Distro\pfilter prob.nxc"
4	132	88		acquire __SPTArgsMutex
4	131	89	#line 131 "C:\Users\Sakeeb\Documents\School\Fall 2017\CSCC85\Phase 1\Phase1---Little-Lost-Robot\Distro\pfilter prob.nxc"
4	132	89		mov __SPTArgs.Frequency, __signed_stack_001victory
4	131	92	#line 131 "C:\Users\Sakeeb\Documents\School\Fall 2017\CSCC85\Phase 1\Phase1---Little-Lost-Robot\Distro\pfilter prob.nxc"
4	132	92		mov __SPTArgs.Duration, __signed_stack_002victory
4	131	95	#line 131 "C:\Users\Sakeeb\Documents\School\Fall 2017\CSCC85\Phase 1\Phase1---Little-Lost-Robot\Distro\pfilter prob.nxc"
4	132	95		mov __SPTArgs.Volume, __signed_stack_003victory
4	131	98	#line 131 "C:\Users\Sakeeb\Documents\School\Fall 2017\CSCC85\Phase 1\Phase1---Little-Lost-Robot\Distro\pfilter prob.nxc"
4	132	98		mov __SPTArgs.Loop, __D0victory
4	131	101	#line 131 "C:\Users\Sakeeb\Documents\School\Fall 2017\CSCC85\Phase 1\Phase1---Little-Lost-Robot\Distro\pfilter prob.nxc"
4	132	101		syscall 10, __SPTArgs
4	131	104	#line 131 "C:\Users\Sakeeb\Documents\School\Fall 2017\CSCC85\Phase 1\Phase1---Little-Lost-Robot\Distro\pfilter prob.nxc"
4	132	104		mov __D0victory, __SPTArgs.Result
4	131	107	#line 131 "C:\Users\Sakeeb\Documents\School\Fall 2017\CSCC85\Phase 1\Phase1---Little-Lost-Robot\Distro\pfilter prob.nxc"
4	132	107		release __SPTArgsMutex
4	131	108	#line 131 "C:\Users\Sakeeb\Documents\School\Fall 2017\CSCC85\Phase 1\Phase1---Little-Lost-Robot\Distro\pfilter prob.nxc"
4	131	108	#line 131 "C:\Users\Sakeeb\Documents\School\Fall 2017\CSCC85\Phase 1\Phase1---Little-Lost-Robot\Distro\pfilter prob.nxc"
4	132	108		set __Wait_7qG2_ms_7qG2_000_inline_victory, 243
4	131	111	#line 131 "C:\Users\Sakeeb\Documents\School\Fall 2017\CSCC85\Phase 1\Phase1---Little-Lost-Robot\Distro\pfilter prob.nxc"
4	8551	111	#line 8551 "NXCDefs.h"
4	8552	111		wait2 NA, __Wait_7qG2_ms_7qG2_000_inline_victory
4	8551	114	#line 8551 "NXCDefs.h"
4	132	114	#line 132 "C:\Users\Sakeeb\Documents\School\Fall 2017\CSCC85\Phase 1\Phase1---Little-Lost-Robot\Distro\pfilter prob.nxc"
4	132	114	#line 132 "C:\Users\Sakeeb\Documents\School\Fall 2017\CSCC85\Phase 1\Phase1---Little-Lost-Robot\Distro\pfilter prob.nxc"
4	133	114		set __signed_stack_001victory, 1047
4	132	117	#line 132 "C:\Users\Sakeeb\Documents\School\Fall 2017\CSCC85\Phase 1\Phase1---Little-Lost-Robot\Distro\pfilter prob.nxc"
4	132	117	#line 132 "C:\Users\Sakeeb\Documents\School\Fall 2017\CSCC85\Phase 1\Phase1---Little-Lost-Robot\Distro\pfilter prob.nxc"
4	133	117		set __signed_stack_002victory, 429
4	132	120	#line 132 "C:\Users\Sakeeb\Documents\School\Fall 2017\CSCC85\Phase 1\Phase1---Little-Lost-Robot\Distro\pfilter prob.nxc"
4	132	120	#line 132 "C:\Users\Sakeeb\Documents\School\Fall 2017\CSCC85\Phase 1\Phase1---Little-Lost-Robot\Distro\pfilter prob.nxc"
4	133	120		set __signed_stack_003victory, 2
4	132	123	#line 132 "C:\Users\Sakeeb\Documents\School\Fall 2017\CSCC85\Phase 1\Phase1---Little-Lost-Robot\Distro\pfilter prob.nxc"
4	132	123	#line 132 "C:\Users\Sakeeb\Documents\School\Fall 2017\CSCC85\Phase 1\Phase1---Little-Lost-Robot\Distro\pfilter prob.nxc"
4	133	123		set __D0victory, 0
4	133	126	#line 133 "C:\Users\Sakeeb\Documents\School\Fall 2017\CSCC85\Phase 1\Phase1---Little-Lost-Robot\Distro\pfilter prob.nxc"
4	134	126		acquire __SPTArgsMutex
4	133	127	#line 133 "C:\Users\Sakeeb\Documents\School\Fall 2017\CSCC85\Phase 1\Phase1---Little-Lost-Robot\Distro\pfilter prob.nxc"
4	134	127		mov __SPTArgs.Frequency, __signed_stack_001victory
4	133	130	#line 133 "C:\Users\Sakeeb\Documents\School\Fall 2017\CSCC85\Phase 1\Phase1---Little-Lost-Robot\Distro\pfilter prob.nxc"
4	134	130		mov __SPTArgs.Duration, __signed_stack_002victory
4	133	133	#line 133 "C:\Users\Sakeeb\Documents\School\Fall 2017\CSCC85\Phase 1\Phase1---Little-Lost-Robot\Distro\pfilter prob.nxc"
4	134	133		mov __SPTArgs.Volume, __signed_stack_003victory
4	133	136	#line 133 "C:\Users\Sakeeb\Documents\School\Fall 2017\CSCC85\Phase 1\Phase1---Little-Lost-Robot\Distro\pfilter prob.nxc"
4	134	136		mov __SPTArgs.Loop, __D0victory
4	133	139	#line 133 "C:\Users\Sakeeb\Documents\School\Fall 2017\CSCC85\Phase 1\Phase1---Little-Lost-Robot\Distro\pfilter prob.nxc"
4	134	139		syscall 10, __SPTArgs
4	133	142	#line 133 "C:\Users\Sakeeb\Documents\School\Fall 2017\CSCC85\Phase 1\Phase1---Little-Lost-Robot\Distro\pfilter prob.nxc"
4	134	142		mov __D0victory, __SPTArgs.Result
4	133	145	#line 133 "C:\Users\Sakeeb\Documents\School\Fall 2017\CSCC85\Phase 1\Phase1---Little-Lost-Robot\Distro\pfilter prob.nxc"
4	134	145		release __SPTArgsMutex
4	133	146	#line 133 "C:\Users\Sakeeb\Documents\School\Fall 2017\CSCC85\Phase 1\Phase1---Little-Lost-Robot\Distro\pfilter prob.nxc"
4	133	146	#line 133 "C:\Users\Sakeeb\Documents\School\Fall 2017\CSCC85\Phase 1\Phase1---Little-Lost-Robot\Distro\pfilter prob.nxc"
4	134	146		set __Wait_7qG2_ms_7qG2_000_inline_victory, 529
4	133	149	#line 133 "C:\Users\Sakeeb\Documents\School\Fall 2017\CSCC85\Phase 1\Phase1---Little-Lost-Robot\Distro\pfilter prob.nxc"
4	8551	149	#line 8551 "NXCDefs.h"
4	8552	149		wait2 NA, __Wait_7qG2_ms_7qG2_000_inline_victory
4	8551	152	#line 8551 "NXCDefs.h"
4	136	152	#line 136 "C:\Users\Sakeeb\Documents\School\Fall 2017\CSCC85\Phase 1\Phase1---Little-Lost-Robot\Distro\pfilter prob.nxc"
4	136	152	#line 136 "C:\Users\Sakeeb\Documents\School\Fall 2017\CSCC85\Phase 1\Phase1---Little-Lost-Robot\Distro\pfilter prob.nxc"
4	137	152		set __signed_stack_001victory, 831
4	136	155	#line 136 "C:\Users\Sakeeb\Documents\School\Fall 2017\CSCC85\Phase 1\Phase1---Little-Lost-Robot\Distro\pfilter prob.nxc"
4	136	155	#line 136 "C:\Users\Sakeeb\Documents\School\Fall 2017\CSCC85\Phase 1\Phase1---Little-Lost-Robot\Distro\pfilter prob.nxc"
4	137	155		set __signed_stack_002victory, 429
4	136	158	#line 136 "C:\Users\Sakeeb\Documents\School\Fall 2017\CSCC85\Phase 1\Phase1---Little-Lost-Robot\Distro\pfilter prob.nxc"
4	136	158	#line 136 "C:\Users\Sakeeb\Documents\School\Fall 2017\CSCC85\Phase 1\Phase1---Little-Lost-Robot\Distro\pfilter prob.nxc"
4	137	158		set __signed_stack_003victory, 2
4	136	161	#line 136 "C:\Users\Sakeeb\Documents\School\Fall 2017\CSCC85\Phase 1\Phase1---Little-Lost-Robot\Distro\pfilter prob.nxc"
4	136	161	#line 136 "C:\Users\Sakeeb\Documents\School\Fall 2017\CSCC85\Phase 1\Phase1---Little-Lost-Robot\Distro\pfilter prob.nxc"
4	137	161		set __D0victory, 0
4	137	164	#line 137 "C:\Users\Sakeeb\Documents\School\Fall 2017\CSCC85\Phase 1\Phase1---Little-Lost-Robot\Distro\pfilter prob.nxc"
4	138	164		acquire __SPTArgsMutex
4	137	165	#line 137 "C:\Users\Sakeeb\Documents\School\Fall 2017\CSCC85\Phase 1\Phase1---Little-Lost-Robot\Distro\pfilter prob.nxc"
4	138	165		mov __SPTArgs.Frequency, __signed_stack_001victory
4	137	168	#line 137 "C:\Users\Sakeeb\Documents\School\Fall 2017\CSCC85\Phase 1\Phase1---Little-Lost-Robot\Distro\pfilter prob.nxc"
4	138	168		mov __SPTArgs.Duration, __signed_stack_002victory
4	137	171	#line 137 "C:\Users\Sakeeb\Documents\School\Fall 2017\CSCC85\Phase 1\Phase1---Little-Lost-Robot\Distro\pfilter prob.nxc"
4	138	171		mov __SPTArgs.Volume, __signed_stack_003victory
4	137	174	#line 137 "C:\Users\Sakeeb\Documents\School\Fall 2017\CSCC85\Phase 1\Phase1---Little-Lost-Robot\Distro\pfilter prob.nxc"
4	138	174		mov __SPTArgs.Loop, __D0victory
4	137	177	#line 137 "C:\Users\Sakeeb\Documents\School\Fall 2017\CSCC85\Phase 1\Phase1---Little-Lost-Robot\Distro\pfilter prob.nxc"
4	138	177		syscall 10, __SPTArgs
4	137	180	#line 137 "C:\Users\Sakeeb\Documents\School\Fall 2017\CSCC85\Phase 1\Phase1---Little-Lost-Robot\Distro\pfilter prob.nxc"
4	138	180		mov __D0victory, __SPTArgs.Result
4	137	183	#line 137 "C:\Users\Sakeeb\Documents\School\Fall 2017\CSCC85\Phase 1\Phase1---Little-Lost-Robot\Distro\pfilter prob.nxc"
4	138	183		release __SPTArgsMutex
4	137	184	#line 137 "C:\Users\Sakeeb\Documents\School\Fall 2017\CSCC85\Phase 1\Phase1---Little-Lost-Robot\Distro\pfilter prob.nxc"
4	137	184	#line 137 "C:\Users\Sakeeb\Documents\School\Fall 2017\CSCC85\Phase 1\Phase1---Little-Lost-Robot\Distro\pfilter prob.nxc"
4	138	184		set __Wait_7qG2_ms_7qG2_000_inline_victory, 529
4	137	187	#line 137 "C:\Users\Sakeeb\Documents\School\Fall 2017\CSCC85\Phase 1\Phase1---Little-Lost-Robot\Distro\pfilter prob.nxc"
4	8551	187	#line 8551 "NXCDefs.h"
4	8552	187		wait2 NA, __Wait_7qG2_ms_7qG2_000_inline_victory
4	8551	190	#line 8551 "NXCDefs.h"
4	140	190	#line 140 "C:\Users\Sakeeb\Documents\School\Fall 2017\CSCC85\Phase 1\Phase1---Little-Lost-Robot\Distro\pfilter prob.nxc"
4	140	190	#line 140 "C:\Users\Sakeeb\Documents\School\Fall 2017\CSCC85\Phase 1\Phase1---Little-Lost-Robot\Distro\pfilter prob.nxc"
4	141	190		set __signed_stack_001victory, 932
4	140	193	#line 140 "C:\Users\Sakeeb\Documents\School\Fall 2017\CSCC85\Phase 1\Phase1---Little-Lost-Robot\Distro\pfilter prob.nxc"
4	140	193	#line 140 "C:\Users\Sakeeb\Documents\School\Fall 2017\CSCC85\Phase 1\Phase1---Little-Lost-Robot\Distro\pfilter prob.nxc"
4	141	193		set __signed_stack_002victory, 429
4	140	196	#line 140 "C:\Users\Sakeeb\Documents\School\Fall 2017\CSCC85\Phase 1\Phase1---Little-Lost-Robot\Distro\pfilter prob.nxc"
4	140	196	#line 140 "C:\Users\Sakeeb\Documents\School\Fall 2017\CSCC85\Phase 1\Phase1---Little-Lost-Robot\Distro\pfilter prob.nxc"
4	141	196		set __signed_stack_003victory, 2
4	140	199	#line 140 "C:\Users\Sakeeb\Documents\School\Fall 2017\CSCC85\Phase 1\Phase1---Little-Lost-Robot\Distro\pfilter prob.nxc"
4	140	199	#line 140 "C:\Users\Sakeeb\Documents\School\Fall 2017\CSCC85\Phase 1\Phase1---Little-Lost-Robot\Distro\pfilter prob.nxc"
4	141	199		set __D0victory, 0
4	141	202	#line 141 "C:\Users\Sakeeb\Documents\School\Fall 2017\CSCC85\Phase 1\Phase1---Little-Lost-Robot\Distro\pfilter prob.nxc"
4	142	202		acquire __SPTArgsMutex
4	141	203	#line 141 "C:\Users\Sakeeb\Documents\School\Fall 2017\CSCC85\Phase 1\Phase1---Little-Lost-Robot\Distro\pfilter prob.nxc"
4	142	203		mov __SPTArgs.Frequency, __signed_stack_001victory
4	141	206	#line 141 "C:\Users\Sakeeb\Documents\School\Fall 2017\CSCC85\Phase 1\Phase1---Little-Lost-Robot\Distro\pfilter prob.nxc"
4	142	206		mov __SPTArgs.Duration, __signed_stack_002victory
4	141	209	#line 141 "C:\Users\Sakeeb\Documents\School\Fall 2017\CSCC85\Phase 1\Phase1---Little-Lost-Robot\Distro\pfilter prob.nxc"
4	142	209		mov __SPTArgs.Volume, __signed_stack_003victory
4	141	212	#line 141 "C:\Users\Sakeeb\Documents\School\Fall 2017\CSCC85\Phase 1\Phase1---Little-Lost-Robot\Distro\pfilter prob.nxc"
4	142	212		mov __SPTArgs.Loop, __D0victory
4	141	215	#line 141 "C:\Users\Sakeeb\Documents\School\Fall 2017\CSCC85\Phase 1\Phase1---Little-Lost-Robot\Distro\pfilter prob.nxc"
4	142	215		syscall 10, __SPTArgs
4	141	218	#line 141 "C:\Users\Sakeeb\Documents\School\Fall 2017\CSCC85\Phase 1\Phase1---Little-Lost-Robot\Distro\pfilter prob.nxc"
4	142	218		mov __D0victory, __SPTArgs.Result
4	141	221	#line 141 "C:\Users\Sakeeb\Documents\School\Fall 2017\CSCC85\Phase 1\Phase1---Little-Lost-Robot\Distro\pfilter prob.nxc"
4	142	221		release __SPTArgsMutex
4	141	222	#line 141 "C:\Users\Sakeeb\Documents\School\Fall 2017\CSCC85\Phase 1\Phase1---Little-Lost-Robot\Distro\pfilter prob.nxc"
4	141	222	#line 141 "C:\Users\Sakeeb\Documents\School\Fall 2017\CSCC85\Phase 1\Phase1---Little-Lost-Robot\Distro\pfilter prob.nxc"
4	142	222		set __Wait_7qG2_ms_7qG2_000_inline_victory, 529
4	141	225	#line 141 "C:\Users\Sakeeb\Documents\School\Fall 2017\CSCC85\Phase 1\Phase1---Little-Lost-Robot\Distro\pfilter prob.nxc"
4	8551	225	#line 8551 "NXCDefs.h"
4	8552	225		wait2 NA, __Wait_7qG2_ms_7qG2_000_inline_victory
4	8551	228	#line 8551 "NXCDefs.h"
4	143	228	#line 143 "C:\Users\Sakeeb\Documents\School\Fall 2017\CSCC85\Phase 1\Phase1---Little-Lost-Robot\Distro\pfilter prob.nxc"
4	143	228	#line 143 "C:\Users\Sakeeb\Documents\School\Fall 2017\CSCC85\Phase 1\Phase1---Little-Lost-Robot\Distro\pfilter prob.nxc"
4	144	228		set __signed_stack_001victory, 1047
4	143	231	#line 143 "C:\Users\Sakeeb\Documents\School\Fall 2017\CSCC85\Phase 1\Phase1---Little-Lost-Robot\Distro\pfilter prob.nxc"
4	143	231	#line 143 "C:\Users\Sakeeb\Documents\School\Fall 2017\CSCC85\Phase 1\Phase1---Little-Lost-Robot\Distro\pfilter prob.nxc"
4	144	231		set __signed_stack_002victory, 143
4	143	234	#line 143 "C:\Users\Sakeeb\Documents\School\Fall 2017\CSCC85\Phase 1\Phase1---Little-Lost-Robot\Distro\pfilter prob.nxc"
4	143	234	#line 143 "C:\Users\Sakeeb\Documents\School\Fall 2017\CSCC85\Phase 1\Phase1---Little-Lost-Robot\Distro\pfilter prob.nxc"
4	144	234		set __signed_stack_003victory, 2
4	143	237	#line 143 "C:\Users\Sakeeb\Documents\School\Fall 2017\CSCC85\Phase 1\Phase1---Little-Lost-Robot\Distro\pfilter prob.nxc"
4	143	237	#line 143 "C:\Users\Sakeeb\Documents\School\Fall 2017\CSCC85\Phase 1\Phase1---Little-Lost-Robot\Distro\pfilter prob.nxc"
4	144	237		set __D0victory, 0
4	144	240	#line 144 "C:\Users\Sakeeb\Documents\School\Fall 2017\CSCC85\Phase 1\Phase1---Little-Lost-Robot\Distro\pfilter prob.nxc"
4	145	240		acquire __SPTArgsMutex
4	144	241	#line 144 "C:\Users\Sakeeb\Documents\School\Fall 2017\CSCC85\Phase 1\Phase1---Little-Lost-Robot\Distro\pfilter prob.nxc"
4	145	241		mov __SPTArgs.Frequency, __signed_stack_001victory
4	144	244	#line 144 "C:\Users\Sakeeb\Documents\School\Fall 2017\CSCC85\Phase 1\Phase1---Little-Lost-Robot\Distro\pfilter prob.nxc"
4	145	244		mov __SPTArgs.Duration, __signed_stack_002victory
4	144	247	#line 144 "C:\Users\Sakeeb\Documents\School\Fall 2017\CSCC85\Phase 1\Phase1---Little-Lost-Robot\Distro\pfilter prob.nxc"
4	145	247		mov __SPTArgs.Volume, __signed_stack_003victory
4	144	250	#line 144 "C:\Users\Sakeeb\Documents\School\Fall 2017\CSCC85\Phase 1\Phase1---Little-Lost-Robot\Distro\pfilter prob.nxc"
4	145	250		mov __SPTArgs.Loop, __D0victory
4	144	253	#line 144 "C:\Users\Sakeeb\Documents\School\Fall 2017\CSCC85\Phase 1\Phase1---Little-Lost-Robot\Distro\pfilter prob.nxc"
4	145	253		syscall 10, __SPTArgs
4	144	256	#line 144 "C:\Users\Sakeeb\Documents\School\Fall 2017\CSCC85\Phase 1\Phase1---Little-Lost-Robot\Distro\pfilter prob.nxc"
4	145	256		mov __D0victory, __SPTArgs.Result
4	144	259	#line 144 "C:\Users\Sakeeb\Documents\School\Fall 2017\CSCC85\Phase 1\Phase1---Little-Lost-Robot\Distro\pfilter prob.nxc"
4	145	259		release __SPTArgsMutex
4	144	260	#line 144 "C:\Users\Sakeeb\Documents\School\Fall 2017\CSCC85\Phase 1\Phase1---Little-Lost-Robot\Distro\pfilter prob.nxc"
4	144	260	#line 144 "C:\Users\Sakeeb\Documents\School\Fall 2017\CSCC85\Phase 1\Phase1---Little-Lost-Robot\Distro\pfilter prob.nxc"
4	145	260		set __Wait_7qG2_ms_7qG2_000_inline_victory, 243
4	144	263	#line 144 "C:\Users\Sakeeb\Documents\School\Fall 2017\CSCC85\Phase 1\Phase1---Little-Lost-Robot\Distro\pfilter prob.nxc"
4	8551	263	#line 8551 "NXCDefs.h"
4	8552	263		wait2 NA, __Wait_7qG2_ms_7qG2_000_inline_victory
4	8551	266	#line 8551 "NXCDefs.h"
4	145	266	#line 145 "C:\Users\Sakeeb\Documents\School\Fall 2017\CSCC85\Phase 1\Phase1---Little-Lost-Robot\Distro\pfilter prob.nxc"
4	145	266	#line 145 "C:\Users\Sakeeb\Documents\School\Fall 2017\CSCC85\Phase 1\Phase1---Little-Lost-Robot\Distro\pfilter prob.nxc"
4	146	266		set __Wait_7qG2_ms_7qG2_000_inline_victory, 143
4	145	269	#line 145 "C:\Users\Sakeeb\Documents\School\Fall 2017\CSCC85\Phase 1\Phase1---Little-Lost-Robot\Distro\pfilter prob.nxc"
4	8551	269	#line 8551 "NXCDefs.h"
4	8552	269		wait2 NA, __Wait_7qG2_ms_7qG2_000_inline_victory
4	8551	272	#line 8551 "NXCDefs.h"
4	146	272	#line 146 "C:\Users\Sakeeb\Documents\School\Fall 2017\CSCC85\Phase 1\Phase1---Little-Lost-Robot\Distro\pfilter prob.nxc"
4	146	272	#line 146 "C:\Users\Sakeeb\Documents\School\Fall 2017\CSCC85\Phase 1\Phase1---Little-Lost-Robot\Distro\pfilter prob.nxc"
4	147	272		set __signed_stack_001victory, 932
4	146	275	#line 146 "C:\Users\Sakeeb\Documents\School\Fall 2017\CSCC85\Phase 1\Phase1---Little-Lost-Robot\Distro\pfilter prob.nxc"
4	146	275	#line 146 "C:\Users\Sakeeb\Documents\School\Fall 2017\CSCC85\Phase 1\Phase1---Little-Lost-Robot\Distro\pfilter prob.nxc"
4	147	275		set __signed_stack_002victory, 143
4	146	278	#line 146 "C:\Users\Sakeeb\Documents\School\Fall 2017\CSCC85\Phase 1\Phase1---Little-Lost-Robot\Distro\pfilter prob.nxc"
4	146	278	#line 146 "C:\Users\Sakeeb\Documents\School\Fall 2017\CSCC85\Phase 1\Phase1---Little-Lost-Robot\Distro\pfilter prob.nxc"
4	147	278		set __signed_stack_003victory, 2
4	146	281	#line 146 "C:\Users\Sakeeb\Documents\School\Fall 2017\CSCC85\Phase 1\Phase1---Little-Lost-Robot\Distro\pfilter prob.nxc"
4	146	281	#line 146 "C:\Users\Sakeeb\Documents\School\Fall 2017\CSCC85\Phase 1\Phase1---Little-Lost-Robot\Distro\pfilter prob.nxc"
4	147	281		set __D0victory, 0
4	147	284	#line 147 "C:\Users\Sakeeb\Documents\School\Fall 2017\CSCC85\Phase 1\Phase1---Little-Lost-Robot\Distro\pfilter prob.nxc"
4	148	284		acquire __SPTArgsMutex
4	147	285	#line 147 "C:\Users\Sakeeb\Documents\School\Fall 2017\CSCC85\Phase 1\Phase1---Little-Lost-Robot\Distro\pfilter prob.nxc"
4	148	285		mov __SPTArgs.Frequency, __signed_stack_001victory
4	147	288	#line 147 "C:\Users\Sakeeb\Documents\School\Fall 2017\CSCC85\Phase 1\Phase1---Little-Lost-Robot\Distro\pfilter prob.nxc"
4	148	288		mov __SPTArgs.Duration, __signed_stack_002victory
4	147	291	#line 147 "C:\Users\Sakeeb\Documents\School\Fall 2017\CSCC85\Phase 1\Phase1---Little-Lost-Robot\Distro\pfilter prob.nxc"
4	148	291		mov __SPTArgs.Volume, __signed_stack_003victory
4	147	294	#line 147 "C:\Users\Sakeeb\Documents\School\Fall 2017\CSCC85\Phase 1\Phase1---Little-Lost-Robot\Distro\pfilter prob.nxc"
4	148	294		mov __SPTArgs.Loop, __D0victory
4	147	297	#line 147 "C:\Users\Sakeeb\Documents\School\Fall 2017\CSCC85\Phase 1\Phase1---Little-Lost-Robot\Distro\pfilter prob.nxc"
4	148	297		syscall 10, __SPTArgs
4	147	300	#line 147 "C:\Users\Sakeeb\Documents\School\Fall 2017\CSCC85\Phase 1\Phase1---Little-Lost-Robot\Distro\pfilter prob.nxc"
4	148	300		mov __D0victory, __SPTArgs.Result
4	147	303	#line 147 "C:\Users\Sakeeb\Documents\School\Fall 2017\CSCC85\Phase 1\Phase1---Little-Lost-Robot\Distro\pfilter prob.nxc"
4	148	303		release __SPTArgsMutex
4	147	304	#line 147 "C:\Users\Sakeeb\Documents\School\Fall 2017\CSCC85\Phase 1\Phase1---Little-Lost-Robot\Distro\pfilter prob.nxc"
4	147	304	#line 147 "C:\Users\Sakeeb\Documents\School\Fall 2017\CSCC85\Phase 1\Phase1---Little-Lost-Robot\Distro\pfilter prob.nxc"
4	148	304		set __Wait_7qG2_ms_7qG2_000_inline_victory, 243
4	147	307	#line 147 "C:\Users\Sakeeb\Documents\School\Fall 2017\CSCC85\Phase 1\Phase1---Little-Lost-Robot\Distro\pfilter prob.nxc"
4	8551	307	#line 8551 "NXCDefs.h"
4	8552	307		wait2 NA, __Wait_7qG2_ms_7qG2_000_inline_victory
4	8551	310	#line 8551 "NXCDefs.h"
4	148	310	#line 148 "C:\Users\Sakeeb\Documents\School\Fall 2017\CSCC85\Phase 1\Phase1---Little-Lost-Robot\Distro\pfilter prob.nxc"
4	148	310	#line 148 "C:\Users\Sakeeb\Documents\School\Fall 2017\CSCC85\Phase 1\Phase1---Little-Lost-Robot\Distro\pfilter prob.nxc"
4	149	310		set __signed_stack_001victory, 1047
4	148	313	#line 148 "C:\Users\Sakeeb\Documents\School\Fall 2017\CSCC85\Phase 1\Phase1---Little-Lost-Robot\Distro\pfilter prob.nxc"
4	148	313	#line 148 "C:\Users\Sakeeb\Documents\School\Fall 2017\CSCC85\Phase 1\Phase1---Little-Lost-Robot\Distro\pfilter prob.nxc"
4	149	313		set __signed_stack_002victory, 1071
4	148	316	#line 148 "C:\Users\Sakeeb\Documents\School\Fall 2017\CSCC85\Phase 1\Phase1---Little-Lost-Robot\Distro\pfilter prob.nxc"
4	148	316	#line 148 "C:\Users\Sakeeb\Documents\School\Fall 2017\CSCC85\Phase 1\Phase1---Little-Lost-Robot\Distro\pfilter prob.nxc"
4	149	316		set __signed_stack_003victory, 2
4	148	319	#line 148 "C:\Users\Sakeeb\Documents\School\Fall 2017\CSCC85\Phase 1\Phase1---Little-Lost-Robot\Distro\pfilter prob.nxc"
4	148	319	#line 148 "C:\Users\Sakeeb\Documents\School\Fall 2017\CSCC85\Phase 1\Phase1---Little-Lost-Robot\Distro\pfilter prob.nxc"
4	149	319		set __D0victory, 0
4	149	322	#line 149 "C:\Users\Sakeeb\Documents\School\Fall 2017\CSCC85\Phase 1\Phase1---Little-Lost-Robot\Distro\pfilter prob.nxc"
4	150	322		acquire __SPTArgsMutex
4	149	323	#line 149 "C:\Users\Sakeeb\Documents\School\Fall 2017\CSCC85\Phase 1\Phase1---Little-Lost-Robot\Distro\pfilter prob.nxc"
4	150	323		mov __SPTArgs.Frequency, __signed_stack_001victory
4	149	326	#line 149 "C:\Users\Sakeeb\Documents\School\Fall 2017\CSCC85\Phase 1\Phase1---Little-Lost-Robot\Distro\pfilter prob.nxc"
4	150	326		mov __SPTArgs.Duration, __signed_stack_002victory
4	149	329	#line 149 "C:\Users\Sakeeb\Documents\School\Fall 2017\CSCC85\Phase 1\Phase1---Little-Lost-Robot\Distro\pfilter prob.nxc"
4	150	329		mov __SPTArgs.Volume, __signed_stack_003victory
4	149	332	#line 149 "C:\Users\Sakeeb\Documents\School\Fall 2017\CSCC85\Phase 1\Phase1---Little-Lost-Robot\Distro\pfilter prob.nxc"
4	150	332		mov __SPTArgs.Loop, __D0victory
4	149	335	#line 149 "C:\Users\Sakeeb\Documents\School\Fall 2017\CSCC85\Phase 1\Phase1---Little-Lost-Robot\Distro\pfilter prob.nxc"
4	150	335		syscall 10, __SPTArgs
4	149	338	#line 149 "C:\Users\Sakeeb\Documents\School\Fall 2017\CSCC85\Phase 1\Phase1---Little-Lost-Robot\Distro\pfilter prob.nxc"
4	150	338		mov __D0victory, __SPTArgs.Result
4	149	341	#line 149 "C:\Users\Sakeeb\Documents\School\Fall 2017\CSCC85\Phase 1\Phase1---Little-Lost-Robot\Distro\pfilter prob.nxc"
4	150	341		release __SPTArgsMutex
4	149	342	#line 149 "C:\Users\Sakeeb\Documents\School\Fall 2017\CSCC85\Phase 1\Phase1---Little-Lost-Robot\Distro\pfilter prob.nxc"
4	149	342	#line 149 "C:\Users\Sakeeb\Documents\School\Fall 2017\CSCC85\Phase 1\Phase1---Little-Lost-Robot\Distro\pfilter prob.nxc"
4	150	342		set __Wait_7qG2_ms_7qG2_000_inline_victory, 1171
4	149	345	#line 149 "C:\Users\Sakeeb\Documents\School\Fall 2017\CSCC85\Phase 1\Phase1---Little-Lost-Robot\Distro\pfilter prob.nxc"
4	8551	345	#line 8551 "NXCDefs.h"
4	8552	345		wait2 NA, __Wait_7qG2_ms_7qG2_000_inline_victory
4	8551	348	#line 8551 "NXCDefs.h"
4	152	348	#line 152 "C:\Users\Sakeeb\Documents\School\Fall 2017\CSCC85\Phase 1\Phase1---Little-Lost-Robot\Distro\pfilter prob.nxc"
4	152	348	#line 152 "C:\Users\Sakeeb\Documents\School\Fall 2017\CSCC85\Phase 1\Phase1---Little-Lost-Robot\Distro\pfilter prob.nxc"
4	153	348		set __signed_stack_001victory, 784
4	152	351	#line 152 "C:\Users\Sakeeb\Documents\School\Fall 2017\CSCC85\Phase 1\Phase1---Little-Lost-Robot\Distro\pfilter prob.nxc"
4	152	351	#line 152 "C:\Users\Sakeeb\Documents\School\Fall 2017\CSCC85\Phase 1\Phase1---Little-Lost-Robot\Distro\pfilter prob.nxc"
4	153	351		set __signed_stack_002victory, 429
4	152	354	#line 152 "C:\Users\Sakeeb\Documents\School\Fall 2017\CSCC85\Phase 1\Phase1---Little-Lost-Robot\Distro\pfilter prob.nxc"
4	152	354	#line 152 "C:\Users\Sakeeb\Documents\School\Fall 2017\CSCC85\Phase 1\Phase1---Little-Lost-Robot\Distro\pfilter prob.nxc"
4	153	354		set __signed_stack_003victory, 2
4	152	357	#line 152 "C:\Users\Sakeeb\Documents\School\Fall 2017\CSCC85\Phase 1\Phase1---Little-Lost-Robot\Distro\pfilter prob.nxc"
4	152	357	#line 152 "C:\Users\Sakeeb\Documents\School\Fall 2017\CSCC85\Phase 1\Phase1---Little-Lost-Robot\Distro\pfilter prob.nxc"
4	153	357		set __D0victory, 0
4	153	360	#line 153 "C:\Users\Sakeeb\Documents\School\Fall 2017\CSCC85\Phase 1\Phase1---Little-Lost-Robot\Distro\pfilter prob.nxc"
4	154	360		acquire __SPTArgsMutex
4	153	361	#line 153 "C:\Users\Sakeeb\Documents\School\Fall 2017\CSCC85\Phase 1\Phase1---Little-Lost-Robot\Distro\pfilter prob.nxc"
4	154	361		mov __SPTArgs.Frequency, __signed_stack_001victory
4	153	364	#line 153 "C:\Users\Sakeeb\Documents\School\Fall 2017\CSCC85\Phase 1\Phase1---Little-Lost-Robot\Distro\pfilter prob.nxc"
4	154	364		mov __SPTArgs.Duration, __signed_stack_002victory
4	153	367	#line 153 "C:\Users\Sakeeb\Documents\School\Fall 2017\CSCC85\Phase 1\Phase1---Little-Lost-Robot\Distro\pfilter prob.nxc"
4	154	367		mov __SPTArgs.Volume, __signed_stack_003victory
4	153	370	#line 153 "C:\Users\Sakeeb\Documents\School\Fall 2017\CSCC85\Phase 1\Phase1---Little-Lost-Robot\Distro\pfilter prob.nxc"
4	154	370		mov __SPTArgs.Loop, __D0victory
4	153	373	#line 153 "C:\Users\Sakeeb\Documents\School\Fall 2017\CSCC85\Phase 1\Phase1---Little-Lost-Robot\Distro\pfilter prob.nxc"
4	154	373		syscall 10, __SPTArgs
4	153	376	#line 153 "C:\Users\Sakeeb\Documents\School\Fall 2017\CSCC85\Phase 1\Phase1---Little-Lost-Robot\Distro\pfilter prob.nxc"
4	154	376		mov __D0victory, __SPTArgs.Result
4	153	379	#line 153 "C:\Users\Sakeeb\Documents\School\Fall 2017\CSCC85\Phase 1\Phase1---Little-Lost-Robot\Distro\pfilter prob.nxc"
4	154	379		release __SPTArgsMutex
4	153	380	#line 153 "C:\Users\Sakeeb\Documents\School\Fall 2017\CSCC85\Phase 1\Phase1---Little-Lost-Robot\Distro\pfilter prob.nxc"
4	153	380	#line 153 "C:\Users\Sakeeb\Documents\School\Fall 2017\CSCC85\Phase 1\Phase1---Little-Lost-Robot\Distro\pfilter prob.nxc"
4	154	380		set __Wait_7qG2_ms_7qG2_000_inline_victory, 529
4	153	383	#line 153 "C:\Users\Sakeeb\Documents\School\Fall 2017\CSCC85\Phase 1\Phase1---Little-Lost-Robot\Distro\pfilter prob.nxc"
4	8551	383	#line 8551 "NXCDefs.h"
4	8552	383		wait2 NA, __Wait_7qG2_ms_7qG2_000_inline_victory
4	8551	386	#line 8551 "NXCDefs.h"
4	156	386	#line 156 "C:\Users\Sakeeb\Documents\School\Fall 2017\CSCC85\Phase 1\Phase1---Little-Lost-Robot\Distro\pfilter prob.nxc"
4	156	386	#line 156 "C:\Users\Sakeeb\Documents\School\Fall 2017\CSCC85\Phase 1\Phase1---Little-Lost-Robot\Distro\pfilter prob.nxc"
4	157	386		set __signed_stack_001victory, 698
4	156	389	#line 156 "C:\Users\Sakeeb\Documents\School\Fall 2017\CSCC85\Phase 1\Phase1---Little-Lost-Robot\Distro\pfilter prob.nxc"
4	156	389	#line 156 "C:\Users\Sakeeb\Documents\School\Fall 2017\CSCC85\Phase 1\Phase1---Little-Lost-Robot\Distro\pfilter prob.nxc"
4	157	389		set __signed_stack_002victory, 429
4	156	392	#line 156 "C:\Users\Sakeeb\Documents\School\Fall 2017\CSCC85\Phase 1\Phase1---Little-Lost-Robot\Distro\pfilter prob.nxc"
4	156	392	#line 156 "C:\Users\Sakeeb\Documents\School\Fall 2017\CSCC85\Phase 1\Phase1---Little-Lost-Robot\Distro\pfilter prob.nxc"
4	157	392		set __signed_stack_003victory, 2
4	156	395	#line 156 "C:\Users\Sakeeb\Documents\School\Fall 2017\CSCC85\Phase 1\Phase1---Little-Lost-Robot\Distro\pfilter prob.nxc"
4	156	395	#line 156 "C:\Users\Sakeeb\Documents\School\Fall 2017\CSCC85\Phase 1\Phase1---Little-Lost-Robot\Distro\pfilter prob.nxc"
4	157	395		set __D0victory, 0
4	157	398	#line 157 "C:\Users\Sakeeb\Documents\School\Fall 2017\CSCC85\Phase 1\Phase1---Little-Lost-Robot\Distro\pfilter prob.nxc"
4	158	398		acquire __SPTArgsMutex
4	157	399	#line 157 "C:\Users\Sakeeb\Documents\School\Fall 2017\CSCC85\Phase 1\Phase1---Little-Lost-Robot\Distro\pfilter prob.nxc"
4	158	399		mov __SPTArgs.Frequency, __signed_stack_001victory
4	157	402	#line 157 "C:\Users\Sakeeb\Documents\School\Fall 2017\CSCC85\Phase 1\Phase1---Little-Lost-Robot\Distro\pfilter prob.nxc"
4	158	402		mov __SPTArgs.Duration, __signed_stack_002victory
4	157	405	#line 157 "C:\Users\Sakeeb\Documents\School\Fall 2017\CSCC85\Phase 1\Phase1---Little-Lost-Robot\Distro\pfilter prob.nxc"
4	158	405		mov __SPTArgs.Volume, __signed_stack_003victory
4	157	408	#line 157 "C:\Users\Sakeeb\Documents\School\Fall 2017\CSCC85\Phase 1\Phase1---Little-Lost-Robot\Distro\pfilter prob.nxc"
4	158	408		mov __SPTArgs.Loop, __D0victory
4	157	411	#line 157 "C:\Users\Sakeeb\Documents\School\Fall 2017\CSCC85\Phase 1\Phase1---Little-Lost-Robot\Distro\pfilter prob.nxc"
4	158	411		syscall 10, __SPTArgs
4	157	414	#line 157 "C:\Users\Sakeeb\Documents\School\Fall 2017\CSCC85\Phase 1\Phase1---Little-Lost-Robot\Distro\pfilter prob.nxc"
4	158	414		mov __D0victory, __SPTArgs.Result
4	157	417	#line 157 "C:\Users\Sakeeb\Documents\School\Fall 2017\CSCC85\Phase 1\Phase1---Little-Lost-Robot\Distro\pfilter prob.nxc"
4	158	417		release __SPTArgsMutex
4	157	418	#line 157 "C:\Users\Sakeeb\Documents\School\Fall 2017\CSCC85\Phase 1\Phase1---Little-Lost-Robot\Distro\pfilter prob.nxc"
4	157	418	#line 157 "C:\Users\Sakeeb\Documents\School\Fall 2017\CSCC85\Phase 1\Phase1---Little-Lost-Robot\Distro\pfilter prob.nxc"
4	158	418		set __Wait_7qG2_ms_7qG2_000_inline_victory, 529
4	157	421	#line 157 "C:\Users\Sakeeb\Documents\School\Fall 2017\CSCC85\Phase 1\Phase1---Little-Lost-Robot\Distro\pfilter prob.nxc"
4	8551	421	#line 8551 "NXCDefs.h"
4	8552	421		wait2 NA, __Wait_7qG2_ms_7qG2_000_inline_victory
4	8551	424	#line 8551 "NXCDefs.h"
4	160	424	#line 160 "C:\Users\Sakeeb\Documents\School\Fall 2017\CSCC85\Phase 1\Phase1---Little-Lost-Robot\Distro\pfilter prob.nxc"
4	160	424	#line 160 "C:\Users\Sakeeb\Documents\School\Fall 2017\CSCC85\Phase 1\Phase1---Little-Lost-Robot\Distro\pfilter prob.nxc"
4	161	424		set __signed_stack_001victory, 784
4	160	427	#line 160 "C:\Users\Sakeeb\Documents\School\Fall 2017\CSCC85\Phase 1\Phase1---Little-Lost-Robot\Distro\pfilter prob.nxc"
4	160	427	#line 160 "C:\Users\Sakeeb\Documents\School\Fall 2017\CSCC85\Phase 1\Phase1---Little-Lost-Robot\Distro\pfilter prob.nxc"
4	161	427		set __signed_stack_002victory, 429
4	160	430	#line 160 "C:\Users\Sakeeb\Documents\School\Fall 2017\CSCC85\Phase 1\Phase1---Little-Lost-Robot\Distro\pfilter prob.nxc"
4	160	430	#line 160 "C:\Users\Sakeeb\Documents\School\Fall 2017\CSCC85\Phase 1\Phase1---Little-Lost-Robot\Distro\pfilter prob.nxc"
4	161	430		set __signed_stack_003victory, 2
4	160	433	#line 160 "C:\Users\Sakeeb\Documents\School\Fall 2017\CSCC85\Phase 1\Phase1---Little-Lost-Robot\Distro\pfilter prob.nxc"
4	160	433	#line 160 "C:\Users\Sakeeb\Documents\School\Fall 2017\CSCC85\Phase 1\Phase1---Little-Lost-Robot\Distro\pfilter prob.nxc"
4	161	433		set __D0victory, 0
4	161	436	#line 161 "C:\Users\Sakeeb\Documents\School\Fall 2017\CSCC85\Phase 1\Phase1---Little-Lost-Robot\Distro\pfilter prob.nxc"
4	162	436		acquire __SPTArgsMutex
4	161	437	#line 161 "C:\Users\Sakeeb\Documents\School\Fall 2017\CSCC85\Phase 1\Phase1---Little-Lost-Robot\Distro\pfilter prob.nxc"
4	162	437		mov __SPTArgs.Frequency, __signed_stack_001victory
4	161	440	#line 161 "C:\Users\Sakeeb\Documents\School\Fall 2017\CSCC85\Phase 1\Phase1---Little-Lost-Robot\Distro\pfilter prob.nxc"
4	162	440		mov __SPTArgs.Duration, __signed_stack_002victory
4	161	443	#line 161 "C:\Users\Sakeeb\Documents\School\Fall 2017\CSCC85\Phase 1\Phase1---Little-Lost-Robot\Distro\pfilter prob.nxc"
4	162	443		mov __SPTArgs.Volume, __signed_stack_003victory
4	161	446	#line 161 "C:\Users\Sakeeb\Documents\School\Fall 2017\CSCC85\Phase 1\Phase1---Little-Lost-Robot\Distro\pfilter prob.nxc"
4	162	446		mov __SPTArgs.Loop, __D0victory
4	161	449	#line 161 "C:\Users\Sakeeb\Documents\School\Fall 2017\CSCC85\Phase 1\Phase1---Little-Lost-Robot\Distro\pfilter prob.nxc"
4	162	449		syscall 10, __SPTArgs
4	161	452	#line 161 "C:\Users\Sakeeb\Documents\School\Fall 2017\CSCC85\Phase 1\Phase1---Little-Lost-Robot\Distro\pfilter prob.nxc"
4	162	452		mov __D0victory, __SPTArgs.Result
4	161	455	#line 161 "C:\Users\Sakeeb\Documents\School\Fall 2017\CSCC85\Phase 1\Phase1---Little-Lost-Robot\Distro\pfilter prob.nxc"
4	162	455		release __SPTArgsMutex
4	161	456	#line 161 "C:\Users\Sakeeb\Documents\School\Fall 2017\CSCC85\Phase 1\Phase1---Little-Lost-Robot\Distro\pfilter prob.nxc"
4	161	456	#line 161 "C:\Users\Sakeeb\Documents\School\Fall 2017\CSCC85\Phase 1\Phase1---Little-Lost-Robot\Distro\pfilter prob.nxc"
4	162	456		set __Wait_7qG2_ms_7qG2_000_inline_victory, 529
4	161	459	#line 161 "C:\Users\Sakeeb\Documents\School\Fall 2017\CSCC85\Phase 1\Phase1---Little-Lost-Robot\Distro\pfilter prob.nxc"
4	8551	459	#line 8551 "NXCDefs.h"
4	8552	459		wait2 NA, __Wait_7qG2_ms_7qG2_000_inline_victory
4	8551	462	#line 8551 "NXCDefs.h"
4	164	462	#line 164 "C:\Users\Sakeeb\Documents\School\Fall 2017\CSCC85\Phase 1\Phase1---Little-Lost-Robot\Distro\pfilter prob.nxc"
4	164	462	#line 164 "C:\Users\Sakeeb\Documents\School\Fall 2017\CSCC85\Phase 1\Phase1---Little-Lost-Robot\Distro\pfilter prob.nxc"
4	165	462		set __signed_stack_001victory, 698
4	164	465	#line 164 "C:\Users\Sakeeb\Documents\School\Fall 2017\CSCC85\Phase 1\Phase1---Little-Lost-Robot\Distro\pfilter prob.nxc"
4	164	465	#line 164 "C:\Users\Sakeeb\Documents\School\Fall 2017\CSCC85\Phase 1\Phase1---Little-Lost-Robot\Distro\pfilter prob.nxc"
4	165	465		set __signed_stack_002victory, 215
4	164	468	#line 164 "C:\Users\Sakeeb\Documents\School\Fall 2017\CSCC85\Phase 1\Phase1---Little-Lost-Robot\Distro\pfilter prob.nxc"
4	164	468	#line 164 "C:\Users\Sakeeb\Documents\School\Fall 2017\CSCC85\Phase 1\Phase1---Little-Lost-Robot\Distro\pfilter prob.nxc"
4	165	468		set __signed_stack_003victory, 2
4	164	471	#line 164 "C:\Users\Sakeeb\Documents\School\Fall 2017\CSCC85\Phase 1\Phase1---Little-Lost-Robot\Distro\pfilter prob.nxc"
4	164	471	#line 164 "C:\Users\Sakeeb\Documents\School\Fall 2017\CSCC85\Phase 1\Phase1---Little-Lost-Robot\Distro\pfilter prob.nxc"
4	165	471		set __D0victory, 0
4	165	474	#line 165 "C:\Users\Sakeeb\Documents\School\Fall 2017\CSCC85\Phase 1\Phase1---Little-Lost-Robot\Distro\pfilter prob.nxc"
4	166	474		acquire __SPTArgsMutex
4	165	475	#line 165 "C:\Users\Sakeeb\Documents\School\Fall 2017\CSCC85\Phase 1\Phase1---Little-Lost-Robot\Distro\pfilter prob.nxc"
4	166	475		mov __SPTArgs.Frequency, __signed_stack_001victory
4	165	478	#line 165 "C:\Users\Sakeeb\Documents\School\Fall 2017\CSCC85\Phase 1\Phase1---Little-Lost-Robot\Distro\pfilter prob.nxc"
4	166	478		mov __SPTArgs.Duration, __signed_stack_002victory
4	165	481	#line 165 "C:\Users\Sakeeb\Documents\School\Fall 2017\CSCC85\Phase 1\Phase1---Little-Lost-Robot\Distro\pfilter prob.nxc"
4	166	481		mov __SPTArgs.Volume, __signed_stack_003victory
4	165	484	#line 165 "C:\Users\Sakeeb\Documents\School\Fall 2017\CSCC85\Phase 1\Phase1---Little-Lost-Robot\Distro\pfilter prob.nxc"
4	166	484		mov __SPTArgs.Loop, __D0victory
4	165	487	#line 165 "C:\Users\Sakeeb\Documents\School\Fall 2017\CSCC85\Phase 1\Phase1---Little-Lost-Robot\Distro\pfilter prob.nxc"
4	166	487		syscall 10, __SPTArgs
4	165	490	#line 165 "C:\Users\Sakeeb\Documents\School\Fall 2017\CSCC85\Phase 1\Phase1---Little-Lost-Robot\Distro\pfilter prob.nxc"
4	166	490		mov __D0victory, __SPTArgs.Result
4	165	493	#line 165 "C:\Users\Sakeeb\Documents\School\Fall 2017\CSCC85\Phase 1\Phase1---Little-Lost-Robot\Distro\pfilter prob.nxc"
4	166	493		release __SPTArgsMutex
4	165	494	#line 165 "C:\Users\Sakeeb\Documents\School\Fall 2017\CSCC85\Phase 1\Phase1---Little-Lost-Robot\Distro\pfilter prob.nxc"
4	165	494	#line 165 "C:\Users\Sakeeb\Documents\School\Fall 2017\CSCC85\Phase 1\Phase1---Little-Lost-Robot\Distro\pfilter prob.nxc"
4	166	494		set __Wait_7qG2_ms_7qG2_000_inline_victory, 315
4	165	497	#line 165 "C:\Users\Sakeeb\Documents\School\Fall 2017\CSCC85\Phase 1\Phase1---Little-Lost-Robot\Distro\pfilter prob.nxc"
4	8551	497	#line 8551 "NXCDefs.h"
4	8552	497		wait2 NA, __Wait_7qG2_ms_7qG2_000_inline_victory
4	8551	500	#line 8551 "NXCDefs.h"
4	168	500	#line 168 "C:\Users\Sakeeb\Documents\School\Fall 2017\CSCC85\Phase 1\Phase1---Little-Lost-Robot\Distro\pfilter prob.nxc"
4	168	500	#line 168 "C:\Users\Sakeeb\Documents\School\Fall 2017\CSCC85\Phase 1\Phase1---Little-Lost-Robot\Distro\pfilter prob.nxc"
4	169	500		set __signed_stack_001victory, 932
4	168	503	#line 168 "C:\Users\Sakeeb\Documents\School\Fall 2017\CSCC85\Phase 1\Phase1---Little-Lost-Robot\Distro\pfilter prob.nxc"
4	168	503	#line 168 "C:\Users\Sakeeb\Documents\School\Fall 2017\CSCC85\Phase 1\Phase1---Little-Lost-Robot\Distro\pfilter prob.nxc"
4	169	503		set __signed_stack_002victory, 429
4	168	506	#line 168 "C:\Users\Sakeeb\Documents\School\Fall 2017\CSCC85\Phase 1\Phase1---Little-Lost-Robot\Distro\pfilter prob.nxc"
4	168	506	#line 168 "C:\Users\Sakeeb\Documents\School\Fall 2017\CSCC85\Phase 1\Phase1---Little-Lost-Robot\Distro\pfilter prob.nxc"
4	169	506		set __signed_stack_003victory, 2
4	168	509	#line 168 "C:\Users\Sakeeb\Documents\School\Fall 2017\CSCC85\Phase 1\Phase1---Little-Lost-Robot\Distro\pfilter prob.nxc"
4	168	509	#line 168 "C:\Users\Sakeeb\Documents\School\Fall 2017\CSCC85\Phase 1\Phase1---Little-Lost-Robot\Distro\pfilter prob.nxc"
4	169	509		set __D0victory, 0
4	169	512	#line 169 "C:\Users\Sakeeb\Documents\School\Fall 2017\CSCC85\Phase 1\Phase1---Little-Lost-Robot\Distro\pfilter prob.nxc"
4	170	512		acquire __SPTArgsMutex
4	169	513	#line 169 "C:\Users\Sakeeb\Documents\School\Fall 2017\CSCC85\Phase 1\Phase1---Little-Lost-Robot\Distro\pfilter prob.nxc"
4	170	513		mov __SPTArgs.Frequency, __signed_stack_001victory
4	169	516	#line 169 "C:\Users\Sakeeb\Documents\School\Fall 2017\CSCC85\Phase 1\Phase1---Little-Lost-Robot\Distro\pfilter prob.nxc"
4	170	516		mov __SPTArgs.Duration, __signed_stack_002victory
4	169	519	#line 169 "C:\Users\Sakeeb\Documents\School\Fall 2017\CSCC85\Phase 1\Phase1---Little-Lost-Robot\Distro\pfilter prob.nxc"
4	170	519		mov __SPTArgs.Volume, __signed_stack_003victory
4	169	522	#line 169 "C:\Users\Sakeeb\Documents\School\Fall 2017\CSCC85\Phase 1\Phase1---Little-Lost-Robot\Distro\pfilter prob.nxc"
4	170	522		mov __SPTArgs.Loop, __D0victory
4	169	525	#line 169 "C:\Users\Sakeeb\Documents\School\Fall 2017\CSCC85\Phase 1\Phase1---Little-Lost-Robot\Distro\pfilter prob.nxc"
4	170	525		syscall 10, __SPTArgs
4	169	528	#line 169 "C:\Users\Sakeeb\Documents\School\Fall 2017\CSCC85\Phase 1\Phase1---Little-Lost-Robot\Distro\pfilter prob.nxc"
4	170	528		mov __D0victory, __SPTArgs.Result
4	169	531	#line 169 "C:\Users\Sakeeb\Documents\School\Fall 2017\CSCC85\Phase 1\Phase1---Little-Lost-Robot\Distro\pfilter prob.nxc"
4	170	531		release __SPTArgsMutex
4	169	532	#line 169 "C:\Users\Sakeeb\Documents\School\Fall 2017\CSCC85\Phase 1\Phase1---Little-Lost-Robot\Distro\pfilter prob.nxc"
4	169	532	#line 169 "C:\Users\Sakeeb\Documents\School\Fall 2017\CSCC85\Phase 1\Phase1---Little-Lost-Robot\Distro\pfilter prob.nxc"
4	170	532		set __Wait_7qG2_ms_7qG2_000_inline_victory, 529
4	169	535	#line 169 "C:\Users\Sakeeb\Documents\School\Fall 2017\CSCC85\Phase 1\Phase1---Little-Lost-Robot\Distro\pfilter prob.nxc"
4	8551	535	#line 8551 "NXCDefs.h"
4	8552	535		wait2 NA, __Wait_7qG2_ms_7qG2_000_inline_victory
4	8551	538	#line 8551 "NXCDefs.h"
4	172	538	#line 172 "C:\Users\Sakeeb\Documents\School\Fall 2017\CSCC85\Phase 1\Phase1---Little-Lost-Robot\Distro\pfilter prob.nxc"
4	172	538	#line 172 "C:\Users\Sakeeb\Documents\School\Fall 2017\CSCC85\Phase 1\Phase1---Little-Lost-Robot\Distro\pfilter prob.nxc"
4	173	538		set __signed_stack_001victory, 932
4	172	541	#line 172 "C:\Users\Sakeeb\Documents\School\Fall 2017\CSCC85\Phase 1\Phase1---Little-Lost-Robot\Distro\pfilter prob.nxc"
4	172	541	#line 172 "C:\Users\Sakeeb\Documents\School\Fall 2017\CSCC85\Phase 1\Phase1---Little-Lost-Robot\Distro\pfilter prob.nxc"
4	173	541		set __signed_stack_002victory, 215
4	172	544	#line 172 "C:\Users\Sakeeb\Documents\School\Fall 2017\CSCC85\Phase 1\Phase1---Little-Lost-Robot\Distro\pfilter prob.nxc"
4	172	544	#line 172 "C:\Users\Sakeeb\Documents\School\Fall 2017\CSCC85\Phase 1\Phase1---Little-Lost-Robot\Distro\pfilter prob.nxc"
4	173	544		set __signed_stack_003victory, 2
4	172	547	#line 172 "C:\Users\Sakeeb\Documents\School\Fall 2017\CSCC85\Phase 1\Phase1---Little-Lost-Robot\Distro\pfilter prob.nxc"
4	172	547	#line 172 "C:\Users\Sakeeb\Documents\School\Fall 2017\CSCC85\Phase 1\Phase1---Little-Lost-Robot\Distro\pfilter prob.nxc"
4	173	547		set __D0victory, 0
4	173	550	#line 173 "C:\Users\Sakeeb\Documents\School\Fall 2017\CSCC85\Phase 1\Phase1---Little-Lost-Robot\Distro\pfilter prob.nxc"
4	174	550		acquire __SPTArgsMutex
4	173	551	#line 173 "C:\Users\Sakeeb\Documents\School\Fall 2017\CSCC85\Phase 1\Phase1---Little-Lost-Robot\Distro\pfilter prob.nxc"
4	174	551		mov __SPTArgs.Frequency, __signed_stack_001victory
4	173	554	#line 173 "C:\Users\Sakeeb\Documents\School\Fall 2017\CSCC85\Phase 1\Phase1---Little-Lost-Robot\Distro\pfilter prob.nxc"
4	174	554		mov __SPTArgs.Duration, __signed_stack_002victory
4	173	557	#line 173 "C:\Users\Sakeeb\Documents\School\Fall 2017\CSCC85\Phase 1\Phase1---Little-Lost-Robot\Distro\pfilter prob.nxc"
4	174	557		mov __SPTArgs.Volume, __signed_stack_003victory
4	173	560	#line 173 "C:\Users\Sakeeb\Documents\School\Fall 2017\CSCC85\Phase 1\Phase1---Little-Lost-Robot\Distro\pfilter prob.nxc"
4	174	560		mov __SPTArgs.Loop, __D0victory
4	173	563	#line 173 "C:\Users\Sakeeb\Documents\School\Fall 2017\CSCC85\Phase 1\Phase1---Little-Lost-Robot\Distro\pfilter prob.nxc"
4	174	563		syscall 10, __SPTArgs
4	173	566	#line 173 "C:\Users\Sakeeb\Documents\School\Fall 2017\CSCC85\Phase 1\Phase1---Little-Lost-Robot\Distro\pfilter prob.nxc"
4	174	566		mov __D0victory, __SPTArgs.Result
4	173	569	#line 173 "C:\Users\Sakeeb\Documents\School\Fall 2017\CSCC85\Phase 1\Phase1---Little-Lost-Robot\Distro\pfilter prob.nxc"
4	174	569		release __SPTArgsMutex
4	173	570	#line 173 "C:\Users\Sakeeb\Documents\School\Fall 2017\CSCC85\Phase 1\Phase1---Little-Lost-Robot\Distro\pfilter prob.nxc"
4	173	570	#line 173 "C:\Users\Sakeeb\Documents\School\Fall 2017\CSCC85\Phase 1\Phase1---Little-Lost-Robot\Distro\pfilter prob.nxc"
4	174	570		set __Wait_7qG2_ms_7qG2_000_inline_victory, 315
4	173	573	#line 173 "C:\Users\Sakeeb\Documents\School\Fall 2017\CSCC85\Phase 1\Phase1---Little-Lost-Robot\Distro\pfilter prob.nxc"
4	8551	573	#line 8551 "NXCDefs.h"
4	8552	573		wait2 NA, __Wait_7qG2_ms_7qG2_000_inline_victory
4	8551	576	#line 8551 "NXCDefs.h"
4	176	576	#line 176 "C:\Users\Sakeeb\Documents\School\Fall 2017\CSCC85\Phase 1\Phase1---Little-Lost-Robot\Distro\pfilter prob.nxc"
4	176	576	#line 176 "C:\Users\Sakeeb\Documents\School\Fall 2017\CSCC85\Phase 1\Phase1---Little-Lost-Robot\Distro\pfilter prob.nxc"
4	177	576		set __signed_stack_001victory, 880
4	176	579	#line 176 "C:\Users\Sakeeb\Documents\School\Fall 2017\CSCC85\Phase 1\Phase1---Little-Lost-Robot\Distro\pfilter prob.nxc"
4	176	579	#line 176 "C:\Users\Sakeeb\Documents\School\Fall 2017\CSCC85\Phase 1\Phase1---Little-Lost-Robot\Distro\pfilter prob.nxc"
4	177	579		set __signed_stack_002victory, 429
4	176	582	#line 176 "C:\Users\Sakeeb\Documents\School\Fall 2017\CSCC85\Phase 1\Phase1---Little-Lost-Robot\Distro\pfilter prob.nxc"
4	176	582	#line 176 "C:\Users\Sakeeb\Documents\School\Fall 2017\CSCC85\Phase 1\Phase1---Little-Lost-Robot\Distro\pfilter prob.nxc"
4	177	582		set __signed_stack_003victory, 2
4	176	585	#line 176 "C:\Users\Sakeeb\Documents\School\Fall 2017\CSCC85\Phase 1\Phase1---Little-Lost-Robot\Distro\pfilter prob.nxc"
4	176	585	#line 176 "C:\Users\Sakeeb\Documents\School\Fall 2017\CSCC85\Phase 1\Phase1---Little-Lost-Robot\Distro\pfilter prob.nxc"
4	177	585		set __D0victory, 0
4	177	588	#line 177 "C:\Users\Sakeeb\Documents\School\Fall 2017\CSCC85\Phase 1\Phase1---Little-Lost-Robot\Distro\pfilter prob.nxc"
4	178	588		acquire __SPTArgsMutex
4	177	589	#line 177 "C:\Users\Sakeeb\Documents\School\Fall 2017\CSCC85\Phase 1\Phase1---Little-Lost-Robot\Distro\pfilter prob.nxc"
4	178	589		mov __SPTArgs.Frequency, __signed_stack_001victory
4	177	592	#line 177 "C:\Users\Sakeeb\Documents\School\Fall 2017\CSCC85\Phase 1\Phase1---Little-Lost-Robot\Distro\pfilter prob.nxc"
4	178	592		mov __SPTArgs.Duration, __signed_stack_002victory
4	177	595	#line 177 "C:\Users\Sakeeb\Documents\School\Fall 2017\CSCC85\Phase 1\Phase1---Little-Lost-Robot\Distro\pfilter prob.nxc"
4	178	595		mov __SPTArgs.Volume, __signed_stack_003victory
4	177	598	#line 177 "C:\Users\Sakeeb\Documents\School\Fall 2017\CSCC85\Phase 1\Phase1---Little-Lost-Robot\Distro\pfilter prob.nxc"
4	178	598		mov __SPTArgs.Loop, __D0victory
4	177	601	#line 177 "C:\Users\Sakeeb\Documents\School\Fall 2017\CSCC85\Phase 1\Phase1---Little-Lost-Robot\Distro\pfilter prob.nxc"
4	178	601		syscall 10, __SPTArgs
4	177	604	#line 177 "C:\Users\Sakeeb\Documents\School\Fall 2017\CSCC85\Phase 1\Phase1---Little-Lost-Robot\Distro\pfilter prob.nxc"
4	178	604		mov __D0victory, __SPTArgs.Result
4	177	607	#line 177 "C:\Users\Sakeeb\Documents\School\Fall 2017\CSCC85\Phase 1\Phase1---Little-Lost-Robot\Distro\pfilter prob.nxc"
4	178	607		release __SPTArgsMutex
4	177	608	#line 177 "C:\Users\Sakeeb\Documents\School\Fall 2017\CSCC85\Phase 1\Phase1---Little-Lost-Robot\Distro\pfilter prob.nxc"
4	177	608	#line 177 "C:\Users\Sakeeb\Documents\School\Fall 2017\CSCC85\Phase 1\Phase1---Little-Lost-Robot\Distro\pfilter prob.nxc"
4	178	608		set __Wait_7qG2_ms_7qG2_000_inline_victory, 529
4	177	611	#line 177 "C:\Users\Sakeeb\Documents\School\Fall 2017\CSCC85\Phase 1\Phase1---Little-Lost-Robot\Distro\pfilter prob.nxc"
4	8551	611	#line 8551 "NXCDefs.h"
4	8552	611		wait2 NA, __Wait_7qG2_ms_7qG2_000_inline_victory
4	8551	614	#line 8551 "NXCDefs.h"
4	180	614	#line 180 "C:\Users\Sakeeb\Documents\School\Fall 2017\CSCC85\Phase 1\Phase1---Little-Lost-Robot\Distro\pfilter prob.nxc"
4	180	614	#line 180 "C:\Users\Sakeeb\Documents\School\Fall 2017\CSCC85\Phase 1\Phase1---Little-Lost-Robot\Distro\pfilter prob.nxc"
4	181	614		set __signed_stack_001victory, 932
4	180	617	#line 180 "C:\Users\Sakeeb\Documents\School\Fall 2017\CSCC85\Phase 1\Phase1---Little-Lost-Robot\Distro\pfilter prob.nxc"
4	180	617	#line 180 "C:\Users\Sakeeb\Documents\School\Fall 2017\CSCC85\Phase 1\Phase1---Little-Lost-Robot\Distro\pfilter prob.nxc"
4	181	617		set __signed_stack_002victory, 215
4	180	620	#line 180 "C:\Users\Sakeeb\Documents\School\Fall 2017\CSCC85\Phase 1\Phase1---Little-Lost-Robot\Distro\pfilter prob.nxc"
4	180	620	#line 180 "C:\Users\Sakeeb\Documents\School\Fall 2017\CSCC85\Phase 1\Phase1---Little-Lost-Robot\Distro\pfilter prob.nxc"
4	181	620		set __signed_stack_003victory, 2
4	180	623	#line 180 "C:\Users\Sakeeb\Documents\School\Fall 2017\CSCC85\Phase 1\Phase1---Little-Lost-Robot\Distro\pfilter prob.nxc"
4	180	623	#line 180 "C:\Users\Sakeeb\Documents\School\Fall 2017\CSCC85\Phase 1\Phase1---Little-Lost-Robot\Distro\pfilter prob.nxc"
4	181	623		set __D0victory, 0
4	181	626	#line 181 "C:\Users\Sakeeb\Documents\School\Fall 2017\CSCC85\Phase 1\Phase1---Little-Lost-Robot\Distro\pfilter prob.nxc"
4	182	626		acquire __SPTArgsMutex
4	181	627	#line 181 "C:\Users\Sakeeb\Documents\School\Fall 2017\CSCC85\Phase 1\Phase1---Little-Lost-Robot\Distro\pfilter prob.nxc"
4	182	627		mov __SPTArgs.Frequency, __signed_stack_001victory
4	181	630	#line 181 "C:\Users\Sakeeb\Documents\School\Fall 2017\CSCC85\Phase 1\Phase1---Little-Lost-Robot\Distro\pfilter prob.nxc"
4	182	630		mov __SPTArgs.Duration, __signed_stack_002victory
4	181	633	#line 181 "C:\Users\Sakeeb\Documents\School\Fall 2017\CSCC85\Phase 1\Phase1---Little-Lost-Robot\Distro\pfilter prob.nxc"
4	182	633		mov __SPTArgs.Volume, __signed_stack_003victory
4	181	636	#line 181 "C:\Users\Sakeeb\Documents\School\Fall 2017\CSCC85\Phase 1\Phase1---Little-Lost-Robot\Distro\pfilter prob.nxc"
4	182	636		mov __SPTArgs.Loop, __D0victory
4	181	639	#line 181 "C:\Users\Sakeeb\Documents\School\Fall 2017\CSCC85\Phase 1\Phase1---Little-Lost-Robot\Distro\pfilter prob.nxc"
4	182	639		syscall 10, __SPTArgs
4	181	642	#line 181 "C:\Users\Sakeeb\Documents\School\Fall 2017\CSCC85\Phase 1\Phase1---Little-Lost-Robot\Distro\pfilter prob.nxc"
4	182	642		mov __D0victory, __SPTArgs.Result
4	181	645	#line 181 "C:\Users\Sakeeb\Documents\School\Fall 2017\CSCC85\Phase 1\Phase1---Little-Lost-Robot\Distro\pfilter prob.nxc"
4	182	645		release __SPTArgsMutex
4	181	646	#line 181 "C:\Users\Sakeeb\Documents\School\Fall 2017\CSCC85\Phase 1\Phase1---Little-Lost-Robot\Distro\pfilter prob.nxc"
4	181	646	#line 181 "C:\Users\Sakeeb\Documents\School\Fall 2017\CSCC85\Phase 1\Phase1---Little-Lost-Robot\Distro\pfilter prob.nxc"
4	182	646		set __Wait_7qG2_ms_7qG2_000_inline_victory, 315
4	181	649	#line 181 "C:\Users\Sakeeb\Documents\School\Fall 2017\CSCC85\Phase 1\Phase1---Little-Lost-Robot\Distro\pfilter prob.nxc"
4	8551	649	#line 8551 "NXCDefs.h"
4	8552	649		wait2 NA, __Wait_7qG2_ms_7qG2_000_inline_victory
4	8551	652	#line 8551 "NXCDefs.h"
4	184	652	#line 184 "C:\Users\Sakeeb\Documents\School\Fall 2017\CSCC85\Phase 1\Phase1---Little-Lost-Robot\Distro\pfilter prob.nxc"
4	184	652	#line 184 "C:\Users\Sakeeb\Documents\School\Fall 2017\CSCC85\Phase 1\Phase1---Little-Lost-Robot\Distro\pfilter prob.nxc"
4	185	652		set __signed_stack_001victory, 880
4	184	655	#line 184 "C:\Users\Sakeeb\Documents\School\Fall 2017\CSCC85\Phase 1\Phase1---Little-Lost-Robot\Distro\pfilter prob.nxc"
4	184	655	#line 184 "C:\Users\Sakeeb\Documents\School\Fall 2017\CSCC85\Phase 1\Phase1---Little-Lost-Robot\Distro\pfilter prob.nxc"
4	185	655		set __signed_stack_002victory, 429
4	184	658	#line 184 "C:\Users\Sakeeb\Documents\School\Fall 2017\CSCC85\Phase 1\Phase1---Little-Lost-Robot\Distro\pfilter prob.nxc"
4	184	658	#line 184 "C:\Users\Sakeeb\Documents\School\Fall 2017\CSCC85\Phase 1\Phase1---Little-Lost-Robot\Distro\pfilter prob.nxc"
4	185	658		set __signed_stack_003victory, 2
4	184	661	#line 184 "C:\Users\Sakeeb\Documents\School\Fall 2017\CSCC85\Phase 1\Phase1---Little-Lost-Robot\Distro\pfilter prob.nxc"
4	184	661	#line 184 "C:\Users\Sakeeb\Documents\School\Fall 2017\CSCC85\Phase 1\Phase1---Little-Lost-Robot\Distro\pfilter prob.nxc"
4	185	661		set __D0victory, 0
4	185	664	#line 185 "C:\Users\Sakeeb\Documents\School\Fall 2017\CSCC85\Phase 1\Phase1---Little-Lost-Robot\Distro\pfilter prob.nxc"
4	186	664		acquire __SPTArgsMutex
4	185	665	#line 185 "C:\Users\Sakeeb\Documents\School\Fall 2017\CSCC85\Phase 1\Phase1---Little-Lost-Robot\Distro\pfilter prob.nxc"
4	186	665		mov __SPTArgs.Frequency, __signed_stack_001victory
4	185	668	#line 185 "C:\Users\Sakeeb\Documents\School\Fall 2017\CSCC85\Phase 1\Phase1---Little-Lost-Robot\Distro\pfilter prob.nxc"
4	186	668		mov __SPTArgs.Duration, __signed_stack_002victory
4	185	671	#line 185 "C:\Users\Sakeeb\Documents\School\Fall 2017\CSCC85\Phase 1\Phase1---Little-Lost-Robot\Distro\pfilter prob.nxc"
4	186	671		mov __SPTArgs.Volume, __signed_stack_003victory
4	185	674	#line 185 "C:\Users\Sakeeb\Documents\School\Fall 2017\CSCC85\Phase 1\Phase1---Little-Lost-Robot\Distro\pfilter prob.nxc"
4	186	674		mov __SPTArgs.Loop, __D0victory
4	185	677	#line 185 "C:\Users\Sakeeb\Documents\School\Fall 2017\CSCC85\Phase 1\Phase1---Little-Lost-Robot\Distro\pfilter prob.nxc"
4	186	677		syscall 10, __SPTArgs
4	185	680	#line 185 "C:\Users\Sakeeb\Documents\School\Fall 2017\CSCC85\Phase 1\Phase1---Little-Lost-Robot\Distro\pfilter prob.nxc"
4	186	680		mov __D0victory, __SPTArgs.Result
4	185	683	#line 185 "C:\Users\Sakeeb\Documents\School\Fall 2017\CSCC85\Phase 1\Phase1---Little-Lost-Robot\Distro\pfilter prob.nxc"
4	186	683		release __SPTArgsMutex
4	185	684	#line 185 "C:\Users\Sakeeb\Documents\School\Fall 2017\CSCC85\Phase 1\Phase1---Little-Lost-Robot\Distro\pfilter prob.nxc"
4	185	684	#line 185 "C:\Users\Sakeeb\Documents\School\Fall 2017\CSCC85\Phase 1\Phase1---Little-Lost-Robot\Distro\pfilter prob.nxc"
4	186	684		set __Wait_7qG2_ms_7qG2_000_inline_victory, 529
4	185	687	#line 185 "C:\Users\Sakeeb\Documents\School\Fall 2017\CSCC85\Phase 1\Phase1---Little-Lost-Robot\Distro\pfilter prob.nxc"
4	8551	687	#line 8551 "NXCDefs.h"
4	8552	687		wait2 NA, __Wait_7qG2_ms_7qG2_000_inline_victory
4	8551	690	#line 8551 "NXCDefs.h"
4	188	690	#line 188 "C:\Users\Sakeeb\Documents\School\Fall 2017\CSCC85\Phase 1\Phase1---Little-Lost-Robot\Distro\pfilter prob.nxc"
4	188	690	#line 188 "C:\Users\Sakeeb\Documents\School\Fall 2017\CSCC85\Phase 1\Phase1---Little-Lost-Robot\Distro\pfilter prob.nxc"
4	189	690		set __signed_stack_001victory, 880
4	188	693	#line 188 "C:\Users\Sakeeb\Documents\School\Fall 2017\CSCC85\Phase 1\Phase1---Little-Lost-Robot\Distro\pfilter prob.nxc"
4	188	693	#line 188 "C:\Users\Sakeeb\Documents\School\Fall 2017\CSCC85\Phase 1\Phase1---Little-Lost-Robot\Distro\pfilter prob.nxc"
4	189	693		set __signed_stack_002victory, 215
4	188	696	#line 188 "C:\Users\Sakeeb\Documents\School\Fall 2017\CSCC85\Phase 1\Phase1---Little-Lost-Robot\Distro\pfilter prob.nxc"
4	188	696	#line 188 "C:\Users\Sakeeb\Documents\School\Fall 2017\CSCC85\Phase 1\Phase1---Little-Lost-Robot\Distro\pfilter prob.nxc"
4	189	696		set __signed_stack_003victory, 2
4	188	699	#line 188 "C:\Users\Sakeeb\Documents\School\Fall 2017\CSCC85\Phase 1\Phase1---Little-Lost-Robot\Distro\pfilter prob.nxc"
4	188	699	#line 188 "C:\Users\Sakeeb\Documents\School\Fall 2017\CSCC85\Phase 1\Phase1---Little-Lost-Robot\Distro\pfilter prob.nxc"
4	189	699		set __D0victory, 0
4	189	702	#line 189 "C:\Users\Sakeeb\Documents\School\Fall 2017\CSCC85\Phase 1\Phase1---Little-Lost-Robot\Distro\pfilter prob.nxc"
4	190	702		acquire __SPTArgsMutex
4	189	703	#line 189 "C:\Users\Sakeeb\Documents\School\Fall 2017\CSCC85\Phase 1\Phase1---Little-Lost-Robot\Distro\pfilter prob.nxc"
4	190	703		mov __SPTArgs.Frequency, __signed_stack_001victory
4	189	706	#line 189 "C:\Users\Sakeeb\Documents\School\Fall 2017\CSCC85\Phase 1\Phase1---Little-Lost-Robot\Distro\pfilter prob.nxc"
4	190	706		mov __SPTArgs.Duration, __signed_stack_002victory
4	189	709	#line 189 "C:\Users\Sakeeb\Documents\School\Fall 2017\CSCC85\Phase 1\Phase1---Little-Lost-Robot\Distro\pfilter prob.nxc"
4	190	709		mov __SPTArgs.Volume, __signed_stack_003victory
4	189	712	#line 189 "C:\Users\Sakeeb\Documents\School\Fall 2017\CSCC85\Phase 1\Phase1---Little-Lost-Robot\Distro\pfilter prob.nxc"
4	190	712		mov __SPTArgs.Loop, __D0victory
4	189	715	#line 189 "C:\Users\Sakeeb\Documents\School\Fall 2017\CSCC85\Phase 1\Phase1---Little-Lost-Robot\Distro\pfilter prob.nxc"
4	190	715		syscall 10, __SPTArgs
4	189	718	#line 189 "C:\Users\Sakeeb\Documents\School\Fall 2017\CSCC85\Phase 1\Phase1---Little-Lost-Robot\Distro\pfilter prob.nxc"
4	190	718		mov __D0victory, __SPTArgs.Result
4	189	721	#line 189 "C:\Users\Sakeeb\Documents\School\Fall 2017\CSCC85\Phase 1\Phase1---Little-Lost-Robot\Distro\pfilter prob.nxc"
4	190	721		release __SPTArgsMutex
4	189	722	#line 189 "C:\Users\Sakeeb\Documents\School\Fall 2017\CSCC85\Phase 1\Phase1---Little-Lost-Robot\Distro\pfilter prob.nxc"
4	189	722	#line 189 "C:\Users\Sakeeb\Documents\School\Fall 2017\CSCC85\Phase 1\Phase1---Little-Lost-Robot\Distro\pfilter prob.nxc"
4	190	722		set __Wait_7qG2_ms_7qG2_000_inline_victory, 315
4	189	725	#line 189 "C:\Users\Sakeeb\Documents\School\Fall 2017\CSCC85\Phase 1\Phase1---Little-Lost-Robot\Distro\pfilter prob.nxc"
4	8551	725	#line 8551 "NXCDefs.h"
4	8552	725		wait2 NA, __Wait_7qG2_ms_7qG2_000_inline_victory
4	8551	728	#line 8551 "NXCDefs.h"
4	192	728	#line 192 "C:\Users\Sakeeb\Documents\School\Fall 2017\CSCC85\Phase 1\Phase1---Little-Lost-Robot\Distro\pfilter prob.nxc"
4	192	728	#line 192 "C:\Users\Sakeeb\Documents\School\Fall 2017\CSCC85\Phase 1\Phase1---Little-Lost-Robot\Distro\pfilter prob.nxc"
4	193	728		set __signed_stack_001victory, 784
4	192	731	#line 192 "C:\Users\Sakeeb\Documents\School\Fall 2017\CSCC85\Phase 1\Phase1---Little-Lost-Robot\Distro\pfilter prob.nxc"
4	192	731	#line 192 "C:\Users\Sakeeb\Documents\School\Fall 2017\CSCC85\Phase 1\Phase1---Little-Lost-Robot\Distro\pfilter prob.nxc"
4	193	731		set __signed_stack_002victory, 429
4	192	734	#line 192 "C:\Users\Sakeeb\Documents\School\Fall 2017\CSCC85\Phase 1\Phase1---Little-Lost-Robot\Distro\pfilter prob.nxc"
4	192	734	#line 192 "C:\Users\Sakeeb\Documents\School\Fall 2017\CSCC85\Phase 1\Phase1---Little-Lost-Robot\Distro\pfilter prob.nxc"
4	193	734		set __signed_stack_003victory, 2
4	192	737	#line 192 "C:\Users\Sakeeb\Documents\School\Fall 2017\CSCC85\Phase 1\Phase1---Little-Lost-Robot\Distro\pfilter prob.nxc"
4	192	737	#line 192 "C:\Users\Sakeeb\Documents\School\Fall 2017\CSCC85\Phase 1\Phase1---Little-Lost-Robot\Distro\pfilter prob.nxc"
4	193	737		set __D0victory, 0
4	193	740	#line 193 "C:\Users\Sakeeb\Documents\School\Fall 2017\CSCC85\Phase 1\Phase1---Little-Lost-Robot\Distro\pfilter prob.nxc"
4	194	740		acquire __SPTArgsMutex
4	193	741	#line 193 "C:\Users\Sakeeb\Documents\School\Fall 2017\CSCC85\Phase 1\Phase1---Little-Lost-Robot\Distro\pfilter prob.nxc"
4	194	741		mov __SPTArgs.Frequency, __signed_stack_001victory
4	193	744	#line 193 "C:\Users\Sakeeb\Documents\School\Fall 2017\CSCC85\Phase 1\Phase1---Little-Lost-Robot\Distro\pfilter prob.nxc"
4	194	744		mov __SPTArgs.Duration, __signed_stack_002victory
4	193	747	#line 193 "C:\Users\Sakeeb\Documents\School\Fall 2017\CSCC85\Phase 1\Phase1---Little-Lost-Robot\Distro\pfilter prob.nxc"
4	194	747		mov __SPTArgs.Volume, __signed_stack_003victory
4	193	750	#line 193 "C:\Users\Sakeeb\Documents\School\Fall 2017\CSCC85\Phase 1\Phase1---Little-Lost-Robot\Distro\pfilter prob.nxc"
4	194	750		mov __SPTArgs.Loop, __D0victory
4	193	753	#line 193 "C:\Users\Sakeeb\Documents\School\Fall 2017\CSCC85\Phase 1\Phase1---Little-Lost-Robot\Distro\pfilter prob.nxc"
4	194	753		syscall 10, __SPTArgs
4	193	756	#line 193 "C:\Users\Sakeeb\Documents\School\Fall 2017\CSCC85\Phase 1\Phase1---Little-Lost-Robot\Distro\pfilter prob.nxc"
4	194	756		mov __D0victory, __SPTArgs.Result
4	193	759	#line 193 "C:\Users\Sakeeb\Documents\School\Fall 2017\CSCC85\Phase 1\Phase1---Little-Lost-Robot\Distro\pfilter prob.nxc"
4	194	759		release __SPTArgsMutex
4	193	760	#line 193 "C:\Users\Sakeeb\Documents\School\Fall 2017\CSCC85\Phase 1\Phase1---Little-Lost-Robot\Distro\pfilter prob.nxc"
4	193	760	#line 193 "C:\Users\Sakeeb\Documents\School\Fall 2017\CSCC85\Phase 1\Phase1---Little-Lost-Robot\Distro\pfilter prob.nxc"
4	194	760		set __Wait_7qG2_ms_7qG2_000_inline_victory, 529
4	193	763	#line 193 "C:\Users\Sakeeb\Documents\School\Fall 2017\CSCC85\Phase 1\Phase1---Little-Lost-Robot\Distro\pfilter prob.nxc"
4	8551	763	#line 8551 "NXCDefs.h"
4	8552	763		wait2 NA, __Wait_7qG2_ms_7qG2_000_inline_victory
4	8551	766	#line 8551 "NXCDefs.h"
4	196	766	#line 196 "C:\Users\Sakeeb\Documents\School\Fall 2017\CSCC85\Phase 1\Phase1---Little-Lost-Robot\Distro\pfilter prob.nxc"
4	196	766	#line 196 "C:\Users\Sakeeb\Documents\School\Fall 2017\CSCC85\Phase 1\Phase1---Little-Lost-Robot\Distro\pfilter prob.nxc"
4	197	766		set __signed_stack_001victory, 698
4	196	769	#line 196 "C:\Users\Sakeeb\Documents\School\Fall 2017\CSCC85\Phase 1\Phase1---Little-Lost-Robot\Distro\pfilter prob.nxc"
4	196	769	#line 196 "C:\Users\Sakeeb\Documents\School\Fall 2017\CSCC85\Phase 1\Phase1---Little-Lost-Robot\Distro\pfilter prob.nxc"
4	197	769		set __signed_stack_002victory, 429
4	196	772	#line 196 "C:\Users\Sakeeb\Documents\School\Fall 2017\CSCC85\Phase 1\Phase1---Little-Lost-Robot\Distro\pfilter prob.nxc"
4	196	772	#line 196 "C:\Users\Sakeeb\Documents\School\Fall 2017\CSCC85\Phase 1\Phase1---Little-Lost-Robot\Distro\pfilter prob.nxc"
4	197	772		set __signed_stack_003victory, 2
4	196	775	#line 196 "C:\Users\Sakeeb\Documents\School\Fall 2017\CSCC85\Phase 1\Phase1---Little-Lost-Robot\Distro\pfilter prob.nxc"
4	196	775	#line 196 "C:\Users\Sakeeb\Documents\School\Fall 2017\CSCC85\Phase 1\Phase1---Little-Lost-Robot\Distro\pfilter prob.nxc"
4	197	775		set __D0victory, 0
4	197	778	#line 197 "C:\Users\Sakeeb\Documents\School\Fall 2017\CSCC85\Phase 1\Phase1---Little-Lost-Robot\Distro\pfilter prob.nxc"
4	198	778		acquire __SPTArgsMutex
4	197	779	#line 197 "C:\Users\Sakeeb\Documents\School\Fall 2017\CSCC85\Phase 1\Phase1---Little-Lost-Robot\Distro\pfilter prob.nxc"
4	198	779		mov __SPTArgs.Frequency, __signed_stack_001victory
4	197	782	#line 197 "C:\Users\Sakeeb\Documents\School\Fall 2017\CSCC85\Phase 1\Phase1---Little-Lost-Robot\Distro\pfilter prob.nxc"
4	198	782		mov __SPTArgs.Duration, __signed_stack_002victory
4	197	785	#line 197 "C:\Users\Sakeeb\Documents\School\Fall 2017\CSCC85\Phase 1\Phase1---Little-Lost-Robot\Distro\pfilter prob.nxc"
4	198	785		mov __SPTArgs.Volume, __signed_stack_003victory
4	197	788	#line 197 "C:\Users\Sakeeb\Documents\School\Fall 2017\CSCC85\Phase 1\Phase1---Little-Lost-Robot\Distro\pfilter prob.nxc"
4	198	788		mov __SPTArgs.Loop, __D0victory
4	197	791	#line 197 "C:\Users\Sakeeb\Documents\School\Fall 2017\CSCC85\Phase 1\Phase1---Little-Lost-Robot\Distro\pfilter prob.nxc"
4	198	791		syscall 10, __SPTArgs
4	197	794	#line 197 "C:\Users\Sakeeb\Documents\School\Fall 2017\CSCC85\Phase 1\Phase1---Little-Lost-Robot\Distro\pfilter prob.nxc"
4	198	794		mov __D0victory, __SPTArgs.Result
4	197	797	#line 197 "C:\Users\Sakeeb\Documents\School\Fall 2017\CSCC85\Phase 1\Phase1---Little-Lost-Robot\Distro\pfilter prob.nxc"
4	198	797		release __SPTArgsMutex
4	197	798	#line 197 "C:\Users\Sakeeb\Documents\School\Fall 2017\CSCC85\Phase 1\Phase1---Little-Lost-Robot\Distro\pfilter prob.nxc"
4	197	798	#line 197 "C:\Users\Sakeeb\Documents\School\Fall 2017\CSCC85\Phase 1\Phase1---Little-Lost-Robot\Distro\pfilter prob.nxc"
4	198	798		set __Wait_7qG2_ms_7qG2_000_inline_victory, 529
4	197	801	#line 197 "C:\Users\Sakeeb\Documents\School\Fall 2017\CSCC85\Phase 1\Phase1---Little-Lost-Robot\Distro\pfilter prob.nxc"
4	8551	801	#line 8551 "NXCDefs.h"
4	8552	801		wait2 NA, __Wait_7qG2_ms_7qG2_000_inline_victory
4	8551	804	#line 8551 "NXCDefs.h"
4	200	804	#line 200 "C:\Users\Sakeeb\Documents\School\Fall 2017\CSCC85\Phase 1\Phase1---Little-Lost-Robot\Distro\pfilter prob.nxc"
4	200	804	#line 200 "C:\Users\Sakeeb\Documents\School\Fall 2017\CSCC85\Phase 1\Phase1---Little-Lost-Robot\Distro\pfilter prob.nxc"
4	201	804		set __signed_stack_001victory, 659
4	200	807	#line 200 "C:\Users\Sakeeb\Documents\School\Fall 2017\CSCC85\Phase 1\Phase1---Little-Lost-Robot\Distro\pfilter prob.nxc"
4	200	807	#line 200 "C:\Users\Sakeeb\Documents\School\Fall 2017\CSCC85\Phase 1\Phase1---Little-Lost-Robot\Distro\pfilter prob.nxc"
4	201	807		set __signed_stack_002victory, 429
4	200	810	#line 200 "C:\Users\Sakeeb\Documents\School\Fall 2017\CSCC85\Phase 1\Phase1---Little-Lost-Robot\Distro\pfilter prob.nxc"
4	200	810	#line 200 "C:\Users\Sakeeb\Documents\School\Fall 2017\CSCC85\Phase 1\Phase1---Little-Lost-Robot\Distro\pfilter prob.nxc"
4	201	810		set __signed_stack_003victory, 2
4	200	813	#line 200 "C:\Users\Sakeeb\Documents\School\Fall 2017\CSCC85\Phase 1\Phase1---Little-Lost-Robot\Distro\pfilter prob.nxc"
4	200	813	#line 200 "C:\Users\Sakeeb\Documents\School\Fall 2017\CSCC85\Phase 1\Phase1---Little-Lost-Robot\Distro\pfilter prob.nxc"
4	201	813		set __D0victory, 0
4	201	816	#line 201 "C:\Users\Sakeeb\Documents\School\Fall 2017\CSCC85\Phase 1\Phase1---Little-Lost-Robot\Distro\pfilter prob.nxc"
4	202	816		acquire __SPTArgsMutex
4	201	817	#line 201 "C:\Users\Sakeeb\Documents\School\Fall 2017\CSCC85\Phase 1\Phase1---Little-Lost-Robot\Distro\pfilter prob.nxc"
4	202	817		mov __SPTArgs.Frequency, __signed_stack_001victory
4	201	820	#line 201 "C:\Users\Sakeeb\Documents\School\Fall 2017\CSCC85\Phase 1\Phase1---Little-Lost-Robot\Distro\pfilter prob.nxc"
4	202	820		mov __SPTArgs.Duration, __signed_stack_002victory
4	201	823	#line 201 "C:\Users\Sakeeb\Documents\School\Fall 2017\CSCC85\Phase 1\Phase1---Little-Lost-Robot\Distro\pfilter prob.nxc"
4	202	823		mov __SPTArgs.Volume, __signed_stack_003victory
4	201	826	#line 201 "C:\Users\Sakeeb\Documents\School\Fall 2017\CSCC85\Phase 1\Phase1---Little-Lost-Robot\Distro\pfilter prob.nxc"
4	202	826		mov __SPTArgs.Loop, __D0victory
4	201	829	#line 201 "C:\Users\Sakeeb\Documents\School\Fall 2017\CSCC85\Phase 1\Phase1---Little-Lost-Robot\Distro\pfilter prob.nxc"
4	202	829		syscall 10, __SPTArgs
4	201	832	#line 201 "C:\Users\Sakeeb\Documents\School\Fall 2017\CSCC85\Phase 1\Phase1---Little-Lost-Robot\Distro\pfilter prob.nxc"
4	202	832		mov __D0victory, __SPTArgs.Result
4	201	835	#line 201 "C:\Users\Sakeeb\Documents\School\Fall 2017\CSCC85\Phase 1\Phase1---Little-Lost-Robot\Distro\pfilter prob.nxc"
4	202	835		release __SPTArgsMutex
4	201	836	#line 201 "C:\Users\Sakeeb\Documents\School\Fall 2017\CSCC85\Phase 1\Phase1---Little-Lost-Robot\Distro\pfilter prob.nxc"
4	201	836	#line 201 "C:\Users\Sakeeb\Documents\School\Fall 2017\CSCC85\Phase 1\Phase1---Little-Lost-Robot\Distro\pfilter prob.nxc"
4	202	836		set __Wait_7qG2_ms_7qG2_000_inline_victory, 529
4	201	839	#line 201 "C:\Users\Sakeeb\Documents\School\Fall 2017\CSCC85\Phase 1\Phase1---Little-Lost-Robot\Distro\pfilter prob.nxc"
4	8551	839	#line 8551 "NXCDefs.h"
4	8552	839		wait2 NA, __Wait_7qG2_ms_7qG2_000_inline_victory
4	8551	842	#line 8551 "NXCDefs.h"
4	204	842	#line 204 "C:\Users\Sakeeb\Documents\School\Fall 2017\CSCC85\Phase 1\Phase1---Little-Lost-Robot\Distro\pfilter prob.nxc"
4	204	842	#line 204 "C:\Users\Sakeeb\Documents\School\Fall 2017\CSCC85\Phase 1\Phase1---Little-Lost-Robot\Distro\pfilter prob.nxc"
4	205	842		set __signed_stack_001victory, 698
4	204	845	#line 204 "C:\Users\Sakeeb\Documents\School\Fall 2017\CSCC85\Phase 1\Phase1---Little-Lost-Robot\Distro\pfilter prob.nxc"
4	204	845	#line 204 "C:\Users\Sakeeb\Documents\School\Fall 2017\CSCC85\Phase 1\Phase1---Little-Lost-Robot\Distro\pfilter prob.nxc"
4	205	845		set __signed_stack_002victory, 215
4	204	848	#line 204 "C:\Users\Sakeeb\Documents\School\Fall 2017\CSCC85\Phase 1\Phase1---Little-Lost-Robot\Distro\pfilter prob.nxc"
4	204	848	#line 204 "C:\Users\Sakeeb\Documents\School\Fall 2017\CSCC85\Phase 1\Phase1---Little-Lost-Robot\Distro\pfilter prob.nxc"
4	205	848		set __signed_stack_003victory, 2
4	204	851	#line 204 "C:\Users\Sakeeb\Documents\School\Fall 2017\CSCC85\Phase 1\Phase1---Little-Lost-Robot\Distro\pfilter prob.nxc"
4	204	851	#line 204 "C:\Users\Sakeeb\Documents\School\Fall 2017\CSCC85\Phase 1\Phase1---Little-Lost-Robot\Distro\pfilter prob.nxc"
4	205	851		set __D0victory, 0
4	205	854	#line 205 "C:\Users\Sakeeb\Documents\School\Fall 2017\CSCC85\Phase 1\Phase1---Little-Lost-Robot\Distro\pfilter prob.nxc"
4	206	854		acquire __SPTArgsMutex
4	205	855	#line 205 "C:\Users\Sakeeb\Documents\School\Fall 2017\CSCC85\Phase 1\Phase1---Little-Lost-Robot\Distro\pfilter prob.nxc"
4	206	855		mov __SPTArgs.Frequency, __signed_stack_001victory
4	205	858	#line 205 "C:\Users\Sakeeb\Documents\School\Fall 2017\CSCC85\Phase 1\Phase1---Little-Lost-Robot\Distro\pfilter prob.nxc"
4	206	858		mov __SPTArgs.Duration, __signed_stack_002victory
4	205	861	#line 205 "C:\Users\Sakeeb\Documents\School\Fall 2017\CSCC85\Phase 1\Phase1---Little-Lost-Robot\Distro\pfilter prob.nxc"
4	206	861		mov __SPTArgs.Volume, __signed_stack_003victory
4	205	864	#line 205 "C:\Users\Sakeeb\Documents\School\Fall 2017\CSCC85\Phase 1\Phase1---Little-Lost-Robot\Distro\pfilter prob.nxc"
4	206	864		mov __SPTArgs.Loop, __D0victory
4	205	867	#line 205 "C:\Users\Sakeeb\Documents\School\Fall 2017\CSCC85\Phase 1\Phase1---Little-Lost-Robot\Distro\pfilter prob.nxc"
4	206	867		syscall 10, __SPTArgs
4	205	870	#line 205 "C:\Users\Sakeeb\Documents\School\Fall 2017\CSCC85\Phase 1\Phase1---Little-Lost-Robot\Distro\pfilter prob.nxc"
4	206	870		mov __D0victory, __SPTArgs.Result
4	205	873	#line 205 "C:\Users\Sakeeb\Documents\School\Fall 2017\CSCC85\Phase 1\Phase1---Little-Lost-Robot\Distro\pfilter prob.nxc"
4	206	873		release __SPTArgsMutex
4	205	874	#line 205 "C:\Users\Sakeeb\Documents\School\Fall 2017\CSCC85\Phase 1\Phase1---Little-Lost-Robot\Distro\pfilter prob.nxc"
4	205	874	#line 205 "C:\Users\Sakeeb\Documents\School\Fall 2017\CSCC85\Phase 1\Phase1---Little-Lost-Robot\Distro\pfilter prob.nxc"
4	206	874		set __Wait_7qG2_ms_7qG2_000_inline_victory, 315
4	205	877	#line 205 "C:\Users\Sakeeb\Documents\School\Fall 2017\CSCC85\Phase 1\Phase1---Little-Lost-Robot\Distro\pfilter prob.nxc"
4	8551	877	#line 8551 "NXCDefs.h"
4	8552	877		wait2 NA, __Wait_7qG2_ms_7qG2_000_inline_victory
4	8551	880	#line 8551 "NXCDefs.h"
4	208	880	#line 208 "C:\Users\Sakeeb\Documents\School\Fall 2017\CSCC85\Phase 1\Phase1---Little-Lost-Robot\Distro\pfilter prob.nxc"
4	208	880	#line 208 "C:\Users\Sakeeb\Documents\School\Fall 2017\CSCC85\Phase 1\Phase1---Little-Lost-Robot\Distro\pfilter prob.nxc"
4	209	880		set __signed_stack_001victory, 587
4	208	883	#line 208 "C:\Users\Sakeeb\Documents\School\Fall 2017\CSCC85\Phase 1\Phase1---Little-Lost-Robot\Distro\pfilter prob.nxc"
4	208	883	#line 208 "C:\Users\Sakeeb\Documents\School\Fall 2017\CSCC85\Phase 1\Phase1---Little-Lost-Robot\Distro\pfilter prob.nxc"
4	209	883		set __signed_stack_002victory, 1287
4	208	886	#line 208 "C:\Users\Sakeeb\Documents\School\Fall 2017\CSCC85\Phase 1\Phase1---Little-Lost-Robot\Distro\pfilter prob.nxc"
4	208	886	#line 208 "C:\Users\Sakeeb\Documents\School\Fall 2017\CSCC85\Phase 1\Phase1---Little-Lost-Robot\Distro\pfilter prob.nxc"
4	209	886		set __signed_stack_003victory, 2
4	208	889	#line 208 "C:\Users\Sakeeb\Documents\School\Fall 2017\CSCC85\Phase 1\Phase1---Little-Lost-Robot\Distro\pfilter prob.nxc"
4	208	889	#line 208 "C:\Users\Sakeeb\Documents\School\Fall 2017\CSCC85\Phase 1\Phase1---Little-Lost-Robot\Distro\pfilter prob.nxc"
4	209	889		set __D0victory, 0
4	209	892	#line 209 "C:\Users\Sakeeb\Documents\School\Fall 2017\CSCC85\Phase 1\Phase1---Little-Lost-Robot\Distro\pfilter prob.nxc"
4	210	892		acquire __SPTArgsMutex
4	209	893	#line 209 "C:\Users\Sakeeb\Documents\School\Fall 2017\CSCC85\Phase 1\Phase1---Little-Lost-Robot\Distro\pfilter prob.nxc"
4	210	893		mov __SPTArgs.Frequency, __signed_stack_001victory
4	209	896	#line 209 "C:\Users\Sakeeb\Documents\School\Fall 2017\CSCC85\Phase 1\Phase1---Little-Lost-Robot\Distro\pfilter prob.nxc"
4	210	896		mov __SPTArgs.Duration, __signed_stack_002victory
4	209	899	#line 209 "C:\Users\Sakeeb\Documents\School\Fall 2017\CSCC85\Phase 1\Phase1---Little-Lost-Robot\Distro\pfilter prob.nxc"
4	210	899		mov __SPTArgs.Volume, __signed_stack_003victory
4	209	902	#line 209 "C:\Users\Sakeeb\Documents\School\Fall 2017\CSCC85\Phase 1\Phase1---Little-Lost-Robot\Distro\pfilter prob.nxc"
4	210	902		mov __SPTArgs.Loop, __D0victory
4	209	905	#line 209 "C:\Users\Sakeeb\Documents\School\Fall 2017\CSCC85\Phase 1\Phase1---Little-Lost-Robot\Distro\pfilter prob.nxc"
4	210	905		syscall 10, __SPTArgs
4	209	908	#line 209 "C:\Users\Sakeeb\Documents\School\Fall 2017\CSCC85\Phase 1\Phase1---Little-Lost-Robot\Distro\pfilter prob.nxc"
4	210	908		mov __D0victory, __SPTArgs.Result
4	209	911	#line 209 "C:\Users\Sakeeb\Documents\School\Fall 2017\CSCC85\Phase 1\Phase1---Little-Lost-Robot\Distro\pfilter prob.nxc"
4	210	911		release __SPTArgsMutex
4	209	912	#line 209 "C:\Users\Sakeeb\Documents\School\Fall 2017\CSCC85\Phase 1\Phase1---Little-Lost-Robot\Distro\pfilter prob.nxc"
4	209	912	#line 209 "C:\Users\Sakeeb\Documents\School\Fall 2017\CSCC85\Phase 1\Phase1---Little-Lost-Robot\Distro\pfilter prob.nxc"
4	210	912		set __Wait_7qG2_ms_7qG2_000_inline_victory, 1387
4	209	915	#line 209 "C:\Users\Sakeeb\Documents\School\Fall 2017\CSCC85\Phase 1\Phase1---Little-Lost-Robot\Distro\pfilter prob.nxc"
4	8551	915	#line 8551 "NXCDefs.h"
4	8552	915		wait2 NA, __Wait_7qG2_ms_7qG2_000_inline_victory
4	8551	918	#line 8551 "NXCDefs.h"
4	211	918	#line 211 "C:\Users\Sakeeb\Documents\School\Fall 2017\CSCC85\Phase 1\Phase1---Little-Lost-Robot\Distro\pfilter prob.nxc"
4	211	918	#line 211 "C:\Users\Sakeeb\Documents\School\Fall 2017\CSCC85\Phase 1\Phase1---Little-Lost-Robot\Distro\pfilter prob.nxc"
4	212	918		set __Wait_7qG2_ms_7qG2_000_inline_victory, 529
4	211	921	#line 211 "C:\Users\Sakeeb\Documents\School\Fall 2017\CSCC85\Phase 1\Phase1---Little-Lost-Robot\Distro\pfilter prob.nxc"
4	8551	921	#line 8551 "NXCDefs.h"
4	8552	921		wait2 NA, __Wait_7qG2_ms_7qG2_000_inline_victory
4	8551	924	#line 8551 "NXCDefs.h"
4	214	924	#line 214 "C:\Users\Sakeeb\Documents\School\Fall 2017\CSCC85\Phase 1\Phase1---Little-Lost-Robot\Distro\pfilter prob.nxc"
4	214	924	#line 214 "C:\Users\Sakeeb\Documents\School\Fall 2017\CSCC85\Phase 1\Phase1---Little-Lost-Robot\Distro\pfilter prob.nxc"
4	215	924		set __signed_stack_001victory, 784
4	214	927	#line 214 "C:\Users\Sakeeb\Documents\School\Fall 2017\CSCC85\Phase 1\Phase1---Little-Lost-Robot\Distro\pfilter prob.nxc"
4	214	927	#line 214 "C:\Users\Sakeeb\Documents\School\Fall 2017\CSCC85\Phase 1\Phase1---Little-Lost-Robot\Distro\pfilter prob.nxc"
4	215	927		set __signed_stack_002victory, 429
4	214	930	#line 214 "C:\Users\Sakeeb\Documents\School\Fall 2017\CSCC85\Phase 1\Phase1---Little-Lost-Robot\Distro\pfilter prob.nxc"
4	214	930	#line 214 "C:\Users\Sakeeb\Documents\School\Fall 2017\CSCC85\Phase 1\Phase1---Little-Lost-Robot\Distro\pfilter prob.nxc"
4	215	930		set __signed_stack_003victory, 2
4	214	933	#line 214 "C:\Users\Sakeeb\Documents\School\Fall 2017\CSCC85\Phase 1\Phase1---Little-Lost-Robot\Distro\pfilter prob.nxc"
4	214	933	#line 214 "C:\Users\Sakeeb\Documents\School\Fall 2017\CSCC85\Phase 1\Phase1---Little-Lost-Robot\Distro\pfilter prob.nxc"
4	215	933		set __D0victory, 0
4	215	936	#line 215 "C:\Users\Sakeeb\Documents\School\Fall 2017\CSCC85\Phase 1\Phase1---Little-Lost-Robot\Distro\pfilter prob.nxc"
4	216	936		acquire __SPTArgsMutex
4	215	937	#line 215 "C:\Users\Sakeeb\Documents\School\Fall 2017\CSCC85\Phase 1\Phase1---Little-Lost-Robot\Distro\pfilter prob.nxc"
4	216	937		mov __SPTArgs.Frequency, __signed_stack_001victory
4	215	940	#line 215 "C:\Users\Sakeeb\Documents\School\Fall 2017\CSCC85\Phase 1\Phase1---Little-Lost-Robot\Distro\pfilter prob.nxc"
4	216	940		mov __SPTArgs.Duration, __signed_stack_002victory
4	215	943	#line 215 "C:\Users\Sakeeb\Documents\School\Fall 2017\CSCC85\Phase 1\Phase1---Little-Lost-Robot\Distro\pfilter prob.nxc"
4	216	943		mov __SPTArgs.Volume, __signed_stack_003victory
4	215	946	#line 215 "C:\Users\Sakeeb\Documents\School\Fall 2017\CSCC85\Phase 1\Phase1---Little-Lost-Robot\Distro\pfilter prob.nxc"
4	216	946		mov __SPTArgs.Loop, __D0victory
4	215	949	#line 215 "C:\Users\Sakeeb\Documents\School\Fall 2017\CSCC85\Phase 1\Phase1---Little-Lost-Robot\Distro\pfilter prob.nxc"
4	216	949		syscall 10, __SPTArgs
4	215	952	#line 215 "C:\Users\Sakeeb\Documents\School\Fall 2017\CSCC85\Phase 1\Phase1---Little-Lost-Robot\Distro\pfilter prob.nxc"
4	216	952		mov __D0victory, __SPTArgs.Result
4	215	955	#line 215 "C:\Users\Sakeeb\Documents\School\Fall 2017\CSCC85\Phase 1\Phase1---Little-Lost-Robot\Distro\pfilter prob.nxc"
4	216	955		release __SPTArgsMutex
4	215	956	#line 215 "C:\Users\Sakeeb\Documents\School\Fall 2017\CSCC85\Phase 1\Phase1---Little-Lost-Robot\Distro\pfilter prob.nxc"
4	215	956	#line 215 "C:\Users\Sakeeb\Documents\School\Fall 2017\CSCC85\Phase 1\Phase1---Little-Lost-Robot\Distro\pfilter prob.nxc"
4	216	956		set __Wait_7qG2_ms_7qG2_000_inline_victory, 529
4	215	959	#line 215 "C:\Users\Sakeeb\Documents\School\Fall 2017\CSCC85\Phase 1\Phase1---Little-Lost-Robot\Distro\pfilter prob.nxc"
4	8551	959	#line 8551 "NXCDefs.h"
4	8552	959		wait2 NA, __Wait_7qG2_ms_7qG2_000_inline_victory
4	8551	962	#line 8551 "NXCDefs.h"
4	218	962	#line 218 "C:\Users\Sakeeb\Documents\School\Fall 2017\CSCC85\Phase 1\Phase1---Little-Lost-Robot\Distro\pfilter prob.nxc"
4	218	962	#line 218 "C:\Users\Sakeeb\Documents\School\Fall 2017\CSCC85\Phase 1\Phase1---Little-Lost-Robot\Distro\pfilter prob.nxc"
4	219	962		set __signed_stack_001victory, 698
4	218	965	#line 218 "C:\Users\Sakeeb\Documents\School\Fall 2017\CSCC85\Phase 1\Phase1---Little-Lost-Robot\Distro\pfilter prob.nxc"
4	218	965	#line 218 "C:\Users\Sakeeb\Documents\School\Fall 2017\CSCC85\Phase 1\Phase1---Little-Lost-Robot\Distro\pfilter prob.nxc"
4	219	965		set __signed_stack_002victory, 429
4	218	968	#line 218 "C:\Users\Sakeeb\Documents\School\Fall 2017\CSCC85\Phase 1\Phase1---Little-Lost-Robot\Distro\pfilter prob.nxc"
4	218	968	#line 218 "C:\Users\Sakeeb\Documents\School\Fall 2017\CSCC85\Phase 1\Phase1---Little-Lost-Robot\Distro\pfilter prob.nxc"
4	219	968		set __signed_stack_003victory, 2
4	218	971	#line 218 "C:\Users\Sakeeb\Documents\School\Fall 2017\CSCC85\Phase 1\Phase1---Little-Lost-Robot\Distro\pfilter prob.nxc"
4	218	971	#line 218 "C:\Users\Sakeeb\Documents\School\Fall 2017\CSCC85\Phase 1\Phase1---Little-Lost-Robot\Distro\pfilter prob.nxc"
4	219	971		set __D0victory, 0
4	219	974	#line 219 "C:\Users\Sakeeb\Documents\School\Fall 2017\CSCC85\Phase 1\Phase1---Little-Lost-Robot\Distro\pfilter prob.nxc"
4	220	974		acquire __SPTArgsMutex
4	219	975	#line 219 "C:\Users\Sakeeb\Documents\School\Fall 2017\CSCC85\Phase 1\Phase1---Little-Lost-Robot\Distro\pfilter prob.nxc"
4	220	975		mov __SPTArgs.Frequency, __signed_stack_001victory
4	219	978	#line 219 "C:\Users\Sakeeb\Documents\School\Fall 2017\CSCC85\Phase 1\Phase1---Little-Lost-Robot\Distro\pfilter prob.nxc"
4	220	978		mov __SPTArgs.Duration, __signed_stack_002victory
4	219	981	#line 219 "C:\Users\Sakeeb\Documents\School\Fall 2017\CSCC85\Phase 1\Phase1---Little-Lost-Robot\Distro\pfilter prob.nxc"
4	220	981		mov __SPTArgs.Volume, __signed_stack_003victory
4	219	984	#line 219 "C:\Users\Sakeeb\Documents\School\Fall 2017\CSCC85\Phase 1\Phase1---Little-Lost-Robot\Distro\pfilter prob.nxc"
4	220	984		mov __SPTArgs.Loop, __D0victory
4	219	987	#line 219 "C:\Users\Sakeeb\Documents\School\Fall 2017\CSCC85\Phase 1\Phase1---Little-Lost-Robot\Distro\pfilter prob.nxc"
4	220	987		syscall 10, __SPTArgs
4	219	990	#line 219 "C:\Users\Sakeeb\Documents\School\Fall 2017\CSCC85\Phase 1\Phase1---Little-Lost-Robot\Distro\pfilter prob.nxc"
4	220	990		mov __D0victory, __SPTArgs.Result
4	219	993	#line 219 "C:\Users\Sakeeb\Documents\School\Fall 2017\CSCC85\Phase 1\Phase1---Little-Lost-Robot\Distro\pfilter prob.nxc"
4	220	993		release __SPTArgsMutex
4	219	994	#line 219 "C:\Users\Sakeeb\Documents\School\Fall 2017\CSCC85\Phase 1\Phase1---Little-Lost-Robot\Distro\pfilter prob.nxc"
4	219	994	#line 219 "C:\Users\Sakeeb\Documents\School\Fall 2017\CSCC85\Phase 1\Phase1---Little-Lost-Robot\Distro\pfilter prob.nxc"
4	220	994		set __Wait_7qG2_ms_7qG2_000_inline_victory, 529
4	219	997	#line 219 "C:\Users\Sakeeb\Documents\School\Fall 2017\CSCC85\Phase 1\Phase1---Little-Lost-Robot\Distro\pfilter prob.nxc"
4	8551	997	#line 8551 "NXCDefs.h"
4	8552	997		wait2 NA, __Wait_7qG2_ms_7qG2_000_inline_victory
4	8551	1000	#line 8551 "NXCDefs.h"
4	222	1000	#line 222 "C:\Users\Sakeeb\Documents\School\Fall 2017\CSCC85\Phase 1\Phase1---Little-Lost-Robot\Distro\pfilter prob.nxc"
4	222	1000	#line 222 "C:\Users\Sakeeb\Documents\School\Fall 2017\CSCC85\Phase 1\Phase1---Little-Lost-Robot\Distro\pfilter prob.nxc"
4	223	1000		set __signed_stack_001victory, 784
4	222	1003	#line 222 "C:\Users\Sakeeb\Documents\School\Fall 2017\CSCC85\Phase 1\Phase1---Little-Lost-Robot\Distro\pfilter prob.nxc"
4	222	1003	#line 222 "C:\Users\Sakeeb\Documents\School\Fall 2017\CSCC85\Phase 1\Phase1---Little-Lost-Robot\Distro\pfilter prob.nxc"
4	223	1003		set __signed_stack_002victory, 429
4	222	1006	#line 222 "C:\Users\Sakeeb\Documents\School\Fall 2017\CSCC85\Phase 1\Phase1---Little-Lost-Robot\Distro\pfilter prob.nxc"
4	222	1006	#line 222 "C:\Users\Sakeeb\Documents\School\Fall 2017\CSCC85\Phase 1\Phase1---Little-Lost-Robot\Distro\pfilter prob.nxc"
4	223	1006		set __signed_stack_003victory, 2
4	222	1009	#line 222 "C:\Users\Sakeeb\Documents\School\Fall 2017\CSCC85\Phase 1\Phase1---Little-Lost-Robot\Distro\pfilter prob.nxc"
4	222	1009	#line 222 "C:\Users\Sakeeb\Documents\School\Fall 2017\CSCC85\Phase 1\Phase1---Little-Lost-Robot\Distro\pfilter prob.nxc"
4	223	1009		set __D0victory, 0
4	223	1012	#line 223 "C:\Users\Sakeeb\Documents\School\Fall 2017\CSCC85\Phase 1\Phase1---Little-Lost-Robot\Distro\pfilter prob.nxc"
4	224	1012		acquire __SPTArgsMutex
4	223	1013	#line 223 "C:\Users\Sakeeb\Documents\School\Fall 2017\CSCC85\Phase 1\Phase1---Little-Lost-Robot\Distro\pfilter prob.nxc"
4	224	1013		mov __SPTArgs.Frequency, __signed_stack_001victory
4	223	1016	#line 223 "C:\Users\Sakeeb\Documents\School\Fall 2017\CSCC85\Phase 1\Phase1---Little-Lost-Robot\Distro\pfilter prob.nxc"
4	224	1016		mov __SPTArgs.Duration, __signed_stack_002victory
4	223	1019	#line 223 "C:\Users\Sakeeb\Documents\School\Fall 2017\CSCC85\Phase 1\Phase1---Little-Lost-Robot\Distro\pfilter prob.nxc"
4	224	1019		mov __SPTArgs.Volume, __signed_stack_003victory
4	223	1022	#line 223 "C:\Users\Sakeeb\Documents\School\Fall 2017\CSCC85\Phase 1\Phase1---Little-Lost-Robot\Distro\pfilter prob.nxc"
4	224	1022		mov __SPTArgs.Loop, __D0victory
4	223	1025	#line 223 "C:\Users\Sakeeb\Documents\School\Fall 2017\CSCC85\Phase 1\Phase1---Little-Lost-Robot\Distro\pfilter prob.nxc"
4	224	1025		syscall 10, __SPTArgs
4	223	1028	#line 223 "C:\Users\Sakeeb\Documents\School\Fall 2017\CSCC85\Phase 1\Phase1---Little-Lost-Robot\Distro\pfilter prob.nxc"
4	224	1028		mov __D0victory, __SPTArgs.Result
4	223	1031	#line 223 "C:\Users\Sakeeb\Documents\School\Fall 2017\CSCC85\Phase 1\Phase1---Little-Lost-Robot\Distro\pfilter prob.nxc"
4	224	1031		release __SPTArgsMutex
4	223	1032	#line 223 "C:\Users\Sakeeb\Documents\School\Fall 2017\CSCC85\Phase 1\Phase1---Little-Lost-Robot\Distro\pfilter prob.nxc"
4	223	1032	#line 223 "C:\Users\Sakeeb\Documents\School\Fall 2017\CSCC85\Phase 1\Phase1---Little-Lost-Robot\Distro\pfilter prob.nxc"
4	224	1032		set __Wait_7qG2_ms_7qG2_000_inline_victory, 529
4	223	1035	#line 223 "C:\Users\Sakeeb\Documents\School\Fall 2017\CSCC85\Phase 1\Phase1---Little-Lost-Robot\Distro\pfilter prob.nxc"
4	8551	1035	#line 8551 "NXCDefs.h"
4	8552	1035		wait2 NA, __Wait_7qG2_ms_7qG2_000_inline_victory
4	8551	1038	#line 8551 "NXCDefs.h"
4	226	1038	#line 226 "C:\Users\Sakeeb\Documents\School\Fall 2017\CSCC85\Phase 1\Phase1---Little-Lost-Robot\Distro\pfilter prob.nxc"
4	226	1038	#line 226 "C:\Users\Sakeeb\Documents\School\Fall 2017\CSCC85\Phase 1\Phase1---Little-Lost-Robot\Distro\pfilter prob.nxc"
4	227	1038		set __signed_stack_001victory, 698
4	226	1041	#line 226 "C:\Users\Sakeeb\Documents\School\Fall 2017\CSCC85\Phase 1\Phase1---Little-Lost-Robot\Distro\pfilter prob.nxc"
4	226	1041	#line 226 "C:\Users\Sakeeb\Documents\School\Fall 2017\CSCC85\Phase 1\Phase1---Little-Lost-Robot\Distro\pfilter prob.nxc"
4	227	1041		set __signed_stack_002victory, 215
4	226	1044	#line 226 "C:\Users\Sakeeb\Documents\School\Fall 2017\CSCC85\Phase 1\Phase1---Little-Lost-Robot\Distro\pfilter prob.nxc"
4	226	1044	#line 226 "C:\Users\Sakeeb\Documents\School\Fall 2017\CSCC85\Phase 1\Phase1---Little-Lost-Robot\Distro\pfilter prob.nxc"
4	227	1044		set __signed_stack_003victory, 2
4	226	1047	#line 226 "C:\Users\Sakeeb\Documents\School\Fall 2017\CSCC85\Phase 1\Phase1---Little-Lost-Robot\Distro\pfilter prob.nxc"
4	226	1047	#line 226 "C:\Users\Sakeeb\Documents\School\Fall 2017\CSCC85\Phase 1\Phase1---Little-Lost-Robot\Distro\pfilter prob.nxc"
4	227	1047		set __D0victory, 0
4	227	1050	#line 227 "C:\Users\Sakeeb\Documents\School\Fall 2017\CSCC85\Phase 1\Phase1---Little-Lost-Robot\Distro\pfilter prob.nxc"
4	228	1050		acquire __SPTArgsMutex
4	227	1051	#line 227 "C:\Users\Sakeeb\Documents\School\Fall 2017\CSCC85\Phase 1\Phase1---Little-Lost-Robot\Distro\pfilter prob.nxc"
4	228	1051		mov __SPTArgs.Frequency, __signed_stack_001victory
4	227	1054	#line 227 "C:\Users\Sakeeb\Documents\School\Fall 2017\CSCC85\Phase 1\Phase1---Little-Lost-Robot\Distro\pfilter prob.nxc"
4	228	1054		mov __SPTArgs.Duration, __signed_stack_002victory
4	227	1057	#line 227 "C:\Users\Sakeeb\Documents\School\Fall 2017\CSCC85\Phase 1\Phase1---Little-Lost-Robot\Distro\pfilter prob.nxc"
4	228	1057		mov __SPTArgs.Volume, __signed_stack_003victory
4	227	1060	#line 227 "C:\Users\Sakeeb\Documents\School\Fall 2017\CSCC85\Phase 1\Phase1---Little-Lost-Robot\Distro\pfilter prob.nxc"
4	228	1060		mov __SPTArgs.Loop, __D0victory
4	227	1063	#line 227 "C:\Users\Sakeeb\Documents\School\Fall 2017\CSCC85\Phase 1\Phase1---Little-Lost-Robot\Distro\pfilter prob.nxc"
4	228	1063		syscall 10, __SPTArgs
4	227	1066	#line 227 "C:\Users\Sakeeb\Documents\School\Fall 2017\CSCC85\Phase 1\Phase1---Little-Lost-Robot\Distro\pfilter prob.nxc"
4	228	1066		mov __D0victory, __SPTArgs.Result
4	227	1069	#line 227 "C:\Users\Sakeeb\Documents\School\Fall 2017\CSCC85\Phase 1\Phase1---Little-Lost-Robot\Distro\pfilter prob.nxc"
4	228	1069		release __SPTArgsMutex
4	227	1070	#line 227 "C:\Users\Sakeeb\Documents\School\Fall 2017\CSCC85\Phase 1\Phase1---Little-Lost-Robot\Distro\pfilter prob.nxc"
4	227	1070	#line 227 "C:\Users\Sakeeb\Documents\School\Fall 2017\CSCC85\Phase 1\Phase1---Little-Lost-Robot\Distro\pfilter prob.nxc"
4	228	1070		set __Wait_7qG2_ms_7qG2_000_inline_victory, 315
4	227	1073	#line 227 "C:\Users\Sakeeb\Documents\School\Fall 2017\CSCC85\Phase 1\Phase1---Little-Lost-Robot\Distro\pfilter prob.nxc"
4	8551	1073	#line 8551 "NXCDefs.h"
4	8552	1073		wait2 NA, __Wait_7qG2_ms_7qG2_000_inline_victory
4	8551	1076	#line 8551 "NXCDefs.h"
4	230	1076	#line 230 "C:\Users\Sakeeb\Documents\School\Fall 2017\CSCC85\Phase 1\Phase1---Little-Lost-Robot\Distro\pfilter prob.nxc"
4	230	1076	#line 230 "C:\Users\Sakeeb\Documents\School\Fall 2017\CSCC85\Phase 1\Phase1---Little-Lost-Robot\Distro\pfilter prob.nxc"
4	231	1076		set __signed_stack_001victory, 932
4	230	1079	#line 230 "C:\Users\Sakeeb\Documents\School\Fall 2017\CSCC85\Phase 1\Phase1---Little-Lost-Robot\Distro\pfilter prob.nxc"
4	230	1079	#line 230 "C:\Users\Sakeeb\Documents\School\Fall 2017\CSCC85\Phase 1\Phase1---Little-Lost-Robot\Distro\pfilter prob.nxc"
4	231	1079		set __signed_stack_002victory, 429
4	230	1082	#line 230 "C:\Users\Sakeeb\Documents\School\Fall 2017\CSCC85\Phase 1\Phase1---Little-Lost-Robot\Distro\pfilter prob.nxc"
4	230	1082	#line 230 "C:\Users\Sakeeb\Documents\School\Fall 2017\CSCC85\Phase 1\Phase1---Little-Lost-Robot\Distro\pfilter prob.nxc"
4	231	1082		set __signed_stack_003victory, 2
4	230	1085	#line 230 "C:\Users\Sakeeb\Documents\School\Fall 2017\CSCC85\Phase 1\Phase1---Little-Lost-Robot\Distro\pfilter prob.nxc"
4	230	1085	#line 230 "C:\Users\Sakeeb\Documents\School\Fall 2017\CSCC85\Phase 1\Phase1---Little-Lost-Robot\Distro\pfilter prob.nxc"
4	231	1085		set __D0victory, 0
4	231	1088	#line 231 "C:\Users\Sakeeb\Documents\School\Fall 2017\CSCC85\Phase 1\Phase1---Little-Lost-Robot\Distro\pfilter prob.nxc"
4	232	1088		acquire __SPTArgsMutex
4	231	1089	#line 231 "C:\Users\Sakeeb\Documents\School\Fall 2017\CSCC85\Phase 1\Phase1---Little-Lost-Robot\Distro\pfilter prob.nxc"
4	232	1089		mov __SPTArgs.Frequency, __signed_stack_001victory
4	231	1092	#line 231 "C:\Users\Sakeeb\Documents\School\Fall 2017\CSCC85\Phase 1\Phase1---Little-Lost-Robot\Distro\pfilter prob.nxc"
4	232	1092		mov __SPTArgs.Duration, __signed_stack_002victory
4	231	1095	#line 231 "C:\Users\Sakeeb\Documents\School\Fall 2017\CSCC85\Phase 1\Phase1---Little-Lost-Robot\Distro\pfilter prob.nxc"
4	232	1095		mov __SPTArgs.Volume, __signed_stack_003victory
4	231	1098	#line 231 "C:\Users\Sakeeb\Documents\School\Fall 2017\CSCC85\Phase 1\Phase1---Little-Lost-Robot\Distro\pfilter prob.nxc"
4	232	1098		mov __SPTArgs.Loop, __D0victory
4	231	1101	#line 231 "C:\Users\Sakeeb\Documents\School\Fall 2017\CSCC85\Phase 1\Phase1---Little-Lost-Robot\Distro\pfilter prob.nxc"
4	232	1101		syscall 10, __SPTArgs
4	231	1104	#line 231 "C:\Users\Sakeeb\Documents\School\Fall 2017\CSCC85\Phase 1\Phase1---Little-Lost-Robot\Distro\pfilter prob.nxc"
4	232	1104		mov __D0victory, __SPTArgs.Result
4	231	1107	#line 231 "C:\Users\Sakeeb\Documents\School\Fall 2017\CSCC85\Phase 1\Phase1---Little-Lost-Robot\Distro\pfilter prob.nxc"
4	232	1107		release __SPTArgsMutex
4	231	1108	#line 231 "C:\Users\Sakeeb\Documents\School\Fall 2017\CSCC85\Phase 1\Phase1---Little-Lost-Robot\Distro\pfilter prob.nxc"
4	231	1108	#line 231 "C:\Users\Sakeeb\Documents\School\Fall 2017\CSCC85\Phase 1\Phase1---Little-Lost-Robot\Distro\pfilter prob.nxc"
4	232	1108		set __Wait_7qG2_ms_7qG2_000_inline_victory, 529
4	231	1111	#line 231 "C:\Users\Sakeeb\Documents\School\Fall 2017\CSCC85\Phase 1\Phase1---Little-Lost-Robot\Distro\pfilter prob.nxc"
4	8551	1111	#line 8551 "NXCDefs.h"
4	8552	1111		wait2 NA, __Wait_7qG2_ms_7qG2_000_inline_victory
4	8551	1114	#line 8551 "NXCDefs.h"
4	234	1114	#line 234 "C:\Users\Sakeeb\Documents\School\Fall 2017\CSCC85\Phase 1\Phase1---Little-Lost-Robot\Distro\pfilter prob.nxc"
4	234	1114	#line 234 "C:\Users\Sakeeb\Documents\School\Fall 2017\CSCC85\Phase 1\Phase1---Little-Lost-Robot\Distro\pfilter prob.nxc"
4	235	1114		set __signed_stack_001victory, 932
4	234	1117	#line 234 "C:\Users\Sakeeb\Documents\School\Fall 2017\CSCC85\Phase 1\Phase1---Little-Lost-Robot\Distro\pfilter prob.nxc"
4	234	1117	#line 234 "C:\Users\Sakeeb\Documents\School\Fall 2017\CSCC85\Phase 1\Phase1---Little-Lost-Robot\Distro\pfilter prob.nxc"
4	235	1117		set __signed_stack_002victory, 215
4	234	1120	#line 234 "C:\Users\Sakeeb\Documents\School\Fall 2017\CSCC85\Phase 1\Phase1---Little-Lost-Robot\Distro\pfilter prob.nxc"
4	234	1120	#line 234 "C:\Users\Sakeeb\Documents\School\Fall 2017\CSCC85\Phase 1\Phase1---Little-Lost-Robot\Distro\pfilter prob.nxc"
4	235	1120		set __signed_stack_003victory, 2
4	234	1123	#line 234 "C:\Users\Sakeeb\Documents\School\Fall 2017\CSCC85\Phase 1\Phase1---Little-Lost-Robot\Distro\pfilter prob.nxc"
4	234	1123	#line 234 "C:\Users\Sakeeb\Documents\School\Fall 2017\CSCC85\Phase 1\Phase1---Little-Lost-Robot\Distro\pfilter prob.nxc"
4	235	1123		set __D0victory, 0
4	235	1126	#line 235 "C:\Users\Sakeeb\Documents\School\Fall 2017\CSCC85\Phase 1\Phase1---Little-Lost-Robot\Distro\pfilter prob.nxc"
4	236	1126		acquire __SPTArgsMutex
4	235	1127	#line 235 "C:\Users\Sakeeb\Documents\School\Fall 2017\CSCC85\Phase 1\Phase1---Little-Lost-Robot\Distro\pfilter prob.nxc"
4	236	1127		mov __SPTArgs.Frequency, __signed_stack_001victory
4	235	1130	#line 235 "C:\Users\Sakeeb\Documents\School\Fall 2017\CSCC85\Phase 1\Phase1---Little-Lost-Robot\Distro\pfilter prob.nxc"
4	236	1130		mov __SPTArgs.Duration, __signed_stack_002victory
4	235	1133	#line 235 "C:\Users\Sakeeb\Documents\School\Fall 2017\CSCC85\Phase 1\Phase1---Little-Lost-Robot\Distro\pfilter prob.nxc"
4	236	1133		mov __SPTArgs.Volume, __signed_stack_003victory
4	235	1136	#line 235 "C:\Users\Sakeeb\Documents\School\Fall 2017\CSCC85\Phase 1\Phase1---Little-Lost-Robot\Distro\pfilter prob.nxc"
4	236	1136		mov __SPTArgs.Loop, __D0victory
4	235	1139	#line 235 "C:\Users\Sakeeb\Documents\School\Fall 2017\CSCC85\Phase 1\Phase1---Little-Lost-Robot\Distro\pfilter prob.nxc"
4	236	1139		syscall 10, __SPTArgs
4	235	1142	#line 235 "C:\Users\Sakeeb\Documents\School\Fall 2017\CSCC85\Phase 1\Phase1---Little-Lost-Robot\Distro\pfilter prob.nxc"
4	236	1142		mov __D0victory, __SPTArgs.Result
4	235	1145	#line 235 "C:\Users\Sakeeb\Documents\School\Fall 2017\CSCC85\Phase 1\Phase1---Little-Lost-Robot\Distro\pfilter prob.nxc"
4	236	1145		release __SPTArgsMutex
4	235	1146	#line 235 "C:\Users\Sakeeb\Documents\School\Fall 2017\CSCC85\Phase 1\Phase1---Little-Lost-Robot\Distro\pfilter prob.nxc"
4	235	1146	#line 235 "C:\Users\Sakeeb\Documents\School\Fall 2017\CSCC85\Phase 1\Phase1---Little-Lost-Robot\Distro\pfilter prob.nxc"
4	236	1146		set __Wait_7qG2_ms_7qG2_000_inline_victory, 315
4	235	1149	#line 235 "C:\Users\Sakeeb\Documents\School\Fall 2017\CSCC85\Phase 1\Phase1---Little-Lost-Robot\Distro\pfilter prob.nxc"
4	8551	1149	#line 8551 "NXCDefs.h"
4	8552	1149		wait2 NA, __Wait_7qG2_ms_7qG2_000_inline_victory
4	8551	1152	#line 8551 "NXCDefs.h"
4	238	1152	#line 238 "C:\Users\Sakeeb\Documents\School\Fall 2017\CSCC85\Phase 1\Phase1---Little-Lost-Robot\Distro\pfilter prob.nxc"
4	238	1152	#line 238 "C:\Users\Sakeeb\Documents\School\Fall 2017\CSCC85\Phase 1\Phase1---Little-Lost-Robot\Distro\pfilter prob.nxc"
4	239	1152		set __signed_stack_001victory, 880
4	238	1155	#line 238 "C:\Users\Sakeeb\Documents\School\Fall 2017\CSCC85\Phase 1\Phase1---Little-Lost-Robot\Distro\pfilter prob.nxc"
4	238	1155	#line 238 "C:\Users\Sakeeb\Documents\School\Fall 2017\CSCC85\Phase 1\Phase1---Little-Lost-Robot\Distro\pfilter prob.nxc"
4	239	1155		set __signed_stack_002victory, 429
4	238	1158	#line 238 "C:\Users\Sakeeb\Documents\School\Fall 2017\CSCC85\Phase 1\Phase1---Little-Lost-Robot\Distro\pfilter prob.nxc"
4	238	1158	#line 238 "C:\Users\Sakeeb\Documents\School\Fall 2017\CSCC85\Phase 1\Phase1---Little-Lost-Robot\Distro\pfilter prob.nxc"
4	239	1158		set __signed_stack_003victory, 2
4	238	1161	#line 238 "C:\Users\Sakeeb\Documents\School\Fall 2017\CSCC85\Phase 1\Phase1---Little-Lost-Robot\Distro\pfilter prob.nxc"
4	238	1161	#line 238 "C:\Users\Sakeeb\Documents\School\Fall 2017\CSCC85\Phase 1\Phase1---Little-Lost-Robot\Distro\pfilter prob.nxc"
4	239	1161		set __D0victory, 0
4	239	1164	#line 239 "C:\Users\Sakeeb\Documents\School\Fall 2017\CSCC85\Phase 1\Phase1---Little-Lost-Robot\Distro\pfilter prob.nxc"
4	240	1164		acquire __SPTArgsMutex
4	239	1165	#line 239 "C:\Users\Sakeeb\Documents\School\Fall 2017\CSCC85\Phase 1\Phase1---Little-Lost-Robot\Distro\pfilter prob.nxc"
4	240	1165		mov __SPTArgs.Frequency, __signed_stack_001victory
4	239	1168	#line 239 "C:\Users\Sakeeb\Documents\School\Fall 2017\CSCC85\Phase 1\Phase1---Little-Lost-Robot\Distro\pfilter prob.nxc"
4	240	1168		mov __SPTArgs.Duration, __signed_stack_002victory
4	239	1171	#line 239 "C:\Users\Sakeeb\Documents\School\Fall 2017\CSCC85\Phase 1\Phase1---Little-Lost-Robot\Distro\pfilter prob.nxc"
4	240	1171		mov __SPTArgs.Volume, __signed_stack_003victory
4	239	1174	#line 239 "C:\Users\Sakeeb\Documents\School\Fall 2017\CSCC85\Phase 1\Phase1---Little-Lost-Robot\Distro\pfilter prob.nxc"
4	240	1174		mov __SPTArgs.Loop, __D0victory
4	239	1177	#line 239 "C:\Users\Sakeeb\Documents\School\Fall 2017\CSCC85\Phase 1\Phase1---Little-Lost-Robot\Distro\pfilter prob.nxc"
4	240	1177		syscall 10, __SPTArgs
4	239	1180	#line 239 "C:\Users\Sakeeb\Documents\School\Fall 2017\CSCC85\Phase 1\Phase1---Little-Lost-Robot\Distro\pfilter prob.nxc"
4	240	1180		mov __D0victory, __SPTArgs.Result
4	239	1183	#line 239 "C:\Users\Sakeeb\Documents\School\Fall 2017\CSCC85\Phase 1\Phase1---Little-Lost-Robot\Distro\pfilter prob.nxc"
4	240	1183		release __SPTArgsMutex
4	239	1184	#line 239 "C:\Users\Sakeeb\Documents\School\Fall 2017\CSCC85\Phase 1\Phase1---Little-Lost-Robot\Distro\pfilter prob.nxc"
4	239	1184	#line 239 "C:\Users\Sakeeb\Documents\School\Fall 2017\CSCC85\Phase 1\Phase1---Little-Lost-Robot\Distro\pfilter prob.nxc"
4	240	1184		set __Wait_7qG2_ms_7qG2_000_inline_victory, 529
4	239	1187	#line 239 "C:\Users\Sakeeb\Documents\School\Fall 2017\CSCC85\Phase 1\Phase1---Little-Lost-Robot\Distro\pfilter prob.nxc"
4	8551	1187	#line 8551 "NXCDefs.h"
4	8552	1187		wait2 NA, __Wait_7qG2_ms_7qG2_000_inline_victory
4	8551	1190	#line 8551 "NXCDefs.h"
4	242	1190	#line 242 "C:\Users\Sakeeb\Documents\School\Fall 2017\CSCC85\Phase 1\Phase1---Little-Lost-Robot\Distro\pfilter prob.nxc"
4	242	1190	#line 242 "C:\Users\Sakeeb\Documents\School\Fall 2017\CSCC85\Phase 1\Phase1---Little-Lost-Robot\Distro\pfilter prob.nxc"
4	243	1190		set __signed_stack_001victory, 932
4	242	1193	#line 242 "C:\Users\Sakeeb\Documents\School\Fall 2017\CSCC85\Phase 1\Phase1---Little-Lost-Robot\Distro\pfilter prob.nxc"
4	242	1193	#line 242 "C:\Users\Sakeeb\Documents\School\Fall 2017\CSCC85\Phase 1\Phase1---Little-Lost-Robot\Distro\pfilter prob.nxc"
4	243	1193		set __signed_stack_002victory, 215
4	242	1196	#line 242 "C:\Users\Sakeeb\Documents\School\Fall 2017\CSCC85\Phase 1\Phase1---Little-Lost-Robot\Distro\pfilter prob.nxc"
4	242	1196	#line 242 "C:\Users\Sakeeb\Documents\School\Fall 2017\CSCC85\Phase 1\Phase1---Little-Lost-Robot\Distro\pfilter prob.nxc"
4	243	1196		set __signed_stack_003victory, 2
4	242	1199	#line 242 "C:\Users\Sakeeb\Documents\School\Fall 2017\CSCC85\Phase 1\Phase1---Little-Lost-Robot\Distro\pfilter prob.nxc"
4	242	1199	#line 242 "C:\Users\Sakeeb\Documents\School\Fall 2017\CSCC85\Phase 1\Phase1---Little-Lost-Robot\Distro\pfilter prob.nxc"
4	243	1199		set __D0victory, 0
4	243	1202	#line 243 "C:\Users\Sakeeb\Documents\School\Fall 2017\CSCC85\Phase 1\Phase1---Little-Lost-Robot\Distro\pfilter prob.nxc"
4	244	1202		acquire __SPTArgsMutex
4	243	1203	#line 243 "C:\Users\Sakeeb\Documents\School\Fall 2017\CSCC85\Phase 1\Phase1---Little-Lost-Robot\Distro\pfilter prob.nxc"
4	244	1203		mov __SPTArgs.Frequency, __signed_stack_001victory
4	243	1206	#line 243 "C:\Users\Sakeeb\Documents\School\Fall 2017\CSCC85\Phase 1\Phase1---Little-Lost-Robot\Distro\pfilter prob.nxc"
4	244	1206		mov __SPTArgs.Duration, __signed_stack_002victory
4	243	1209	#line 243 "C:\Users\Sakeeb\Documents\School\Fall 2017\CSCC85\Phase 1\Phase1---Little-Lost-Robot\Distro\pfilter prob.nxc"
4	244	1209		mov __SPTArgs.Volume, __signed_stack_003victory
4	243	1212	#line 243 "C:\Users\Sakeeb\Documents\School\Fall 2017\CSCC85\Phase 1\Phase1---Little-Lost-Robot\Distro\pfilter prob.nxc"
4	244	1212		mov __SPTArgs.Loop, __D0victory
4	243	1215	#line 243 "C:\Users\Sakeeb\Documents\School\Fall 2017\CSCC85\Phase 1\Phase1---Little-Lost-Robot\Distro\pfilter prob.nxc"
4	244	1215		syscall 10, __SPTArgs
4	243	1218	#line 243 "C:\Users\Sakeeb\Documents\School\Fall 2017\CSCC85\Phase 1\Phase1---Little-Lost-Robot\Distro\pfilter prob.nxc"
4	244	1218		mov __D0victory, __SPTArgs.Result
4	243	1221	#line 243 "C:\Users\Sakeeb\Documents\School\Fall 2017\CSCC85\Phase 1\Phase1---Little-Lost-Robot\Distro\pfilter prob.nxc"
4	244	1221		release __SPTArgsMutex
4	243	1222	#line 243 "C:\Users\Sakeeb\Documents\School\Fall 2017\CSCC85\Phase 1\Phase1---Little-Lost-Robot\Distro\pfilter prob.nxc"
4	243	1222	#line 243 "C:\Users\Sakeeb\Documents\School\Fall 2017\CSCC85\Phase 1\Phase1---Little-Lost-Robot\Distro\pfilter prob.nxc"
4	244	1222		set __Wait_7qG2_ms_7qG2_000_inline_victory, 315
4	243	1225	#line 243 "C:\Users\Sakeeb\Documents\School\Fall 2017\CSCC85\Phase 1\Phase1---Little-Lost-Robot\Distro\pfilter prob.nxc"
4	8551	1225	#line 8551 "NXCDefs.h"
4	8552	1225		wait2 NA, __Wait_7qG2_ms_7qG2_000_inline_victory
4	8551	1228	#line 8551 "NXCDefs.h"
4	246	1228	#line 246 "C:\Users\Sakeeb\Documents\School\Fall 2017\CSCC85\Phase 1\Phase1---Little-Lost-Robot\Distro\pfilter prob.nxc"
4	246	1228	#line 246 "C:\Users\Sakeeb\Documents\School\Fall 2017\CSCC85\Phase 1\Phase1---Little-Lost-Robot\Distro\pfilter prob.nxc"
4	247	1228		set __signed_stack_001victory, 880
4	246	1231	#line 246 "C:\Users\Sakeeb\Documents\School\Fall 2017\CSCC85\Phase 1\Phase1---Little-Lost-Robot\Distro\pfilter prob.nxc"
4	246	1231	#line 246 "C:\Users\Sakeeb\Documents\School\Fall 2017\CSCC85\Phase 1\Phase1---Little-Lost-Robot\Distro\pfilter prob.nxc"
4	247	1231		set __signed_stack_002victory, 429
4	246	1234	#line 246 "C:\Users\Sakeeb\Documents\School\Fall 2017\CSCC85\Phase 1\Phase1---Little-Lost-Robot\Distro\pfilter prob.nxc"
4	246	1234	#line 246 "C:\Users\Sakeeb\Documents\School\Fall 2017\CSCC85\Phase 1\Phase1---Little-Lost-Robot\Distro\pfilter prob.nxc"
4	247	1234		set __signed_stack_003victory, 2
4	246	1237	#line 246 "C:\Users\Sakeeb\Documents\School\Fall 2017\CSCC85\Phase 1\Phase1---Little-Lost-Robot\Distro\pfilter prob.nxc"
4	246	1237	#line 246 "C:\Users\Sakeeb\Documents\School\Fall 2017\CSCC85\Phase 1\Phase1---Little-Lost-Robot\Distro\pfilter prob.nxc"
4	247	1237		set __D0victory, 0
4	247	1240	#line 247 "C:\Users\Sakeeb\Documents\School\Fall 2017\CSCC85\Phase 1\Phase1---Little-Lost-Robot\Distro\pfilter prob.nxc"
4	248	1240		acquire __SPTArgsMutex
4	247	1241	#line 247 "C:\Users\Sakeeb\Documents\School\Fall 2017\CSCC85\Phase 1\Phase1---Little-Lost-Robot\Distro\pfilter prob.nxc"
4	248	1241		mov __SPTArgs.Frequency, __signed_stack_001victory
4	247	1244	#line 247 "C:\Users\Sakeeb\Documents\School\Fall 2017\CSCC85\Phase 1\Phase1---Little-Lost-Robot\Distro\pfilter prob.nxc"
4	248	1244		mov __SPTArgs.Duration, __signed_stack_002victory
4	247	1247	#line 247 "C:\Users\Sakeeb\Documents\School\Fall 2017\CSCC85\Phase 1\Phase1---Little-Lost-Robot\Distro\pfilter prob.nxc"
4	248	1247		mov __SPTArgs.Volume, __signed_stack_003victory
4	247	1250	#line 247 "C:\Users\Sakeeb\Documents\School\Fall 2017\CSCC85\Phase 1\Phase1---Little-Lost-Robot\Distro\pfilter prob.nxc"
4	248	1250		mov __SPTArgs.Loop, __D0victory
4	247	1253	#line 247 "C:\Users\Sakeeb\Documents\School\Fall 2017\CSCC85\Phase 1\Phase1---Little-Lost-Robot\Distro\pfilter prob.nxc"
4	248	1253		syscall 10, __SPTArgs
4	247	1256	#line 247 "C:\Users\Sakeeb\Documents\School\Fall 2017\CSCC85\Phase 1\Phase1---Little-Lost-Robot\Distro\pfilter prob.nxc"
4	248	1256		mov __D0victory, __SPTArgs.Result
4	247	1259	#line 247 "C:\Users\Sakeeb\Documents\School\Fall 2017\CSCC85\Phase 1\Phase1---Little-Lost-Robot\Distro\pfilter prob.nxc"
4	248	1259		release __SPTArgsMutex
4	247	1260	#line 247 "C:\Users\Sakeeb\Documents\School\Fall 2017\CSCC85\Phase 1\Phase1---Little-Lost-Robot\Distro\pfilter prob.nxc"
4	247	1260	#line 247 "C:\Users\Sakeeb\Documents\School\Fall 2017\CSCC85\Phase 1\Phase1---Little-Lost-Robot\Distro\pfilter prob.nxc"
4	248	1260		set __Wait_7qG2_ms_7qG2_000_inline_victory, 529
4	247	1263	#line 247 "C:\Users\Sakeeb\Documents\School\Fall 2017\CSCC85\Phase 1\Phase1---Little-Lost-Robot\Distro\pfilter prob.nxc"
4	8551	1263	#line 8551 "NXCDefs.h"
4	8552	1263		wait2 NA, __Wait_7qG2_ms_7qG2_000_inline_victory
4	8551	1266	#line 8551 "NXCDefs.h"
4	250	1266	#line 250 "C:\Users\Sakeeb\Documents\School\Fall 2017\CSCC85\Phase 1\Phase1---Little-Lost-Robot\Distro\pfilter prob.nxc"
4	250	1266	#line 250 "C:\Users\Sakeeb\Documents\School\Fall 2017\CSCC85\Phase 1\Phase1---Little-Lost-Robot\Distro\pfilter prob.nxc"
4	251	1266		set __signed_stack_001victory, 880
4	250	1269	#line 250 "C:\Users\Sakeeb\Documents\School\Fall 2017\CSCC85\Phase 1\Phase1---Little-Lost-Robot\Distro\pfilter prob.nxc"
4	250	1269	#line 250 "C:\Users\Sakeeb\Documents\School\Fall 2017\CSCC85\Phase 1\Phase1---Little-Lost-Robot\Distro\pfilter prob.nxc"
4	251	1269		set __signed_stack_002victory, 215
4	250	1272	#line 250 "C:\Users\Sakeeb\Documents\School\Fall 2017\CSCC85\Phase 1\Phase1---Little-Lost-Robot\Distro\pfilter prob.nxc"
4	250	1272	#line 250 "C:\Users\Sakeeb\Documents\School\Fall 2017\CSCC85\Phase 1\Phase1---Little-Lost-Robot\Distro\pfilter prob.nxc"
4	251	1272		set __signed_stack_003victory, 2
4	250	1275	#line 250 "C:\Users\Sakeeb\Documents\School\Fall 2017\CSCC85\Phase 1\Phase1---Little-Lost-Robot\Distro\pfilter prob.nxc"
4	250	1275	#line 250 "C:\Users\Sakeeb\Documents\School\Fall 2017\CSCC85\Phase 1\Phase1---Little-Lost-Robot\Distro\pfilter prob.nxc"
4	251	1275		set __D0victory, 0
4	251	1278	#line 251 "C:\Users\Sakeeb\Documents\School\Fall 2017\CSCC85\Phase 1\Phase1---Little-Lost-Robot\Distro\pfilter prob.nxc"
4	252	1278		acquire __SPTArgsMutex
4	251	1279	#line 251 "C:\Users\Sakeeb\Documents\School\Fall 2017\CSCC85\Phase 1\Phase1---Little-Lost-Robot\Distro\pfilter prob.nxc"
4	252	1279		mov __SPTArgs.Frequency, __signed_stack_001victory
4	251	1282	#line 251 "C:\Users\Sakeeb\Documents\School\Fall 2017\CSCC85\Phase 1\Phase1---Little-Lost-Robot\Distro\pfilter prob.nxc"
4	252	1282		mov __SPTArgs.Duration, __signed_stack_002victory
4	251	1285	#line 251 "C:\Users\Sakeeb\Documents\School\Fall 2017\CSCC85\Phase 1\Phase1---Little-Lost-Robot\Distro\pfilter prob.nxc"
4	252	1285		mov __SPTArgs.Volume, __signed_stack_003victory
4	251	1288	#line 251 "C:\Users\Sakeeb\Documents\School\Fall 2017\CSCC85\Phase 1\Phase1---Little-Lost-Robot\Distro\pfilter prob.nxc"
4	252	1288		mov __SPTArgs.Loop, __D0victory
4	251	1291	#line 251 "C:\Users\Sakeeb\Documents\School\Fall 2017\CSCC85\Phase 1\Phase1---Little-Lost-Robot\Distro\pfilter prob.nxc"
4	252	1291		syscall 10, __SPTArgs
4	251	1294	#line 251 "C:\Users\Sakeeb\Documents\School\Fall 2017\CSCC85\Phase 1\Phase1---Little-Lost-Robot\Distro\pfilter prob.nxc"
4	252	1294		mov __D0victory, __SPTArgs.Result
4	251	1297	#line 251 "C:\Users\Sakeeb\Documents\School\Fall 2017\CSCC85\Phase 1\Phase1---Little-Lost-Robot\Distro\pfilter prob.nxc"
4	252	1297		release __SPTArgsMutex
4	251	1298	#line 251 "C:\Users\Sakeeb\Documents\School\Fall 2017\CSCC85\Phase 1\Phase1---Little-Lost-Robot\Distro\pfilter prob.nxc"
4	251	1298	#line 251 "C:\Users\Sakeeb\Documents\School\Fall 2017\CSCC85\Phase 1\Phase1---Little-Lost-Robot\Distro\pfilter prob.nxc"
4	252	1298		set __Wait_7qG2_ms_7qG2_000_inline_victory, 315
4	251	1301	#line 251 "C:\Users\Sakeeb\Documents\School\Fall 2017\CSCC85\Phase 1\Phase1---Little-Lost-Robot\Distro\pfilter prob.nxc"
4	8551	1301	#line 8551 "NXCDefs.h"
4	8552	1301		wait2 NA, __Wait_7qG2_ms_7qG2_000_inline_victory
4	8551	1304	#line 8551 "NXCDefs.h"
4	254	1304	#line 254 "C:\Users\Sakeeb\Documents\School\Fall 2017\CSCC85\Phase 1\Phase1---Little-Lost-Robot\Distro\pfilter prob.nxc"
4	254	1304	#line 254 "C:\Users\Sakeeb\Documents\School\Fall 2017\CSCC85\Phase 1\Phase1---Little-Lost-Robot\Distro\pfilter prob.nxc"
4	255	1304		set __signed_stack_001victory, 784
4	254	1307	#line 254 "C:\Users\Sakeeb\Documents\School\Fall 2017\CSCC85\Phase 1\Phase1---Little-Lost-Robot\Distro\pfilter prob.nxc"
4	254	1307	#line 254 "C:\Users\Sakeeb\Documents\School\Fall 2017\CSCC85\Phase 1\Phase1---Little-Lost-Robot\Distro\pfilter prob.nxc"
4	255	1307		set __signed_stack_002victory, 429
4	254	1310	#line 254 "C:\Users\Sakeeb\Documents\School\Fall 2017\CSCC85\Phase 1\Phase1---Little-Lost-Robot\Distro\pfilter prob.nxc"
4	254	1310	#line 254 "C:\Users\Sakeeb\Documents\School\Fall 2017\CSCC85\Phase 1\Phase1---Little-Lost-Robot\Distro\pfilter prob.nxc"
4	255	1310		set __signed_stack_003victory, 2
4	254	1313	#line 254 "C:\Users\Sakeeb\Documents\School\Fall 2017\CSCC85\Phase 1\Phase1---Little-Lost-Robot\Distro\pfilter prob.nxc"
4	254	1313	#line 254 "C:\Users\Sakeeb\Documents\School\Fall 2017\CSCC85\Phase 1\Phase1---Little-Lost-Robot\Distro\pfilter prob.nxc"
4	255	1313		set __D0victory, 0
4	255	1316	#line 255 "C:\Users\Sakeeb\Documents\School\Fall 2017\CSCC85\Phase 1\Phase1---Little-Lost-Robot\Distro\pfilter prob.nxc"
4	256	1316		acquire __SPTArgsMutex
4	255	1317	#line 255 "C:\Users\Sakeeb\Documents\School\Fall 2017\CSCC85\Phase 1\Phase1---Little-Lost-Robot\Distro\pfilter prob.nxc"
4	256	1317		mov __SPTArgs.Frequency, __signed_stack_001victory
4	255	1320	#line 255 "C:\Users\Sakeeb\Documents\School\Fall 2017\CSCC85\Phase 1\Phase1---Little-Lost-Robot\Distro\pfilter prob.nxc"
4	256	1320		mov __SPTArgs.Duration, __signed_stack_002victory
4	255	1323	#line 255 "C:\Users\Sakeeb\Documents\School\Fall 2017\CSCC85\Phase 1\Phase1---Little-Lost-Robot\Distro\pfilter prob.nxc"
4	256	1323		mov __SPTArgs.Volume, __signed_stack_003victory
4	255	1326	#line 255 "C:\Users\Sakeeb\Documents\School\Fall 2017\CSCC85\Phase 1\Phase1---Little-Lost-Robot\Distro\pfilter prob.nxc"
4	256	1326		mov __SPTArgs.Loop, __D0victory
4	255	1329	#line 255 "C:\Users\Sakeeb\Documents\School\Fall 2017\CSCC85\Phase 1\Phase1---Little-Lost-Robot\Distro\pfilter prob.nxc"
4	256	1329		syscall 10, __SPTArgs
4	255	1332	#line 255 "C:\Users\Sakeeb\Documents\School\Fall 2017\CSCC85\Phase 1\Phase1---Little-Lost-Robot\Distro\pfilter prob.nxc"
4	256	1332		mov __D0victory, __SPTArgs.Result
4	255	1335	#line 255 "C:\Users\Sakeeb\Documents\School\Fall 2017\CSCC85\Phase 1\Phase1---Little-Lost-Robot\Distro\pfilter prob.nxc"
4	256	1335		release __SPTArgsMutex
4	255	1336	#line 255 "C:\Users\Sakeeb\Documents\School\Fall 2017\CSCC85\Phase 1\Phase1---Little-Lost-Robot\Distro\pfilter prob.nxc"
4	255	1336	#line 255 "C:\Users\Sakeeb\Documents\School\Fall 2017\CSCC85\Phase 1\Phase1---Little-Lost-Robot\Distro\pfilter prob.nxc"
4	256	1336		set __Wait_7qG2_ms_7qG2_000_inline_victory, 529
4	255	1339	#line 255 "C:\Users\Sakeeb\Documents\School\Fall 2017\CSCC85\Phase 1\Phase1---Little-Lost-Robot\Distro\pfilter prob.nxc"
4	8551	1339	#line 8551 "NXCDefs.h"
4	8552	1339		wait2 NA, __Wait_7qG2_ms_7qG2_000_inline_victory
4	8551	1342	#line 8551 "NXCDefs.h"
4	258	1342	#line 258 "C:\Users\Sakeeb\Documents\School\Fall 2017\CSCC85\Phase 1\Phase1---Little-Lost-Robot\Distro\pfilter prob.nxc"
4	258	1342	#line 258 "C:\Users\Sakeeb\Documents\School\Fall 2017\CSCC85\Phase 1\Phase1---Little-Lost-Robot\Distro\pfilter prob.nxc"
4	259	1342		set __signed_stack_001victory, 698
4	258	1345	#line 258 "C:\Users\Sakeeb\Documents\School\Fall 2017\CSCC85\Phase 1\Phase1---Little-Lost-Robot\Distro\pfilter prob.nxc"
4	258	1345	#line 258 "C:\Users\Sakeeb\Documents\School\Fall 2017\CSCC85\Phase 1\Phase1---Little-Lost-Robot\Distro\pfilter prob.nxc"
4	259	1345		set __signed_stack_002victory, 429
4	258	1348	#line 258 "C:\Users\Sakeeb\Documents\School\Fall 2017\CSCC85\Phase 1\Phase1---Little-Lost-Robot\Distro\pfilter prob.nxc"
4	258	1348	#line 258 "C:\Users\Sakeeb\Documents\School\Fall 2017\CSCC85\Phase 1\Phase1---Little-Lost-Robot\Distro\pfilter prob.nxc"
4	259	1348		set __signed_stack_003victory, 2
4	258	1351	#line 258 "C:\Users\Sakeeb\Documents\School\Fall 2017\CSCC85\Phase 1\Phase1---Little-Lost-Robot\Distro\pfilter prob.nxc"
4	258	1351	#line 258 "C:\Users\Sakeeb\Documents\School\Fall 2017\CSCC85\Phase 1\Phase1---Little-Lost-Robot\Distro\pfilter prob.nxc"
4	259	1351		set __D0victory, 0
4	259	1354	#line 259 "C:\Users\Sakeeb\Documents\School\Fall 2017\CSCC85\Phase 1\Phase1---Little-Lost-Robot\Distro\pfilter prob.nxc"
4	260	1354		acquire __SPTArgsMutex
4	259	1355	#line 259 "C:\Users\Sakeeb\Documents\School\Fall 2017\CSCC85\Phase 1\Phase1---Little-Lost-Robot\Distro\pfilter prob.nxc"
4	260	1355		mov __SPTArgs.Frequency, __signed_stack_001victory
4	259	1358	#line 259 "C:\Users\Sakeeb\Documents\School\Fall 2017\CSCC85\Phase 1\Phase1---Little-Lost-Robot\Distro\pfilter prob.nxc"
4	260	1358		mov __SPTArgs.Duration, __signed_stack_002victory
4	259	1361	#line 259 "C:\Users\Sakeeb\Documents\School\Fall 2017\CSCC85\Phase 1\Phase1---Little-Lost-Robot\Distro\pfilter prob.nxc"
4	260	1361		mov __SPTArgs.Volume, __signed_stack_003victory
4	259	1364	#line 259 "C:\Users\Sakeeb\Documents\School\Fall 2017\CSCC85\Phase 1\Phase1---Little-Lost-Robot\Distro\pfilter prob.nxc"
4	260	1364		mov __SPTArgs.Loop, __D0victory
4	259	1367	#line 259 "C:\Users\Sakeeb\Documents\School\Fall 2017\CSCC85\Phase 1\Phase1---Little-Lost-Robot\Distro\pfilter prob.nxc"
4	260	1367		syscall 10, __SPTArgs
4	259	1370	#line 259 "C:\Users\Sakeeb\Documents\School\Fall 2017\CSCC85\Phase 1\Phase1---Little-Lost-Robot\Distro\pfilter prob.nxc"
4	260	1370		mov __D0victory, __SPTArgs.Result
4	259	1373	#line 259 "C:\Users\Sakeeb\Documents\School\Fall 2017\CSCC85\Phase 1\Phase1---Little-Lost-Robot\Distro\pfilter prob.nxc"
4	260	1373		release __SPTArgsMutex
4	259	1374	#line 259 "C:\Users\Sakeeb\Documents\School\Fall 2017\CSCC85\Phase 1\Phase1---Little-Lost-Robot\Distro\pfilter prob.nxc"
4	259	1374	#line 259 "C:\Users\Sakeeb\Documents\School\Fall 2017\CSCC85\Phase 1\Phase1---Little-Lost-Robot\Distro\pfilter prob.nxc"
4	260	1374		set __Wait_7qG2_ms_7qG2_000_inline_victory, 529
4	259	1377	#line 259 "C:\Users\Sakeeb\Documents\School\Fall 2017\CSCC85\Phase 1\Phase1---Little-Lost-Robot\Distro\pfilter prob.nxc"
4	8551	1377	#line 8551 "NXCDefs.h"
4	8552	1377		wait2 NA, __Wait_7qG2_ms_7qG2_000_inline_victory
4	8551	1380	#line 8551 "NXCDefs.h"
4	262	1380	#line 262 "C:\Users\Sakeeb\Documents\School\Fall 2017\CSCC85\Phase 1\Phase1---Little-Lost-Robot\Distro\pfilter prob.nxc"
4	262	1380	#line 262 "C:\Users\Sakeeb\Documents\School\Fall 2017\CSCC85\Phase 1\Phase1---Little-Lost-Robot\Distro\pfilter prob.nxc"
4	263	1380		set __signed_stack_001victory, 784
4	262	1383	#line 262 "C:\Users\Sakeeb\Documents\School\Fall 2017\CSCC85\Phase 1\Phase1---Little-Lost-Robot\Distro\pfilter prob.nxc"
4	262	1383	#line 262 "C:\Users\Sakeeb\Documents\School\Fall 2017\CSCC85\Phase 1\Phase1---Little-Lost-Robot\Distro\pfilter prob.nxc"
4	263	1383		set __signed_stack_002victory, 429
4	262	1386	#line 262 "C:\Users\Sakeeb\Documents\School\Fall 2017\CSCC85\Phase 1\Phase1---Little-Lost-Robot\Distro\pfilter prob.nxc"
4	262	1386	#line 262 "C:\Users\Sakeeb\Documents\School\Fall 2017\CSCC85\Phase 1\Phase1---Little-Lost-Robot\Distro\pfilter prob.nxc"
4	263	1386		set __signed_stack_003victory, 2
4	262	1389	#line 262 "C:\Users\Sakeeb\Documents\School\Fall 2017\CSCC85\Phase 1\Phase1---Little-Lost-Robot\Distro\pfilter prob.nxc"
4	262	1389	#line 262 "C:\Users\Sakeeb\Documents\School\Fall 2017\CSCC85\Phase 1\Phase1---Little-Lost-Robot\Distro\pfilter prob.nxc"
4	263	1389		set __D0victory, 0
4	263	1392	#line 263 "C:\Users\Sakeeb\Documents\School\Fall 2017\CSCC85\Phase 1\Phase1---Little-Lost-Robot\Distro\pfilter prob.nxc"
4	264	1392		acquire __SPTArgsMutex
4	263	1393	#line 263 "C:\Users\Sakeeb\Documents\School\Fall 2017\CSCC85\Phase 1\Phase1---Little-Lost-Robot\Distro\pfilter prob.nxc"
4	264	1393		mov __SPTArgs.Frequency, __signed_stack_001victory
4	263	1396	#line 263 "C:\Users\Sakeeb\Documents\School\Fall 2017\CSCC85\Phase 1\Phase1---Little-Lost-Robot\Distro\pfilter prob.nxc"
4	264	1396		mov __SPTArgs.Duration, __signed_stack_002victory
4	263	1399	#line 263 "C:\Users\Sakeeb\Documents\School\Fall 2017\CSCC85\Phase 1\Phase1---Little-Lost-Robot\Distro\pfilter prob.nxc"
4	264	1399		mov __SPTArgs.Volume, __signed_stack_003victory
4	263	1402	#line 263 "C:\Users\Sakeeb\Documents\School\Fall 2017\CSCC85\Phase 1\Phase1---Little-Lost-Robot\Distro\pfilter prob.nxc"
4	264	1402		mov __SPTArgs.Loop, __D0victory
4	263	1405	#line 263 "C:\Users\Sakeeb\Documents\School\Fall 2017\CSCC85\Phase 1\Phase1---Little-Lost-Robot\Distro\pfilter prob.nxc"
4	264	1405		syscall 10, __SPTArgs
4	263	1408	#line 263 "C:\Users\Sakeeb\Documents\School\Fall 2017\CSCC85\Phase 1\Phase1---Little-Lost-Robot\Distro\pfilter prob.nxc"
4	264	1408		mov __D0victory, __SPTArgs.Result
4	263	1411	#line 263 "C:\Users\Sakeeb\Documents\School\Fall 2017\CSCC85\Phase 1\Phase1---Little-Lost-Robot\Distro\pfilter prob.nxc"
4	264	1411		release __SPTArgsMutex
4	263	1412	#line 263 "C:\Users\Sakeeb\Documents\School\Fall 2017\CSCC85\Phase 1\Phase1---Little-Lost-Robot\Distro\pfilter prob.nxc"
4	263	1412	#line 263 "C:\Users\Sakeeb\Documents\School\Fall 2017\CSCC85\Phase 1\Phase1---Little-Lost-Robot\Distro\pfilter prob.nxc"
4	264	1412		set __Wait_7qG2_ms_7qG2_000_inline_victory, 529
4	263	1415	#line 263 "C:\Users\Sakeeb\Documents\School\Fall 2017\CSCC85\Phase 1\Phase1---Little-Lost-Robot\Distro\pfilter prob.nxc"
4	8551	1415	#line 8551 "NXCDefs.h"
4	8552	1415		wait2 NA, __Wait_7qG2_ms_7qG2_000_inline_victory
4	8551	1418	#line 8551 "NXCDefs.h"
4	266	1418	#line 266 "C:\Users\Sakeeb\Documents\School\Fall 2017\CSCC85\Phase 1\Phase1---Little-Lost-Robot\Distro\pfilter prob.nxc"
4	266	1418	#line 266 "C:\Users\Sakeeb\Documents\School\Fall 2017\CSCC85\Phase 1\Phase1---Little-Lost-Robot\Distro\pfilter prob.nxc"
4	267	1418		set __signed_stack_001victory, 932
4	266	1421	#line 266 "C:\Users\Sakeeb\Documents\School\Fall 2017\CSCC85\Phase 1\Phase1---Little-Lost-Robot\Distro\pfilter prob.nxc"
4	266	1421	#line 266 "C:\Users\Sakeeb\Documents\School\Fall 2017\CSCC85\Phase 1\Phase1---Little-Lost-Robot\Distro\pfilter prob.nxc"
4	267	1421		set __signed_stack_002victory, 215
4	266	1424	#line 266 "C:\Users\Sakeeb\Documents\School\Fall 2017\CSCC85\Phase 1\Phase1---Little-Lost-Robot\Distro\pfilter prob.nxc"
4	266	1424	#line 266 "C:\Users\Sakeeb\Documents\School\Fall 2017\CSCC85\Phase 1\Phase1---Little-Lost-Robot\Distro\pfilter prob.nxc"
4	267	1424		set __signed_stack_003victory, 2
4	266	1427	#line 266 "C:\Users\Sakeeb\Documents\School\Fall 2017\CSCC85\Phase 1\Phase1---Little-Lost-Robot\Distro\pfilter prob.nxc"
4	266	1427	#line 266 "C:\Users\Sakeeb\Documents\School\Fall 2017\CSCC85\Phase 1\Phase1---Little-Lost-Robot\Distro\pfilter prob.nxc"
4	267	1427		set __D0victory, 0
4	267	1430	#line 267 "C:\Users\Sakeeb\Documents\School\Fall 2017\CSCC85\Phase 1\Phase1---Little-Lost-Robot\Distro\pfilter prob.nxc"
4	268	1430		acquire __SPTArgsMutex
4	267	1431	#line 267 "C:\Users\Sakeeb\Documents\School\Fall 2017\CSCC85\Phase 1\Phase1---Little-Lost-Robot\Distro\pfilter prob.nxc"
4	268	1431		mov __SPTArgs.Frequency, __signed_stack_001victory
4	267	1434	#line 267 "C:\Users\Sakeeb\Documents\School\Fall 2017\CSCC85\Phase 1\Phase1---Little-Lost-Robot\Distro\pfilter prob.nxc"
4	268	1434		mov __SPTArgs.Duration, __signed_stack_002victory
4	267	1437	#line 267 "C:\Users\Sakeeb\Documents\School\Fall 2017\CSCC85\Phase 1\Phase1---Little-Lost-Robot\Distro\pfilter prob.nxc"
4	268	1437		mov __SPTArgs.Volume, __signed_stack_003victory
4	267	1440	#line 267 "C:\Users\Sakeeb\Documents\School\Fall 2017\CSCC85\Phase 1\Phase1---Little-Lost-Robot\Distro\pfilter prob.nxc"
4	268	1440		mov __SPTArgs.Loop, __D0victory
4	267	1443	#line 267 "C:\Users\Sakeeb\Documents\School\Fall 2017\CSCC85\Phase 1\Phase1---Little-Lost-Robot\Distro\pfilter prob.nxc"
4	268	1443		syscall 10, __SPTArgs
4	267	1446	#line 267 "C:\Users\Sakeeb\Documents\School\Fall 2017\CSCC85\Phase 1\Phase1---Little-Lost-Robot\Distro\pfilter prob.nxc"
4	268	1446		mov __D0victory, __SPTArgs.Result
4	267	1449	#line 267 "C:\Users\Sakeeb\Documents\School\Fall 2017\CSCC85\Phase 1\Phase1---Little-Lost-Robot\Distro\pfilter prob.nxc"
4	268	1449		release __SPTArgsMutex
4	267	1450	#line 267 "C:\Users\Sakeeb\Documents\School\Fall 2017\CSCC85\Phase 1\Phase1---Little-Lost-Robot\Distro\pfilter prob.nxc"
4	267	1450	#line 267 "C:\Users\Sakeeb\Documents\School\Fall 2017\CSCC85\Phase 1\Phase1---Little-Lost-Robot\Distro\pfilter prob.nxc"
4	268	1450		set __Wait_7qG2_ms_7qG2_000_inline_victory, 315
4	267	1453	#line 267 "C:\Users\Sakeeb\Documents\School\Fall 2017\CSCC85\Phase 1\Phase1---Little-Lost-Robot\Distro\pfilter prob.nxc"
4	8551	1453	#line 8551 "NXCDefs.h"
4	8552	1453		wait2 NA, __Wait_7qG2_ms_7qG2_000_inline_victory
4	8551	1456	#line 8551 "NXCDefs.h"
4	270	1456	#line 270 "C:\Users\Sakeeb\Documents\School\Fall 2017\CSCC85\Phase 1\Phase1---Little-Lost-Robot\Distro\pfilter prob.nxc"
4	270	1456	#line 270 "C:\Users\Sakeeb\Documents\School\Fall 2017\CSCC85\Phase 1\Phase1---Little-Lost-Robot\Distro\pfilter prob.nxc"
4	271	1456		set __signed_stack_001victory, 1047
4	270	1459	#line 270 "C:\Users\Sakeeb\Documents\School\Fall 2017\CSCC85\Phase 1\Phase1---Little-Lost-Robot\Distro\pfilter prob.nxc"
4	270	1459	#line 270 "C:\Users\Sakeeb\Documents\School\Fall 2017\CSCC85\Phase 1\Phase1---Little-Lost-Robot\Distro\pfilter prob.nxc"
4	271	1459		set __signed_stack_002victory, 1287
4	270	1462	#line 270 "C:\Users\Sakeeb\Documents\School\Fall 2017\CSCC85\Phase 1\Phase1---Little-Lost-Robot\Distro\pfilter prob.nxc"
4	270	1462	#line 270 "C:\Users\Sakeeb\Documents\School\Fall 2017\CSCC85\Phase 1\Phase1---Little-Lost-Robot\Distro\pfilter prob.nxc"
4	271	1462		set __signed_stack_003victory, 2
4	270	1465	#line 270 "C:\Users\Sakeeb\Documents\School\Fall 2017\CSCC85\Phase 1\Phase1---Little-Lost-Robot\Distro\pfilter prob.nxc"
4	270	1465	#line 270 "C:\Users\Sakeeb\Documents\School\Fall 2017\CSCC85\Phase 1\Phase1---Little-Lost-Robot\Distro\pfilter prob.nxc"
4	271	1465		set __D0victory, 0
4	271	1468	#line 271 "C:\Users\Sakeeb\Documents\School\Fall 2017\CSCC85\Phase 1\Phase1---Little-Lost-Robot\Distro\pfilter prob.nxc"
4	272	1468		acquire __SPTArgsMutex
4	271	1469	#line 271 "C:\Users\Sakeeb\Documents\School\Fall 2017\CSCC85\Phase 1\Phase1---Little-Lost-Robot\Distro\pfilter prob.nxc"
4	272	1469		mov __SPTArgs.Frequency, __signed_stack_001victory
4	271	1472	#line 271 "C:\Users\Sakeeb\Documents\School\Fall 2017\CSCC85\Phase 1\Phase1---Little-Lost-Robot\Distro\pfilter prob.nxc"
4	272	1472		mov __SPTArgs.Duration, __signed_stack_002victory
4	271	1475	#line 271 "C:\Users\Sakeeb\Documents\School\Fall 2017\CSCC85\Phase 1\Phase1---Little-Lost-Robot\Distro\pfilter prob.nxc"
4	272	1475		mov __SPTArgs.Volume, __signed_stack_003victory
4	271	1478	#line 271 "C:\Users\Sakeeb\Documents\School\Fall 2017\CSCC85\Phase 1\Phase1---Little-Lost-Robot\Distro\pfilter prob.nxc"
4	272	1478		mov __SPTArgs.Loop, __D0victory
4	271	1481	#line 271 "C:\Users\Sakeeb\Documents\School\Fall 2017\CSCC85\Phase 1\Phase1---Little-Lost-Robot\Distro\pfilter prob.nxc"
4	272	1481		syscall 10, __SPTArgs
4	271	1484	#line 271 "C:\Users\Sakeeb\Documents\School\Fall 2017\CSCC85\Phase 1\Phase1---Little-Lost-Robot\Distro\pfilter prob.nxc"
4	272	1484		mov __D0victory, __SPTArgs.Result
4	271	1487	#line 271 "C:\Users\Sakeeb\Documents\School\Fall 2017\CSCC85\Phase 1\Phase1---Little-Lost-Robot\Distro\pfilter prob.nxc"
4	272	1487		release __SPTArgsMutex
4	271	1488	#line 271 "C:\Users\Sakeeb\Documents\School\Fall 2017\CSCC85\Phase 1\Phase1---Little-Lost-Robot\Distro\pfilter prob.nxc"
4	271	1488	#line 271 "C:\Users\Sakeeb\Documents\School\Fall 2017\CSCC85\Phase 1\Phase1---Little-Lost-Robot\Distro\pfilter prob.nxc"
4	272	1488		set __Wait_7qG2_ms_7qG2_000_inline_victory, 1387
4	271	1491	#line 271 "C:\Users\Sakeeb\Documents\School\Fall 2017\CSCC85\Phase 1\Phase1---Little-Lost-Robot\Distro\pfilter prob.nxc"
4	8551	1491	#line 8551 "NXCDefs.h"
4	8552	1491		wait2 NA, __Wait_7qG2_ms_7qG2_000_inline_victory
4	8551	1494	#line 8551 "NXCDefs.h"
4	273	1494	#line 273 "C:\Users\Sakeeb\Documents\School\Fall 2017\CSCC85\Phase 1\Phase1---Little-Lost-Robot\Distro\pfilter prob.nxc"
4	273	1494	#line 273 "C:\Users\Sakeeb\Documents\School\Fall 2017\CSCC85\Phase 1\Phase1---Little-Lost-Robot\Distro\pfilter prob.nxc"
4	274	1494		set __Wait_7qG2_ms_7qG2_000_inline_victory, 529
4	273	1497	#line 273 "C:\Users\Sakeeb\Documents\School\Fall 2017\CSCC85\Phase 1\Phase1---Little-Lost-Robot\Distro\pfilter prob.nxc"
4	8551	1497	#line 8551 "NXCDefs.h"
4	8552	1497		wait2 NA, __Wait_7qG2_ms_7qG2_000_inline_victory
4	8551	1500	#line 8551 "NXCDefs.h"
4	275	1500	#line 275 "C:\Users\Sakeeb\Documents\School\Fall 2017\CSCC85\Phase 1\Phase1---Little-Lost-Robot\Distro\pfilter prob.nxc"
4	277	1500	#line 277 "C:\Users\Sakeeb\Documents\School\Fall 2017\CSCC85\Phase 1\Phase1---Little-Lost-Robot\Distro\pfilter prob.nxc"
4	278	1500		subret __victory_return
5	280	0	#line 280 "C:\Users\Sakeeb\Documents\School\Fall 2017\CSCC85\Phase 1\Phase1---Little-Lost-Robot\Distro\pfilter prob.nxc"
5	281	0		set __signed_stack_001package, 880
5	280	3	#line 280 "C:\Users\Sakeeb\Documents\School\Fall 2017\CSCC85\Phase 1\Phase1---Little-Lost-Robot\Distro\pfilter prob.nxc"
5	280	3	#line 280 "C:\Users\Sakeeb\Documents\School\Fall 2017\CSCC85\Phase 1\Phase1---Little-Lost-Robot\Distro\pfilter prob.nxc"
5	281	3		set __signed_stack_002package, 300
5	280	6	#line 280 "C:\Users\Sakeeb\Documents\School\Fall 2017\CSCC85\Phase 1\Phase1---Little-Lost-Robot\Distro\pfilter prob.nxc"
5	280	6	#line 280 "C:\Users\Sakeeb\Documents\School\Fall 2017\CSCC85\Phase 1\Phase1---Little-Lost-Robot\Distro\pfilter prob.nxc"
5	281	6		set __signed_stack_003package, 2
5	280	9	#line 280 "C:\Users\Sakeeb\Documents\School\Fall 2017\CSCC85\Phase 1\Phase1---Little-Lost-Robot\Distro\pfilter prob.nxc"
5	280	9	#line 280 "C:\Users\Sakeeb\Documents\School\Fall 2017\CSCC85\Phase 1\Phase1---Little-Lost-Robot\Distro\pfilter prob.nxc"
5	281	9		set __D0package, 0
5	281	12	#line 281 "C:\Users\Sakeeb\Documents\School\Fall 2017\CSCC85\Phase 1\Phase1---Little-Lost-Robot\Distro\pfilter prob.nxc"
5	282	12		acquire __SPTArgsMutex
5	281	13	#line 281 "C:\Users\Sakeeb\Documents\School\Fall 2017\CSCC85\Phase 1\Phase1---Little-Lost-Robot\Distro\pfilter prob.nxc"
5	282	13		mov __SPTArgs.Frequency, __signed_stack_001package
5	281	16	#line 281 "C:\Users\Sakeeb\Documents\School\Fall 2017\CSCC85\Phase 1\Phase1---Little-Lost-Robot\Distro\pfilter prob.nxc"
5	282	16		mov __SPTArgs.Duration, __signed_stack_002package
5	281	19	#line 281 "C:\Users\Sakeeb\Documents\School\Fall 2017\CSCC85\Phase 1\Phase1---Little-Lost-Robot\Distro\pfilter prob.nxc"
5	282	19		mov __SPTArgs.Volume, __signed_stack_003package
5	281	22	#line 281 "C:\Users\Sakeeb\Documents\School\Fall 2017\CSCC85\Phase 1\Phase1---Little-Lost-Robot\Distro\pfilter prob.nxc"
5	282	22		mov __SPTArgs.Loop, __D0package
5	281	25	#line 281 "C:\Users\Sakeeb\Documents\School\Fall 2017\CSCC85\Phase 1\Phase1---Little-Lost-Robot\Distro\pfilter prob.nxc"
5	282	25		syscall 10, __SPTArgs
5	281	28	#line 281 "C:\Users\Sakeeb\Documents\School\Fall 2017\CSCC85\Phase 1\Phase1---Little-Lost-Robot\Distro\pfilter prob.nxc"
5	282	28		mov __D0package, __SPTArgs.Result
5	281	31	#line 281 "C:\Users\Sakeeb\Documents\School\Fall 2017\CSCC85\Phase 1\Phase1---Little-Lost-Robot\Distro\pfilter prob.nxc"
5	282	31		release __SPTArgsMutex
5	281	32	#line 281 "C:\Users\Sakeeb\Documents\School\Fall 2017\CSCC85\Phase 1\Phase1---Little-Lost-Robot\Distro\pfilter prob.nxc"
5	281	32	#line 281 "C:\Users\Sakeeb\Documents\School\Fall 2017\CSCC85\Phase 1\Phase1---Little-Lost-Robot\Distro\pfilter prob.nxc"
5	282	32		set __Wait_7qG2_ms_7qG2_000_inline_package, 400
5	281	35	#line 281 "C:\Users\Sakeeb\Documents\School\Fall 2017\CSCC85\Phase 1\Phase1---Little-Lost-Robot\Distro\pfilter prob.nxc"
5	8551	35	#line 8551 "NXCDefs.h"
5	8552	35		wait2 NA, __Wait_7qG2_ms_7qG2_000_inline_package
5	8551	38	#line 8551 "NXCDefs.h"
5	284	38	#line 284 "C:\Users\Sakeeb\Documents\School\Fall 2017\CSCC85\Phase 1\Phase1---Little-Lost-Robot\Distro\pfilter prob.nxc"
5	284	38	#line 284 "C:\Users\Sakeeb\Documents\School\Fall 2017\CSCC85\Phase 1\Phase1---Little-Lost-Robot\Distro\pfilter prob.nxc"
5	285	38		set __signed_stack_001package, 932
5	284	41	#line 284 "C:\Users\Sakeeb\Documents\School\Fall 2017\CSCC85\Phase 1\Phase1---Little-Lost-Robot\Distro\pfilter prob.nxc"
5	284	41	#line 284 "C:\Users\Sakeeb\Documents\School\Fall 2017\CSCC85\Phase 1\Phase1---Little-Lost-Robot\Distro\pfilter prob.nxc"
5	285	41		set __signed_stack_002package, 300
5	284	44	#line 284 "C:\Users\Sakeeb\Documents\School\Fall 2017\CSCC85\Phase 1\Phase1---Little-Lost-Robot\Distro\pfilter prob.nxc"
5	284	44	#line 284 "C:\Users\Sakeeb\Documents\School\Fall 2017\CSCC85\Phase 1\Phase1---Little-Lost-Robot\Distro\pfilter prob.nxc"
5	285	44		set __signed_stack_003package, 2
5	284	47	#line 284 "C:\Users\Sakeeb\Documents\School\Fall 2017\CSCC85\Phase 1\Phase1---Little-Lost-Robot\Distro\pfilter prob.nxc"
5	284	47	#line 284 "C:\Users\Sakeeb\Documents\School\Fall 2017\CSCC85\Phase 1\Phase1---Little-Lost-Robot\Distro\pfilter prob.nxc"
5	285	47		set __D0package, 0
5	285	50	#line 285 "C:\Users\Sakeeb\Documents\School\Fall 2017\CSCC85\Phase 1\Phase1---Little-Lost-Robot\Distro\pfilter prob.nxc"
5	286	50		acquire __SPTArgsMutex
5	285	51	#line 285 "C:\Users\Sakeeb\Documents\School\Fall 2017\CSCC85\Phase 1\Phase1---Little-Lost-Robot\Distro\pfilter prob.nxc"
5	286	51		mov __SPTArgs.Frequency, __signed_stack_001package
5	285	54	#line 285 "C:\Users\Sakeeb\Documents\School\Fall 2017\CSCC85\Phase 1\Phase1---Little-Lost-Robot\Distro\pfilter prob.nxc"
5	286	54		mov __SPTArgs.Duration, __signed_stack_002package
5	285	57	#line 285 "C:\Users\Sakeeb\Documents\School\Fall 2017\CSCC85\Phase 1\Phase1---Little-Lost-Robot\Distro\pfilter prob.nxc"
5	286	57		mov __SPTArgs.Volume, __signed_stack_003package
5	285	60	#line 285 "C:\Users\Sakeeb\Documents\School\Fall 2017\CSCC85\Phase 1\Phase1---Little-Lost-Robot\Distro\pfilter prob.nxc"
5	286	60		mov __SPTArgs.Loop, __D0package
5	285	63	#line 285 "C:\Users\Sakeeb\Documents\School\Fall 2017\CSCC85\Phase 1\Phase1---Little-Lost-Robot\Distro\pfilter prob.nxc"
5	286	63		syscall 10, __SPTArgs
5	285	66	#line 285 "C:\Users\Sakeeb\Documents\School\Fall 2017\CSCC85\Phase 1\Phase1---Little-Lost-Robot\Distro\pfilter prob.nxc"
5	286	66		mov __D0package, __SPTArgs.Result
5	285	69	#line 285 "C:\Users\Sakeeb\Documents\School\Fall 2017\CSCC85\Phase 1\Phase1---Little-Lost-Robot\Distro\pfilter prob.nxc"
5	286	69		release __SPTArgsMutex
5	285	70	#line 285 "C:\Users\Sakeeb\Documents\School\Fall 2017\CSCC85\Phase 1\Phase1---Little-Lost-Robot\Distro\pfilter prob.nxc"
5	285	70	#line 285 "C:\Users\Sakeeb\Documents\School\Fall 2017\CSCC85\Phase 1\Phase1---Little-Lost-Robot\Distro\pfilter prob.nxc"
5	286	70		set __Wait_7qG2_ms_7qG2_000_inline_package, 400
5	285	73	#line 285 "C:\Users\Sakeeb\Documents\School\Fall 2017\CSCC85\Phase 1\Phase1---Little-Lost-Robot\Distro\pfilter prob.nxc"
5	8551	73	#line 8551 "NXCDefs.h"
5	8552	73		wait2 NA, __Wait_7qG2_ms_7qG2_000_inline_package
5	8551	76	#line 8551 "NXCDefs.h"
5	288	76	#line 288 "C:\Users\Sakeeb\Documents\School\Fall 2017\CSCC85\Phase 1\Phase1---Little-Lost-Robot\Distro\pfilter prob.nxc"
5	288	76	#line 288 "C:\Users\Sakeeb\Documents\School\Fall 2017\CSCC85\Phase 1\Phase1---Little-Lost-Robot\Distro\pfilter prob.nxc"
5	289	76		set __signed_stack_001package, 988
5	288	79	#line 288 "C:\Users\Sakeeb\Documents\School\Fall 2017\CSCC85\Phase 1\Phase1---Little-Lost-Robot\Distro\pfilter prob.nxc"
5	288	79	#line 288 "C:\Users\Sakeeb\Documents\School\Fall 2017\CSCC85\Phase 1\Phase1---Little-Lost-Robot\Distro\pfilter prob.nxc"
5	289	79		set __signed_stack_002package, 300
5	288	82	#line 288 "C:\Users\Sakeeb\Documents\School\Fall 2017\CSCC85\Phase 1\Phase1---Little-Lost-Robot\Distro\pfilter prob.nxc"
5	288	82	#line 288 "C:\Users\Sakeeb\Documents\School\Fall 2017\CSCC85\Phase 1\Phase1---Little-Lost-Robot\Distro\pfilter prob.nxc"
5	289	82		set __signed_stack_003package, 2
5	288	85	#line 288 "C:\Users\Sakeeb\Documents\School\Fall 2017\CSCC85\Phase 1\Phase1---Little-Lost-Robot\Distro\pfilter prob.nxc"
5	288	85	#line 288 "C:\Users\Sakeeb\Documents\School\Fall 2017\CSCC85\Phase 1\Phase1---Little-Lost-Robot\Distro\pfilter prob.nxc"
5	289	85		set __D0package, 0
5	289	88	#line 289 "C:\Users\Sakeeb\Documents\School\Fall 2017\CSCC85\Phase 1\Phase1---Little-Lost-Robot\Distro\pfilter prob.nxc"
5	290	88		acquire __SPTArgsMutex
5	289	89	#line 289 "C:\Users\Sakeeb\Documents\School\Fall 2017\CSCC85\Phase 1\Phase1---Little-Lost-Robot\Distro\pfilter prob.nxc"
5	290	89		mov __SPTArgs.Frequency, __signed_stack_001package
5	289	92	#line 289 "C:\Users\Sakeeb\Documents\School\Fall 2017\CSCC85\Phase 1\Phase1---Little-Lost-Robot\Distro\pfilter prob.nxc"
5	290	92		mov __SPTArgs.Duration, __signed_stack_002package
5	289	95	#line 289 "C:\Users\Sakeeb\Documents\School\Fall 2017\CSCC85\Phase 1\Phase1---Little-Lost-Robot\Distro\pfilter prob.nxc"
5	290	95		mov __SPTArgs.Volume, __signed_stack_003package
5	289	98	#line 289 "C:\Users\Sakeeb\Documents\School\Fall 2017\CSCC85\Phase 1\Phase1---Little-Lost-Robot\Distro\pfilter prob.nxc"
5	290	98		mov __SPTArgs.Loop, __D0package
5	289	101	#line 289 "C:\Users\Sakeeb\Documents\School\Fall 2017\CSCC85\Phase 1\Phase1---Little-Lost-Robot\Distro\pfilter prob.nxc"
5	290	101		syscall 10, __SPTArgs
5	289	104	#line 289 "C:\Users\Sakeeb\Documents\School\Fall 2017\CSCC85\Phase 1\Phase1---Little-Lost-Robot\Distro\pfilter prob.nxc"
5	290	104		mov __D0package, __SPTArgs.Result
5	289	107	#line 289 "C:\Users\Sakeeb\Documents\School\Fall 2017\CSCC85\Phase 1\Phase1---Little-Lost-Robot\Distro\pfilter prob.nxc"
5	290	107		release __SPTArgsMutex
5	289	108	#line 289 "C:\Users\Sakeeb\Documents\School\Fall 2017\CSCC85\Phase 1\Phase1---Little-Lost-Robot\Distro\pfilter prob.nxc"
5	289	108	#line 289 "C:\Users\Sakeeb\Documents\School\Fall 2017\CSCC85\Phase 1\Phase1---Little-Lost-Robot\Distro\pfilter prob.nxc"
5	290	108		set __Wait_7qG2_ms_7qG2_000_inline_package, 400
5	289	111	#line 289 "C:\Users\Sakeeb\Documents\School\Fall 2017\CSCC85\Phase 1\Phase1---Little-Lost-Robot\Distro\pfilter prob.nxc"
5	8551	111	#line 8551 "NXCDefs.h"
5	8552	111		wait2 NA, __Wait_7qG2_ms_7qG2_000_inline_package
5	8551	114	#line 8551 "NXCDefs.h"
5	292	114	#line 292 "C:\Users\Sakeeb\Documents\School\Fall 2017\CSCC85\Phase 1\Phase1---Little-Lost-Robot\Distro\pfilter prob.nxc"
5	292	114	#line 292 "C:\Users\Sakeeb\Documents\School\Fall 2017\CSCC85\Phase 1\Phase1---Little-Lost-Robot\Distro\pfilter prob.nxc"
5	293	114		set __signed_stack_001package, 1047
5	292	117	#line 292 "C:\Users\Sakeeb\Documents\School\Fall 2017\CSCC85\Phase 1\Phase1---Little-Lost-Robot\Distro\pfilter prob.nxc"
5	292	117	#line 292 "C:\Users\Sakeeb\Documents\School\Fall 2017\CSCC85\Phase 1\Phase1---Little-Lost-Robot\Distro\pfilter prob.nxc"
5	293	117		set __signed_stack_002package, 900
5	292	120	#line 292 "C:\Users\Sakeeb\Documents\School\Fall 2017\CSCC85\Phase 1\Phase1---Little-Lost-Robot\Distro\pfilter prob.nxc"
5	292	120	#line 292 "C:\Users\Sakeeb\Documents\School\Fall 2017\CSCC85\Phase 1\Phase1---Little-Lost-Robot\Distro\pfilter prob.nxc"
5	293	120		set __signed_stack_003package, 2
5	292	123	#line 292 "C:\Users\Sakeeb\Documents\School\Fall 2017\CSCC85\Phase 1\Phase1---Little-Lost-Robot\Distro\pfilter prob.nxc"
5	292	123	#line 292 "C:\Users\Sakeeb\Documents\School\Fall 2017\CSCC85\Phase 1\Phase1---Little-Lost-Robot\Distro\pfilter prob.nxc"
5	293	123		set __D0package, 0
5	293	126	#line 293 "C:\Users\Sakeeb\Documents\School\Fall 2017\CSCC85\Phase 1\Phase1---Little-Lost-Robot\Distro\pfilter prob.nxc"
5	294	126		acquire __SPTArgsMutex
5	293	127	#line 293 "C:\Users\Sakeeb\Documents\School\Fall 2017\CSCC85\Phase 1\Phase1---Little-Lost-Robot\Distro\pfilter prob.nxc"
5	294	127		mov __SPTArgs.Frequency, __signed_stack_001package
5	293	130	#line 293 "C:\Users\Sakeeb\Documents\School\Fall 2017\CSCC85\Phase 1\Phase1---Little-Lost-Robot\Distro\pfilter prob.nxc"
5	294	130		mov __SPTArgs.Duration, __signed_stack_002package
5	293	133	#line 293 "C:\Users\Sakeeb\Documents\School\Fall 2017\CSCC85\Phase 1\Phase1---Little-Lost-Robot\Distro\pfilter prob.nxc"
5	294	133		mov __SPTArgs.Volume, __signed_stack_003package
5	293	136	#line 293 "C:\Users\Sakeeb\Documents\School\Fall 2017\CSCC85\Phase 1\Phase1---Little-Lost-Robot\Distro\pfilter prob.nxc"
5	294	136		mov __SPTArgs.Loop, __D0package
5	293	139	#line 293 "C:\Users\Sakeeb\Documents\School\Fall 2017\CSCC85\Phase 1\Phase1---Little-Lost-Robot\Distro\pfilter prob.nxc"
5	294	139		syscall 10, __SPTArgs
5	293	142	#line 293 "C:\Users\Sakeeb\Documents\School\Fall 2017\CSCC85\Phase 1\Phase1---Little-Lost-Robot\Distro\pfilter prob.nxc"
5	294	142		mov __D0package, __SPTArgs.Result
5	293	145	#line 293 "C:\Users\Sakeeb\Documents\School\Fall 2017\CSCC85\Phase 1\Phase1---Little-Lost-Robot\Distro\pfilter prob.nxc"
5	294	145		release __SPTArgsMutex
5	293	146	#line 293 "C:\Users\Sakeeb\Documents\School\Fall 2017\CSCC85\Phase 1\Phase1---Little-Lost-Robot\Distro\pfilter prob.nxc"
5	293	146	#line 293 "C:\Users\Sakeeb\Documents\School\Fall 2017\CSCC85\Phase 1\Phase1---Little-Lost-Robot\Distro\pfilter prob.nxc"
5	294	146		set __Wait_7qG2_ms_7qG2_000_inline_package, 1000
5	293	149	#line 293 "C:\Users\Sakeeb\Documents\School\Fall 2017\CSCC85\Phase 1\Phase1---Little-Lost-Robot\Distro\pfilter prob.nxc"
5	8551	149	#line 8551 "NXCDefs.h"
5	8552	149		wait2 NA, __Wait_7qG2_ms_7qG2_000_inline_package
5	8551	152	#line 8551 "NXCDefs.h"
5	295	152	#line 295 "C:\Users\Sakeeb\Documents\School\Fall 2017\CSCC85\Phase 1\Phase1---Little-Lost-Robot\Distro\pfilter prob.nxc"
5	297	152	#line 297 "C:\Users\Sakeeb\Documents\School\Fall 2017\CSCC85\Phase 1\Phase1---Little-Lost-Robot\Distro\pfilter prob.nxc"
5	298	152		subret __package_return
6	299	0	#line 299 "C:\Users\Sakeeb\Documents\School\Fall 2017\CSCC85\Phase 1\Phase1---Little-Lost-Robot\Distro\pfilter prob.nxc"
6	300	0		set __signed_stack_001found, 1175
6	299	3	#line 299 "C:\Users\Sakeeb\Documents\School\Fall 2017\CSCC85\Phase 1\Phase1---Little-Lost-Robot\Distro\pfilter prob.nxc"
6	299	3	#line 299 "C:\Users\Sakeeb\Documents\School\Fall 2017\CSCC85\Phase 1\Phase1---Little-Lost-Robot\Distro\pfilter prob.nxc"
6	300	3		set __signed_stack_002found, 139
6	299	6	#line 299 "C:\Users\Sakeeb\Documents\School\Fall 2017\CSCC85\Phase 1\Phase1---Little-Lost-Robot\Distro\pfilter prob.nxc"
6	299	6	#line 299 "C:\Users\Sakeeb\Documents\School\Fall 2017\CSCC85\Phase 1\Phase1---Little-Lost-Robot\Distro\pfilter prob.nxc"
6	300	6		set __signed_stack_003found, 2
6	299	9	#line 299 "C:\Users\Sakeeb\Documents\School\Fall 2017\CSCC85\Phase 1\Phase1---Little-Lost-Robot\Distro\pfilter prob.nxc"
6	299	9	#line 299 "C:\Users\Sakeeb\Documents\School\Fall 2017\CSCC85\Phase 1\Phase1---Little-Lost-Robot\Distro\pfilter prob.nxc"
6	300	9		set __D0found, 0
6	300	12	#line 300 "C:\Users\Sakeeb\Documents\School\Fall 2017\CSCC85\Phase 1\Phase1---Little-Lost-Robot\Distro\pfilter prob.nxc"
6	301	12		acquire __SPTArgsMutex
6	300	13	#line 300 "C:\Users\Sakeeb\Documents\School\Fall 2017\CSCC85\Phase 1\Phase1---Little-Lost-Robot\Distro\pfilter prob.nxc"
6	301	13		mov __SPTArgs.Frequency, __signed_stack_001found
6	300	16	#line 300 "C:\Users\Sakeeb\Documents\School\Fall 2017\CSCC85\Phase 1\Phase1---Little-Lost-Robot\Distro\pfilter prob.nxc"
6	301	16		mov __SPTArgs.Duration, __signed_stack_002found
6	300	19	#line 300 "C:\Users\Sakeeb\Documents\School\Fall 2017\CSCC85\Phase 1\Phase1---Little-Lost-Robot\Distro\pfilter prob.nxc"
6	301	19		mov __SPTArgs.Volume, __signed_stack_003found
6	300	22	#line 300 "C:\Users\Sakeeb\Documents\School\Fall 2017\CSCC85\Phase 1\Phase1---Little-Lost-Robot\Distro\pfilter prob.nxc"
6	301	22		mov __SPTArgs.Loop, __D0found
6	300	25	#line 300 "C:\Users\Sakeeb\Documents\School\Fall 2017\CSCC85\Phase 1\Phase1---Little-Lost-Robot\Distro\pfilter prob.nxc"
6	301	25		syscall 10, __SPTArgs
6	300	28	#line 300 "C:\Users\Sakeeb\Documents\School\Fall 2017\CSCC85\Phase 1\Phase1---Little-Lost-Robot\Distro\pfilter prob.nxc"
6	301	28		mov __D0found, __SPTArgs.Result
6	300	31	#line 300 "C:\Users\Sakeeb\Documents\School\Fall 2017\CSCC85\Phase 1\Phase1---Little-Lost-Robot\Distro\pfilter prob.nxc"
6	301	31		release __SPTArgsMutex
6	300	32	#line 300 "C:\Users\Sakeeb\Documents\School\Fall 2017\CSCC85\Phase 1\Phase1---Little-Lost-Robot\Distro\pfilter prob.nxc"
6	300	32	#line 300 "C:\Users\Sakeeb\Documents\School\Fall 2017\CSCC85\Phase 1\Phase1---Little-Lost-Robot\Distro\pfilter prob.nxc"
6	301	32		set __Wait_7qG2_ms_7qG2_000_inline_found, 239
6	300	35	#line 300 "C:\Users\Sakeeb\Documents\School\Fall 2017\CSCC85\Phase 1\Phase1---Little-Lost-Robot\Distro\pfilter prob.nxc"
6	8551	35	#line 8551 "NXCDefs.h"
6	8552	35		wait2 NA, __Wait_7qG2_ms_7qG2_000_inline_found
6	8551	38	#line 8551 "NXCDefs.h"
6	303	38	#line 303 "C:\Users\Sakeeb\Documents\School\Fall 2017\CSCC85\Phase 1\Phase1---Little-Lost-Robot\Distro\pfilter prob.nxc"
6	303	38	#line 303 "C:\Users\Sakeeb\Documents\School\Fall 2017\CSCC85\Phase 1\Phase1---Little-Lost-Robot\Distro\pfilter prob.nxc"
6	304	38		set __signed_stack_001found, 1568
6	303	41	#line 303 "C:\Users\Sakeeb\Documents\School\Fall 2017\CSCC85\Phase 1\Phase1---Little-Lost-Robot\Distro\pfilter prob.nxc"
6	303	41	#line 303 "C:\Users\Sakeeb\Documents\School\Fall 2017\CSCC85\Phase 1\Phase1---Little-Lost-Robot\Distro\pfilter prob.nxc"
6	304	41		set __signed_stack_002found, 139
6	303	44	#line 303 "C:\Users\Sakeeb\Documents\School\Fall 2017\CSCC85\Phase 1\Phase1---Little-Lost-Robot\Distro\pfilter prob.nxc"
6	303	44	#line 303 "C:\Users\Sakeeb\Documents\School\Fall 2017\CSCC85\Phase 1\Phase1---Little-Lost-Robot\Distro\pfilter prob.nxc"
6	304	44		set __signed_stack_003found, 2
6	303	47	#line 303 "C:\Users\Sakeeb\Documents\School\Fall 2017\CSCC85\Phase 1\Phase1---Little-Lost-Robot\Distro\pfilter prob.nxc"
6	303	47	#line 303 "C:\Users\Sakeeb\Documents\School\Fall 2017\CSCC85\Phase 1\Phase1---Little-Lost-Robot\Distro\pfilter prob.nxc"
6	304	47		set __D0found, 0
6	304	50	#line 304 "C:\Users\Sakeeb\Documents\School\Fall 2017\CSCC85\Phase 1\Phase1---Little-Lost-Robot\Distro\pfilter prob.nxc"
6	305	50		acquire __SPTArgsMutex
6	304	51	#line 304 "C:\Users\Sakeeb\Documents\School\Fall 2017\CSCC85\Phase 1\Phase1---Little-Lost-Robot\Distro\pfilter prob.nxc"
6	305	51		mov __SPTArgs.Frequency, __signed_stack_001found
6	304	54	#line 304 "C:\Users\Sakeeb\Documents\School\Fall 2017\CSCC85\Phase 1\Phase1---Little-Lost-Robot\Distro\pfilter prob.nxc"
6	305	54		mov __SPTArgs.Duration, __signed_stack_002found
6	304	57	#line 304 "C:\Users\Sakeeb\Documents\School\Fall 2017\CSCC85\Phase 1\Phase1---Little-Lost-Robot\Distro\pfilter prob.nxc"
6	305	57		mov __SPTArgs.Volume, __signed_stack_003found
6	304	60	#line 304 "C:\Users\Sakeeb\Documents\School\Fall 2017\CSCC85\Phase 1\Phase1---Little-Lost-Robot\Distro\pfilter prob.nxc"
6	305	60		mov __SPTArgs.Loop, __D0found
6	304	63	#line 304 "C:\Users\Sakeeb\Documents\School\Fall 2017\CSCC85\Phase 1\Phase1---Little-Lost-Robot\Distro\pfilter prob.nxc"
6	305	63		syscall 10, __SPTArgs
6	304	66	#line 304 "C:\Users\Sakeeb\Documents\School\Fall 2017\CSCC85\Phase 1\Phase1---Little-Lost-Robot\Distro\pfilter prob.nxc"
6	305	66		mov __D0found, __SPTArgs.Result
6	304	69	#line 304 "C:\Users\Sakeeb\Documents\School\Fall 2017\CSCC85\Phase 1\Phase1---Little-Lost-Robot\Distro\pfilter prob.nxc"
6	305	69		release __SPTArgsMutex
6	304	70	#line 304 "C:\Users\Sakeeb\Documents\School\Fall 2017\CSCC85\Phase 1\Phase1---Little-Lost-Robot\Distro\pfilter prob.nxc"
6	304	70	#line 304 "C:\Users\Sakeeb\Documents\School\Fall 2017\CSCC85\Phase 1\Phase1---Little-Lost-Robot\Distro\pfilter prob.nxc"
6	305	70		set __Wait_7qG2_ms_7qG2_000_inline_found, 239
6	304	73	#line 304 "C:\Users\Sakeeb\Documents\School\Fall 2017\CSCC85\Phase 1\Phase1---Little-Lost-Robot\Distro\pfilter prob.nxc"
6	8551	73	#line 8551 "NXCDefs.h"
6	8552	73		wait2 NA, __Wait_7qG2_ms_7qG2_000_inline_found
6	8551	76	#line 8551 "NXCDefs.h"
6	307	76	#line 307 "C:\Users\Sakeeb\Documents\School\Fall 2017\CSCC85\Phase 1\Phase1---Little-Lost-Robot\Distro\pfilter prob.nxc"
6	307	76	#line 307 "C:\Users\Sakeeb\Documents\School\Fall 2017\CSCC85\Phase 1\Phase1---Little-Lost-Robot\Distro\pfilter prob.nxc"
6	308	76		set __signed_stack_001found, 1760
6	307	79	#line 307 "C:\Users\Sakeeb\Documents\School\Fall 2017\CSCC85\Phase 1\Phase1---Little-Lost-Robot\Distro\pfilter prob.nxc"
6	307	79	#line 307 "C:\Users\Sakeeb\Documents\School\Fall 2017\CSCC85\Phase 1\Phase1---Little-Lost-Robot\Distro\pfilter prob.nxc"
6	308	79		set __signed_stack_002found, 139
6	307	82	#line 307 "C:\Users\Sakeeb\Documents\School\Fall 2017\CSCC85\Phase 1\Phase1---Little-Lost-Robot\Distro\pfilter prob.nxc"
6	307	82	#line 307 "C:\Users\Sakeeb\Documents\School\Fall 2017\CSCC85\Phase 1\Phase1---Little-Lost-Robot\Distro\pfilter prob.nxc"
6	308	82		set __signed_stack_003found, 2
6	307	85	#line 307 "C:\Users\Sakeeb\Documents\School\Fall 2017\CSCC85\Phase 1\Phase1---Little-Lost-Robot\Distro\pfilter prob.nxc"
6	307	85	#line 307 "C:\Users\Sakeeb\Documents\School\Fall 2017\CSCC85\Phase 1\Phase1---Little-Lost-Robot\Distro\pfilter prob.nxc"
6	308	85		set __D0found, 0
6	308	88	#line 308 "C:\Users\Sakeeb\Documents\School\Fall 2017\CSCC85\Phase 1\Phase1---Little-Lost-Robot\Distro\pfilter prob.nxc"
6	309	88		acquire __SPTArgsMutex
6	308	89	#line 308 "C:\Users\Sakeeb\Documents\School\Fall 2017\CSCC85\Phase 1\Phase1---Little-Lost-Robot\Distro\pfilter prob.nxc"
6	309	89		mov __SPTArgs.Frequency, __signed_stack_001found
6	308	92	#line 308 "C:\Users\Sakeeb\Documents\School\Fall 2017\CSCC85\Phase 1\Phase1---Little-Lost-Robot\Distro\pfilter prob.nxc"
6	309	92		mov __SPTArgs.Duration, __signed_stack_002found
6	308	95	#line 308 "C:\Users\Sakeeb\Documents\School\Fall 2017\CSCC85\Phase 1\Phase1---Little-Lost-Robot\Distro\pfilter prob.nxc"
6	309	95		mov __SPTArgs.Volume, __signed_stack_003found
6	308	98	#line 308 "C:\Users\Sakeeb\Documents\School\Fall 2017\CSCC85\Phase 1\Phase1---Little-Lost-Robot\Distro\pfilter prob.nxc"
6	309	98		mov __SPTArgs.Loop, __D0found
6	308	101	#line 308 "C:\Users\Sakeeb\Documents\School\Fall 2017\CSCC85\Phase 1\Phase1---Little-Lost-Robot\Distro\pfilter prob.nxc"
6	309	101		syscall 10, __SPTArgs
6	308	104	#line 308 "C:\Users\Sakeeb\Documents\School\Fall 2017\CSCC85\Phase 1\Phase1---Little-Lost-Robot\Distro\pfilter prob.nxc"
6	309	104		mov __D0found, __SPTArgs.Result
6	308	107	#line 308 "C:\Users\Sakeeb\Documents\School\Fall 2017\CSCC85\Phase 1\Phase1---Little-Lost-Robot\Distro\pfilter prob.nxc"
6	309	107		release __SPTArgsMutex
6	308	108	#line 308 "C:\Users\Sakeeb\Documents\School\Fall 2017\CSCC85\Phase 1\Phase1---Little-Lost-Robot\Distro\pfilter prob.nxc"
6	308	108	#line 308 "C:\Users\Sakeeb\Documents\School\Fall 2017\CSCC85\Phase 1\Phase1---Little-Lost-Robot\Distro\pfilter prob.nxc"
6	309	108		set __Wait_7qG2_ms_7qG2_000_inline_found, 239
6	308	111	#line 308 "C:\Users\Sakeeb\Documents\School\Fall 2017\CSCC85\Phase 1\Phase1---Little-Lost-Robot\Distro\pfilter prob.nxc"
6	8551	111	#line 8551 "NXCDefs.h"
6	8552	111		wait2 NA, __Wait_7qG2_ms_7qG2_000_inline_found
6	8551	114	#line 8551 "NXCDefs.h"
6	311	114	#line 311 "C:\Users\Sakeeb\Documents\School\Fall 2017\CSCC85\Phase 1\Phase1---Little-Lost-Robot\Distro\pfilter prob.nxc"
6	311	114	#line 311 "C:\Users\Sakeeb\Documents\School\Fall 2017\CSCC85\Phase 1\Phase1---Little-Lost-Robot\Distro\pfilter prob.nxc"
6	312	114		set __signed_stack_001found, 2349
6	311	117	#line 311 "C:\Users\Sakeeb\Documents\School\Fall 2017\CSCC85\Phase 1\Phase1---Little-Lost-Robot\Distro\pfilter prob.nxc"
6	311	117	#line 311 "C:\Users\Sakeeb\Documents\School\Fall 2017\CSCC85\Phase 1\Phase1---Little-Lost-Robot\Distro\pfilter prob.nxc"
6	312	117		set __signed_stack_002found, 139
6	311	120	#line 311 "C:\Users\Sakeeb\Documents\School\Fall 2017\CSCC85\Phase 1\Phase1---Little-Lost-Robot\Distro\pfilter prob.nxc"
6	311	120	#line 311 "C:\Users\Sakeeb\Documents\School\Fall 2017\CSCC85\Phase 1\Phase1---Little-Lost-Robot\Distro\pfilter prob.nxc"
6	312	120		set __signed_stack_003found, 2
6	311	123	#line 311 "C:\Users\Sakeeb\Documents\School\Fall 2017\CSCC85\Phase 1\Phase1---Little-Lost-Robot\Distro\pfilter prob.nxc"
6	311	123	#line 311 "C:\Users\Sakeeb\Documents\School\Fall 2017\CSCC85\Phase 1\Phase1---Little-Lost-Robot\Distro\pfilter prob.nxc"
6	312	123		set __D0found, 0
6	312	126	#line 312 "C:\Users\Sakeeb\Documents\School\Fall 2017\CSCC85\Phase 1\Phase1---Little-Lost-Robot\Distro\pfilter prob.nxc"
6	313	126		acquire __SPTArgsMutex
6	312	127	#line 312 "C:\Users\Sakeeb\Documents\School\Fall 2017\CSCC85\Phase 1\Phase1---Little-Lost-Robot\Distro\pfilter prob.nxc"
6	313	127		mov __SPTArgs.Frequency, __signed_stack_001found
6	312	130	#line 312 "C:\Users\Sakeeb\Documents\School\Fall 2017\CSCC85\Phase 1\Phase1---Little-Lost-Robot\Distro\pfilter prob.nxc"
6	313	130		mov __SPTArgs.Duration, __signed_stack_002found
6	312	133	#line 312 "C:\Users\Sakeeb\Documents\School\Fall 2017\CSCC85\Phase 1\Phase1---Little-Lost-Robot\Distro\pfilter prob.nxc"
6	313	133		mov __SPTArgs.Volume, __signed_stack_003found
6	312	136	#line 312 "C:\Users\Sakeeb\Documents\School\Fall 2017\CSCC85\Phase 1\Phase1---Little-Lost-Robot\Distro\pfilter prob.nxc"
6	313	136		mov __SPTArgs.Loop, __D0found
6	312	139	#line 312 "C:\Users\Sakeeb\Documents\School\Fall 2017\CSCC85\Phase 1\Phase1---Little-Lost-Robot\Distro\pfilter prob.nxc"
6	313	139		syscall 10, __SPTArgs
6	312	142	#line 312 "C:\Users\Sakeeb\Documents\School\Fall 2017\CSCC85\Phase 1\Phase1---Little-Lost-Robot\Distro\pfilter prob.nxc"
6	313	142		mov __D0found, __SPTArgs.Result
6	312	145	#line 312 "C:\Users\Sakeeb\Documents\School\Fall 2017\CSCC85\Phase 1\Phase1---Little-Lost-Robot\Distro\pfilter prob.nxc"
6	313	145		release __SPTArgsMutex
6	312	146	#line 312 "C:\Users\Sakeeb\Documents\School\Fall 2017\CSCC85\Phase 1\Phase1---Little-Lost-Robot\Distro\pfilter prob.nxc"
6	312	146	#line 312 "C:\Users\Sakeeb\Documents\School\Fall 2017\CSCC85\Phase 1\Phase1---Little-Lost-Robot\Distro\pfilter prob.nxc"
6	313	146		set __Wait_7qG2_ms_7qG2_000_inline_found, 239
6	312	149	#line 312 "C:\Users\Sakeeb\Documents\School\Fall 2017\CSCC85\Phase 1\Phase1---Little-Lost-Robot\Distro\pfilter prob.nxc"
6	8551	149	#line 8551 "NXCDefs.h"
6	8552	149		wait2 NA, __Wait_7qG2_ms_7qG2_000_inline_found
6	8551	152	#line 8551 "NXCDefs.h"
6	315	152	#line 315 "C:\Users\Sakeeb\Documents\School\Fall 2017\CSCC85\Phase 1\Phase1---Little-Lost-Robot\Distro\pfilter prob.nxc"
6	315	152	#line 315 "C:\Users\Sakeeb\Documents\School\Fall 2017\CSCC85\Phase 1\Phase1---Little-Lost-Robot\Distro\pfilter prob.nxc"
6	316	152		set __signed_stack_001found, 1760
6	315	155	#line 315 "C:\Users\Sakeeb\Documents\School\Fall 2017\CSCC85\Phase 1\Phase1---Little-Lost-Robot\Distro\pfilter prob.nxc"
6	315	155	#line 315 "C:\Users\Sakeeb\Documents\School\Fall 2017\CSCC85\Phase 1\Phase1---Little-Lost-Robot\Distro\pfilter prob.nxc"
6	316	155		set __signed_stack_002found, 139
6	315	158	#line 315 "C:\Users\Sakeeb\Documents\School\Fall 2017\CSCC85\Phase 1\Phase1---Little-Lost-Robot\Distro\pfilter prob.nxc"
6	315	158	#line 315 "C:\Users\Sakeeb\Documents\School\Fall 2017\CSCC85\Phase 1\Phase1---Little-Lost-Robot\Distro\pfilter prob.nxc"
6	316	158		set __signed_stack_003found, 2
6	315	161	#line 315 "C:\Users\Sakeeb\Documents\School\Fall 2017\CSCC85\Phase 1\Phase1---Little-Lost-Robot\Distro\pfilter prob.nxc"
6	315	161	#line 315 "C:\Users\Sakeeb\Documents\School\Fall 2017\CSCC85\Phase 1\Phase1---Little-Lost-Robot\Distro\pfilter prob.nxc"
6	316	161		set __D0found, 0
6	316	164	#line 316 "C:\Users\Sakeeb\Documents\School\Fall 2017\CSCC85\Phase 1\Phase1---Little-Lost-Robot\Distro\pfilter prob.nxc"
6	317	164		acquire __SPTArgsMutex
6	316	165	#line 316 "C:\Users\Sakeeb\Documents\School\Fall 2017\CSCC85\Phase 1\Phase1---Little-Lost-Robot\Distro\pfilter prob.nxc"
6	317	165		mov __SPTArgs.Frequency, __signed_stack_001found
6	316	168	#line 316 "C:\Users\Sakeeb\Documents\School\Fall 2017\CSCC85\Phase 1\Phase1---Little-Lost-Robot\Distro\pfilter prob.nxc"
6	317	168		mov __SPTArgs.Duration, __signed_stack_002found
6	316	171	#line 316 "C:\Users\Sakeeb\Documents\School\Fall 2017\CSCC85\Phase 1\Phase1---Little-Lost-Robot\Distro\pfilter prob.nxc"
6	317	171		mov __SPTArgs.Volume, __signed_stack_003found
6	316	174	#line 316 "C:\Users\Sakeeb\Documents\School\Fall 2017\CSCC85\Phase 1\Phase1---Little-Lost-Robot\Distro\pfilter prob.nxc"
6	317	174		mov __SPTArgs.Loop, __D0found
6	316	177	#line 316 "C:\Users\Sakeeb\Documents\School\Fall 2017\CSCC85\Phase 1\Phase1---Little-Lost-Robot\Distro\pfilter prob.nxc"
6	317	177		syscall 10, __SPTArgs
6	316	180	#line 316 "C:\Users\Sakeeb\Documents\School\Fall 2017\CSCC85\Phase 1\Phase1---Little-Lost-Robot\Distro\pfilter prob.nxc"
6	317	180		mov __D0found, __SPTArgs.Result
6	316	183	#line 316 "C:\Users\Sakeeb\Documents\School\Fall 2017\CSCC85\Phase 1\Phase1---Little-Lost-Robot\Distro\pfilter prob.nxc"
6	317	183		release __SPTArgsMutex
6	316	184	#line 316 "C:\Users\Sakeeb\Documents\School\Fall 2017\CSCC85\Phase 1\Phase1---Little-Lost-Robot\Distro\pfilter prob.nxc"
6	316	184	#line 316 "C:\Users\Sakeeb\Documents\School\Fall 2017\CSCC85\Phase 1\Phase1---Little-Lost-Robot\Distro\pfilter prob.nxc"
6	317	184		set __Wait_7qG2_ms_7qG2_000_inline_found, 239
6	316	187	#line 316 "C:\Users\Sakeeb\Documents\School\Fall 2017\CSCC85\Phase 1\Phase1---Little-Lost-Robot\Distro\pfilter prob.nxc"
6	8551	187	#line 8551 "NXCDefs.h"
6	8552	187		wait2 NA, __Wait_7qG2_ms_7qG2_000_inline_found
6	8551	190	#line 8551 "NXCDefs.h"
6	319	190	#line 319 "C:\Users\Sakeeb\Documents\School\Fall 2017\CSCC85\Phase 1\Phase1---Little-Lost-Robot\Distro\pfilter prob.nxc"
6	319	190	#line 319 "C:\Users\Sakeeb\Documents\School\Fall 2017\CSCC85\Phase 1\Phase1---Little-Lost-Robot\Distro\pfilter prob.nxc"
6	320	190		set __signed_stack_001found, 1976
6	319	193	#line 319 "C:\Users\Sakeeb\Documents\School\Fall 2017\CSCC85\Phase 1\Phase1---Little-Lost-Robot\Distro\pfilter prob.nxc"
6	319	193	#line 319 "C:\Users\Sakeeb\Documents\School\Fall 2017\CSCC85\Phase 1\Phase1---Little-Lost-Robot\Distro\pfilter prob.nxc"
6	320	193		set __signed_stack_002found, 972
6	319	196	#line 319 "C:\Users\Sakeeb\Documents\School\Fall 2017\CSCC85\Phase 1\Phase1---Little-Lost-Robot\Distro\pfilter prob.nxc"
6	319	196	#line 319 "C:\Users\Sakeeb\Documents\School\Fall 2017\CSCC85\Phase 1\Phase1---Little-Lost-Robot\Distro\pfilter prob.nxc"
6	320	196		set __signed_stack_003found, 2
6	319	199	#line 319 "C:\Users\Sakeeb\Documents\School\Fall 2017\CSCC85\Phase 1\Phase1---Little-Lost-Robot\Distro\pfilter prob.nxc"
6	319	199	#line 319 "C:\Users\Sakeeb\Documents\School\Fall 2017\CSCC85\Phase 1\Phase1---Little-Lost-Robot\Distro\pfilter prob.nxc"
6	320	199		set __D0found, 0
6	320	202	#line 320 "C:\Users\Sakeeb\Documents\School\Fall 2017\CSCC85\Phase 1\Phase1---Little-Lost-Robot\Distro\pfilter prob.nxc"
6	321	202		acquire __SPTArgsMutex
6	320	203	#line 320 "C:\Users\Sakeeb\Documents\School\Fall 2017\CSCC85\Phase 1\Phase1---Little-Lost-Robot\Distro\pfilter prob.nxc"
6	321	203		mov __SPTArgs.Frequency, __signed_stack_001found
6	320	206	#line 320 "C:\Users\Sakeeb\Documents\School\Fall 2017\CSCC85\Phase 1\Phase1---Little-Lost-Robot\Distro\pfilter prob.nxc"
6	321	206		mov __SPTArgs.Duration, __signed_stack_002found
6	320	209	#line 320 "C:\Users\Sakeeb\Documents\School\Fall 2017\CSCC85\Phase 1\Phase1---Little-Lost-Robot\Distro\pfilter prob.nxc"
6	321	209		mov __SPTArgs.Volume, __signed_stack_003found
6	320	212	#line 320 "C:\Users\Sakeeb\Documents\School\Fall 2017\CSCC85\Phase 1\Phase1---Little-Lost-Robot\Distro\pfilter prob.nxc"
6	321	212		mov __SPTArgs.Loop, __D0found
6	320	215	#line 320 "C:\Users\Sakeeb\Documents\School\Fall 2017\CSCC85\Phase 1\Phase1---Little-Lost-Robot\Distro\pfilter prob.nxc"
6	321	215		syscall 10, __SPTArgs
6	320	218	#line 320 "C:\Users\Sakeeb\Documents\School\Fall 2017\CSCC85\Phase 1\Phase1---Little-Lost-Robot\Distro\pfilter prob.nxc"
6	321	218		mov __D0found, __SPTArgs.Result
6	320	221	#line 320 "C:\Users\Sakeeb\Documents\School\Fall 2017\CSCC85\Phase 1\Phase1---Little-Lost-Robot\Distro\pfilter prob.nxc"
6	321	221		release __SPTArgsMutex
6	320	222	#line 320 "C:\Users\Sakeeb\Documents\School\Fall 2017\CSCC85\Phase 1\Phase1---Little-Lost-Robot\Distro\pfilter prob.nxc"
6	320	222	#line 320 "C:\Users\Sakeeb\Documents\School\Fall 2017\CSCC85\Phase 1\Phase1---Little-Lost-Robot\Distro\pfilter prob.nxc"
6	321	222		set __Wait_7qG2_ms_7qG2_000_inline_found, 1072
6	320	225	#line 320 "C:\Users\Sakeeb\Documents\School\Fall 2017\CSCC85\Phase 1\Phase1---Little-Lost-Robot\Distro\pfilter prob.nxc"
6	8551	225	#line 8551 "NXCDefs.h"
6	8552	225		wait2 NA, __Wait_7qG2_ms_7qG2_000_inline_found
6	8551	228	#line 8551 "NXCDefs.h"
6	321	228	#line 321 "C:\Users\Sakeeb\Documents\School\Fall 2017\CSCC85\Phase 1\Phase1---Little-Lost-Robot\Distro\pfilter prob.nxc"
6	323	228	#line 323 "C:\Users\Sakeeb\Documents\School\Fall 2017\CSCC85\Phase 1\Phase1---Little-Lost-Robot\Distro\pfilter prob.nxc"
6	324	228		subret __found_return
7	324	0	#line 324 "C:\Users\Sakeeb\Documents\School\Fall 2017\CSCC85\Phase 1\Phase1---Little-Lost-Robot\Distro\pfilter prob.nxc"
7	325	0		set __D0moveForward, 20
7	325	3	#line 325 "C:\Users\Sakeeb\Documents\School\Fall 2017\CSCC85\Phase 1\Phase1---Little-Lost-Robot\Distro\pfilter prob.nxc"
7	326	3	#pragma macro 7
7	326	3		setout __OUT_BC, 2, __D0moveForward, 1, __constVal3, 8, __constVal0, 6, __constVal32, 7, __constVal0, 5, __constVal0, 10, __constVal96, 11, __constVal32, 12, __constVal32, 0, __constVal63
7	7226	26	#line 7226 "C:\Users\Sakeeb\Documents\School\Fall 2017\CSCC85\Phase 1\Phase1---Little-Lost-Robot\Distro\pfilter prob.nxc"
7	325	26	#line 325 "C:\Users\Sakeeb\Documents\School\Fall 2017\CSCC85\Phase 1\Phase1---Little-Lost-Robot\Distro\pfilter prob.nxc"
7	325	26	#line 325 "C:\Users\Sakeeb\Documents\School\Fall 2017\CSCC85\Phase 1\Phase1---Little-Lost-Robot\Distro\pfilter prob.nxc"
7	326	26		set __signed_stack_001moveForward, 100
7	325	29	#line 325 "C:\Users\Sakeeb\Documents\School\Fall 2017\CSCC85\Phase 1\Phase1---Little-Lost-Robot\Distro\pfilter prob.nxc"
7	325	29	#line 325 "C:\Users\Sakeeb\Documents\School\Fall 2017\CSCC85\Phase 1\Phase1---Little-Lost-Robot\Distro\pfilter prob.nxc"
7	326	29		mov __D0moveForward, __moveForward_7qG2_seconds_7qG2_000
7	325	31	#line 325 "C:\Users\Sakeeb\Documents\School\Fall 2017\CSCC85\Phase 1\Phase1---Little-Lost-Robot\Distro\pfilter prob.nxc"
7	326	31		mul __Wait_7qG2_ms_7qG2_000_inline_moveForward, __signed_stack_001moveForward, __D0moveForward
7	325	35	#line 325 "C:\Users\Sakeeb\Documents\School\Fall 2017\CSCC85\Phase 1\Phase1---Little-Lost-Robot\Distro\pfilter prob.nxc"
7	8551	35	#line 8551 "NXCDefs.h"
7	8552	35		wait2 NA, __Wait_7qG2_ms_7qG2_000_inline_moveForward
7	8551	38	#line 8551 "NXCDefs.h"
7	326	38	#line 326 "C:\Users\Sakeeb\Documents\School\Fall 2017\CSCC85\Phase 1\Phase1---Little-Lost-Robot\Distro\pfilter prob.nxc"
7	327	38	#line 327 "C:\Users\Sakeeb\Documents\School\Fall 2017\CSCC85\Phase 1\Phase1---Little-Lost-Robot\Distro\pfilter prob.nxc"
7	328	38	#pragma macro 7
7	328	38		setout __OUT_BC, 2, __constVal0, 1, __constVal3, 8, __constVal0, 6, __constVal32, 7, __constVal0, 5, __constVal0, 10, __constVal96, 11, __constVal32, 12, __constVal32, 0, __constVal63
7	7251	61	#line 7251 "C:\Users\Sakeeb\Documents\School\Fall 2017\CSCC85\Phase 1\Phase1---Little-Lost-Robot\Distro\pfilter prob.nxc"
7	327	61	#line 327 "C:\Users\Sakeeb\Documents\School\Fall 2017\CSCC85\Phase 1\Phase1---Little-Lost-Robot\Distro\pfilter prob.nxc"
7	329	61	#line 329 "C:\Users\Sakeeb\Documents\School\Fall 2017\CSCC85\Phase 1\Phase1---Little-Lost-Robot\Distro\pfilter prob.nxc"
7	330	61		subret __moveForward_return
8	330	0	#line 330 "C:\Users\Sakeeb\Documents\School\Fall 2017\CSCC85\Phase 1\Phase1---Little-Lost-Robot\Distro\pfilter prob.nxc"
8	331	0		set __D0moveBackward, 20
8	331	3	#line 331 "C:\Users\Sakeeb\Documents\School\Fall 2017\CSCC85\Phase 1\Phase1---Little-Lost-Robot\Distro\pfilter prob.nxc"
8	332	3	#pragma macro 10
8	332	3		acquire __OnRevMutex
8	332	4		neg __OnRev_Tmp, __D0moveBackward
8	332	7		setout __OUT_BC, 2, __OnRev_Tmp, 1, __constVal3, 8, __constVal0, 6, __constVal32, 7, __constVal0, 5, __constVal0, 10, __constVal96, 11, __constVal32, 12, __constVal32, 0, __constVal63
8	332	30		release __OnRevMutex
8	7265	31	#line 7265 "C:\Users\Sakeeb\Documents\School\Fall 2017\CSCC85\Phase 1\Phase1---Little-Lost-Robot\Distro\pfilter prob.nxc"
8	331	31	#line 331 "C:\Users\Sakeeb\Documents\School\Fall 2017\CSCC85\Phase 1\Phase1---Little-Lost-Robot\Distro\pfilter prob.nxc"
8	331	31	#line 331 "C:\Users\Sakeeb\Documents\School\Fall 2017\CSCC85\Phase 1\Phase1---Little-Lost-Robot\Distro\pfilter prob.nxc"
8	332	31		set __signed_stack_001moveBackward, 100
8	331	34	#line 331 "C:\Users\Sakeeb\Documents\School\Fall 2017\CSCC85\Phase 1\Phase1---Little-Lost-Robot\Distro\pfilter prob.nxc"
8	331	34	#line 331 "C:\Users\Sakeeb\Documents\School\Fall 2017\CSCC85\Phase 1\Phase1---Little-Lost-Robot\Distro\pfilter prob.nxc"
8	332	34		mov __D0moveBackward, __moveBackward_7qG2_seconds_7qG2_000
8	331	36	#line 331 "C:\Users\Sakeeb\Documents\School\Fall 2017\CSCC85\Phase 1\Phase1---Little-Lost-Robot\Distro\pfilter prob.nxc"
8	332	36		mul __Wait_7qG2_ms_7qG2_000_inline_moveBackward, __signed_stack_001moveBackward, __D0moveBackward
8	331	40	#line 331 "C:\Users\Sakeeb\Documents\School\Fall 2017\CSCC85\Phase 1\Phase1---Little-Lost-Robot\Distro\pfilter prob.nxc"
8	8551	40	#line 8551 "NXCDefs.h"
8	8552	40		wait2 NA, __Wait_7qG2_ms_7qG2_000_inline_moveBackward
8	8551	43	#line 8551 "NXCDefs.h"
8	332	43	#line 332 "C:\Users\Sakeeb\Documents\School\Fall 2017\CSCC85\Phase 1\Phase1---Little-Lost-Robot\Distro\pfilter prob.nxc"
8	333	43	#line 333 "C:\Users\Sakeeb\Documents\School\Fall 2017\CSCC85\Phase 1\Phase1---Little-Lost-Robot\Distro\pfilter prob.nxc"
8	334	43	#pragma macro 7
8	334	43		setout __OUT_BC, 2, __constVal0, 1, __constVal3, 8, __constVal0, 6, __constVal32, 7, __constVal0, 5, __constVal0, 10, __constVal96, 11, __constVal32, 12, __constVal32, 0, __constVal63
8	7290	66	#line 7290 "C:\Users\Sakeeb\Documents\School\Fall 2017\CSCC85\Phase 1\Phase1---Little-Lost-Robot\Distro\pfilter prob.nxc"
8	333	66	#line 333 "C:\Users\Sakeeb\Documents\School\Fall 2017\CSCC85\Phase 1\Phase1---Little-Lost-Robot\Distro\pfilter prob.nxc"
8	335	66	#line 335 "C:\Users\Sakeeb\Documents\School\Fall 2017\CSCC85\Phase 1\Phase1---Little-Lost-Robot\Distro\pfilter prob.nxc"
8	336	66		subret __moveBackward_return
9	336	0	#line 336 "C:\Users\Sakeeb\Documents\School\Fall 2017\CSCC85\Phase 1\Phase1---Little-Lost-Robot\Distro\pfilter prob.nxc"
9	337	0		set __D0turnRight, 20
9	337	3	#line 337 "C:\Users\Sakeeb\Documents\School\Fall 2017\CSCC85\Phase 1\Phase1---Little-Lost-Robot\Distro\pfilter prob.nxc"
9	338	3	#pragma macro 10
9	338	3		acquire __OnRevMutex
9	338	4		neg __OnRev_Tmp, __D0turnRight
9	338	7		setout __constVal2, 2, __OnRev_Tmp, 1, __constVal3, 8, __constVal0, 6, __constVal32, 7, __constVal0, 5, __constVal0, 10, __constVal96, 11, __constVal32, 12, __constVal32, 0, __constVal63
9	338	30		release __OnRevMutex
9	7304	31	#line 7304 "C:\Users\Sakeeb\Documents\School\Fall 2017\CSCC85\Phase 1\Phase1---Little-Lost-Robot\Distro\pfilter prob.nxc"
9	337	31	#line 337 "C:\Users\Sakeeb\Documents\School\Fall 2017\CSCC85\Phase 1\Phase1---Little-Lost-Robot\Distro\pfilter prob.nxc"
9	337	31	#line 337 "C:\Users\Sakeeb\Documents\School\Fall 2017\CSCC85\Phase 1\Phase1---Little-Lost-Robot\Distro\pfilter prob.nxc"
9	338	31		set __D0turnRight, 20
9	338	34	#line 338 "C:\Users\Sakeeb\Documents\School\Fall 2017\CSCC85\Phase 1\Phase1---Little-Lost-Robot\Distro\pfilter prob.nxc"
9	339	34	#pragma macro 7
9	339	34		setout __constVal1, 2, __D0turnRight, 1, __constVal3, 8, __constVal0, 6, __constVal32, 7, __constVal0, 5, __constVal0, 10, __constVal96, 11, __constVal32, 12, __constVal32, 0, __constVal63
9	7309	57	#line 7309 "C:\Users\Sakeeb\Documents\School\Fall 2017\CSCC85\Phase 1\Phase1---Little-Lost-Robot\Distro\pfilter prob.nxc"
9	338	57	#line 338 "C:\Users\Sakeeb\Documents\School\Fall 2017\CSCC85\Phase 1\Phase1---Little-Lost-Robot\Distro\pfilter prob.nxc"
9	338	57	#line 338 "C:\Users\Sakeeb\Documents\School\Fall 2017\CSCC85\Phase 1\Phase1---Little-Lost-Robot\Distro\pfilter prob.nxc"
9	339	57		mov __signed_stack_001turnRight, __turnRight_7qG2_degree_7qG2_000
9	338	59	#line 338 "C:\Users\Sakeeb\Documents\School\Fall 2017\CSCC85\Phase 1\Phase1---Little-Lost-Robot\Distro\pfilter prob.nxc"
9	338	59	#line 338 "C:\Users\Sakeeb\Documents\School\Fall 2017\CSCC85\Phase 1\Phase1---Little-Lost-Robot\Distro\pfilter prob.nxc"
9	339	59		set __D0turnRight, 30
9	338	62	#line 338 "C:\Users\Sakeeb\Documents\School\Fall 2017\CSCC85\Phase 1\Phase1---Little-Lost-Robot\Distro\pfilter prob.nxc"
9	339	62		mul __Wait_7qG2_ms_7qG2_000_inline_turnRight, __signed_stack_001turnRight, __D0turnRight
9	338	66	#line 338 "C:\Users\Sakeeb\Documents\School\Fall 2017\CSCC85\Phase 1\Phase1---Little-Lost-Robot\Distro\pfilter prob.nxc"
9	8551	66	#line 8551 "NXCDefs.h"
9	8552	66		wait2 NA, __Wait_7qG2_ms_7qG2_000_inline_turnRight
9	8551	69	#line 8551 "NXCDefs.h"
9	339	69	#line 339 "C:\Users\Sakeeb\Documents\School\Fall 2017\CSCC85\Phase 1\Phase1---Little-Lost-Robot\Distro\pfilter prob.nxc"
9	340	69	#line 340 "C:\Users\Sakeeb\Documents\School\Fall 2017\CSCC85\Phase 1\Phase1---Little-Lost-Robot\Distro\pfilter prob.nxc"
9	341	69	#pragma macro 7
9	341	69		setout __OUT_BC, 2, __constVal0, 1, __constVal3, 8, __constVal0, 6, __constVal32, 7, __constVal0, 5, __constVal0, 10, __constVal96, 11, __constVal32, 12, __constVal32, 0, __constVal63
9	7334	92	#line 7334 "C:\Users\Sakeeb\Documents\School\Fall 2017\CSCC85\Phase 1\Phase1---Little-Lost-Robot\Distro\pfilter prob.nxc"
9	340	92	#line 340 "C:\Users\Sakeeb\Documents\School\Fall 2017\CSCC85\Phase 1\Phase1---Little-Lost-Robot\Distro\pfilter prob.nxc"
9	342	92	#line 342 "C:\Users\Sakeeb\Documents\School\Fall 2017\CSCC85\Phase 1\Phase1---Little-Lost-Robot\Distro\pfilter prob.nxc"
9	343	92		subret __turnRight_return
10	343	0	#line 343 "C:\Users\Sakeeb\Documents\School\Fall 2017\CSCC85\Phase 1\Phase1---Little-Lost-Robot\Distro\pfilter prob.nxc"
10	344	0		set __D0turnLeft, 20
10	344	3	#line 344 "C:\Users\Sakeeb\Documents\School\Fall 2017\CSCC85\Phase 1\Phase1---Little-Lost-Robot\Distro\pfilter prob.nxc"
10	345	3	#pragma macro 10
10	345	3		acquire __OnRevMutex
10	345	4		neg __OnRev_Tmp, __D0turnLeft
10	345	7		setout __constVal1, 2, __OnRev_Tmp, 1, __constVal3, 8, __constVal0, 6, __constVal32, 7, __constVal0, 5, __constVal0, 10, __constVal96, 11, __constVal32, 12, __constVal32, 0, __constVal63
10	345	30		release __OnRevMutex
10	7348	31	#line 7348 "C:\Users\Sakeeb\Documents\School\Fall 2017\CSCC85\Phase 1\Phase1---Little-Lost-Robot\Distro\pfilter prob.nxc"
10	344	31	#line 344 "C:\Users\Sakeeb\Documents\School\Fall 2017\CSCC85\Phase 1\Phase1---Little-Lost-Robot\Distro\pfilter prob.nxc"
10	344	31	#line 344 "C:\Users\Sakeeb\Documents\School\Fall 2017\CSCC85\Phase 1\Phase1---Little-Lost-Robot\Distro\pfilter prob.nxc"
10	345	31		set __D0turnLeft, 20
10	345	34	#line 345 "C:\Users\Sakeeb\Documents\School\Fall 2017\CSCC85\Phase 1\Phase1---Little-Lost-Robot\Distro\pfilter prob.nxc"
10	346	34	#pragma macro 7
10	346	34		setout __constVal2, 2, __D0turnLeft, 1, __constVal3, 8, __constVal0, 6, __constVal32, 7, __constVal0, 5, __constVal0, 10, __constVal96, 11, __constVal32, 12, __constVal32, 0, __constVal63
10	7353	57	#line 7353 "C:\Users\Sakeeb\Documents\School\Fall 2017\CSCC85\Phase 1\Phase1---Little-Lost-Robot\Distro\pfilter prob.nxc"
10	345	57	#line 345 "C:\Users\Sakeeb\Documents\School\Fall 2017\CSCC85\Phase 1\Phase1---Little-Lost-Robot\Distro\pfilter prob.nxc"
10	345	57	#line 345 "C:\Users\Sakeeb\Documents\School\Fall 2017\CSCC85\Phase 1\Phase1---Little-Lost-Robot\Distro\pfilter prob.nxc"
10	346	57		mov __signed_stack_001turnLeft, __turnLeft_7qG2_degree_7qG2_000
10	345	59	#line 345 "C:\Users\Sakeeb\Documents\School\Fall 2017\CSCC85\Phase 1\Phase1---Little-Lost-Robot\Distro\pfilter prob.nxc"
10	345	59	#line 345 "C:\Users\Sakeeb\Documents\School\Fall 2017\CSCC85\Phase 1\Phase1---Little-Lost-Robot\Distro\pfilter prob.nxc"
10	346	59		set __D0turnLeft, 30
10	345	62	#line 345 "C:\Users\Sakeeb\Documents\School\Fall 2017\CSCC85\Phase 1\Phase1---Little-Lost-Robot\Distro\pfilter prob.nxc"
10	346	62		mul __Wait_7qG2_ms_7qG2_000_inline_turnLeft, __signed_stack_001turnLeft, __D0turnLeft
10	345	66	#line 345 "C:\Users\Sakeeb\Documents\School\Fall 2017\CSCC85\Phase 1\Phase1---Little-Lost-Robot\Distro\pfilter prob.nxc"
10	8551	66	#line 8551 "NXCDefs.h"
10	8552	66		wait2 NA, __Wait_7qG2_ms_7qG2_000_inline_turnLeft
10	8551	69	#line 8551 "NXCDefs.h"
10	346	69	#line 346 "C:\Users\Sakeeb\Documents\School\Fall 2017\CSCC85\Phase 1\Phase1---Little-Lost-Robot\Distro\pfilter prob.nxc"
10	347	69	#line 347 "C:\Users\Sakeeb\Documents\School\Fall 2017\CSCC85\Phase 1\Phase1---Little-Lost-Robot\Distro\pfilter prob.nxc"
10	348	69	#pragma macro 7
10	348	69		setout __OUT_BC, 2, __constVal0, 1, __constVal3, 8, __constVal0, 6, __constVal32, 7, __constVal0, 5, __constVal0, 10, __constVal96, 11, __constVal32, 12, __constVal32, 0, __constVal63
10	7378	92	#line 7378 "C:\Users\Sakeeb\Documents\School\Fall 2017\CSCC85\Phase 1\Phase1---Little-Lost-Robot\Distro\pfilter prob.nxc"
10	347	92	#line 347 "C:\Users\Sakeeb\Documents\School\Fall 2017\CSCC85\Phase 1\Phase1---Little-Lost-Robot\Distro\pfilter prob.nxc"
10	349	92	#line 349 "C:\Users\Sakeeb\Documents\School\Fall 2017\CSCC85\Phase 1\Phase1---Little-Lost-Robot\Distro\pfilter prob.nxc"
10	350	92		subret __turnLeft_return
11	352	0	#line 352 "C:\Users\Sakeeb\Documents\School\Fall 2017\CSCC85\Phase 1\Phase1---Little-Lost-Robot\Distro\pfilter prob.nxc"
11	353	0		set __robot_sense_7qG2_bestColor_7qG2_000, 7
11	352	3	#line 352 "C:\Users\Sakeeb\Documents\School\Fall 2017\CSCC85\Phase 1\Phase1---Little-Lost-Robot\Distro\pfilter prob.nxc"
11	352	3	#line 352 "C:\Users\Sakeeb\Documents\School\Fall 2017\CSCC85\Phase 1\Phase1---Little-Lost-Robot\Distro\pfilter prob.nxc"
11	353	3		arrbuild __robot_sense_7qG2_possible_7qG2_000, __constVal0, __constVal0, __constVal0, __constVal0, __constVal0, __constVal0, __constVal0
11	355	13	#line 355 "C:\Users\Sakeeb\Documents\School\Fall 2017\CSCC85\Phase 1\Phase1---Little-Lost-Robot\Distro\pfilter prob.nxc"
11	356	13		set __robot_sense_7qG2_high_7qG2_000, 0
11	355	16	#line 355 "C:\Users\Sakeeb\Documents\School\Fall 2017\CSCC85\Phase 1\Phase1---Little-Lost-Robot\Distro\pfilter prob.nxc"
11	355	16	#line 355 "C:\Users\Sakeeb\Documents\School\Fall 2017\CSCC85\Phase 1\Phase1---Little-Lost-Robot\Distro\pfilter prob.nxc"
11	356	16		set __robot_sense_7qG2_i_7qG2_001, 0
11	355	19	#line 355 "C:\Users\Sakeeb\Documents\School\Fall 2017\CSCC85\Phase 1\Phase1---Little-Lost-Robot\Distro\pfilter prob.nxc"
11	355	19	#line 355 "C:\Users\Sakeeb\Documents\School\Fall 2017\CSCC85\Phase 1\Phase1---Little-Lost-Robot\Distro\pfilter prob.nxc"
11	356	19		mov __signed_stack_001robot_sense, __robot_sense_7qG2_i_7qG2_001
11	355	21	#line 355 "C:\Users\Sakeeb\Documents\School\Fall 2017\CSCC85\Phase 1\Phase1---Little-Lost-Robot\Distro\pfilter prob.nxc"
11	355	21	#line 355 "C:\Users\Sakeeb\Documents\School\Fall 2017\CSCC85\Phase 1\Phase1---Little-Lost-Robot\Distro\pfilter prob.nxc"
11	356	21		mov __D0robot_sense, __robot_sense_7qG2_iter_7qG2_000
11	355	23	#line 355 "C:\Users\Sakeeb\Documents\School\Fall 2017\CSCC85\Phase 1\Phase1---Little-Lost-Robot\Distro\pfilter prob.nxc"
11	356	23		cmp 0, __D0robot_sense, __signed_stack_001robot_sense, __D0robot_sense
11	355	27	#line 355 "C:\Users\Sakeeb\Documents\School\Fall 2017\CSCC85\Phase 1\Phase1---Little-Lost-Robot\Distro\pfilter prob.nxc"
11	356	27		brtst 4, __ASM_Label_1010, __D0robot_sense
11	355	30	#line 355 "C:\Users\Sakeeb\Documents\School\Fall 2017\CSCC85\Phase 1\Phase1---Little-Lost-Robot\Distro\pfilter prob.nxc"
11	356	30		jmp __ASM_Label_1011
11	355	32	#line 355 "C:\Users\Sakeeb\Documents\School\Fall 2017\CSCC85\Phase 1\Phase1---Little-Lost-Robot\Distro\pfilter prob.nxc"
11	356	32		set __D0robot_sense, 1
11	355	35	#line 355 "C:\Users\Sakeeb\Documents\School\Fall 2017\CSCC85\Phase 1\Phase1---Little-Lost-Robot\Distro\pfilter prob.nxc"
11	356	35		add __robot_sense_7qG2_i_7qG2_001, __robot_sense_7qG2_i_7qG2_001, __D0robot_sense
11	356	39	#line 356 "C:\Users\Sakeeb\Documents\School\Fall 2017\CSCC85\Phase 1\Phase1---Little-Lost-Robot\Distro\pfilter prob.nxc"
11	357	39		jmp __ASM_Label_1009
11	356	41	#line 356 "C:\Users\Sakeeb\Documents\School\Fall 2017\CSCC85\Phase 1\Phase1---Little-Lost-Robot\Distro\pfilter prob.nxc"
11	357	41		getin __robot_sense_7qG2_nColor_7qG2_000, __constVal0, 4
11	356	45	#line 356 "C:\Users\Sakeeb\Documents\School\Fall 2017\CSCC85\Phase 1\Phase1---Little-Lost-Robot\Distro\pfilter prob.nxc"
11	356	45	#line 356 "C:\Users\Sakeeb\Documents\School\Fall 2017\CSCC85\Phase 1\Phase1---Little-Lost-Robot\Distro\pfilter prob.nxc"
11	356	45	#line 356 "C:\Users\Sakeeb\Documents\School\Fall 2017\CSCC85\Phase 1\Phase1---Little-Lost-Robot\Distro\pfilter prob.nxc"
11	357	45	#line 357 "C:\Users\Sakeeb\Documents\School\Fall 2017\CSCC85\Phase 1\Phase1---Little-Lost-Robot\Distro\pfilter prob.nxc"
11	358	45		mov __signed_stack_001robot_sense, __robot_sense_7qG2_nColor_7qG2_000
11	357	47	#line 357 "C:\Users\Sakeeb\Documents\School\Fall 2017\CSCC85\Phase 1\Phase1---Little-Lost-Robot\Distro\pfilter prob.nxc"
11	357	47	#line 357 "C:\Users\Sakeeb\Documents\School\Fall 2017\CSCC85\Phase 1\Phase1---Little-Lost-Robot\Distro\pfilter prob.nxc"
11	358	47		set __D0robot_sense, 0
11	357	50	#line 357 "C:\Users\Sakeeb\Documents\School\Fall 2017\CSCC85\Phase 1\Phase1---Little-Lost-Robot\Distro\pfilter prob.nxc"
11	358	50		cmp 1, __D0robot_sense, __signed_stack_001robot_sense, __D0robot_sense
11	357	54	#line 357 "C:\Users\Sakeeb\Documents\School\Fall 2017\CSCC85\Phase 1\Phase1---Little-Lost-Robot\Distro\pfilter prob.nxc"
11	358	54		brtst 5, __ASM_Label_1021, __D0robot_sense
11	357	57	#line 357 "C:\Users\Sakeeb\Documents\School\Fall 2017\CSCC85\Phase 1\Phase1---Little-Lost-Robot\Distro\pfilter prob.nxc"
11	358	57		mov __signed_stack_001robot_sense, __robot_sense_7qG2_nColor_7qG2_000
11	357	59	#line 357 "C:\Users\Sakeeb\Documents\School\Fall 2017\CSCC85\Phase 1\Phase1---Little-Lost-Robot\Distro\pfilter prob.nxc"
11	357	59	#line 357 "C:\Users\Sakeeb\Documents\School\Fall 2017\CSCC85\Phase 1\Phase1---Little-Lost-Robot\Distro\pfilter prob.nxc"
11	358	59		set __D0robot_sense, 7
11	357	62	#line 357 "C:\Users\Sakeeb\Documents\School\Fall 2017\CSCC85\Phase 1\Phase1---Little-Lost-Robot\Distro\pfilter prob.nxc"
11	358	62		cmp 0, __D0robot_sense, __signed_stack_001robot_sense, __D0robot_sense
11	358	66	#line 358 "C:\Users\Sakeeb\Documents\School\Fall 2017\CSCC85\Phase 1\Phase1---Little-Lost-Robot\Distro\pfilter prob.nxc"
11	359	66		brtst 4, __ASM_Label_1024, __D0robot_sense
11	358	69	#line 358 "C:\Users\Sakeeb\Documents\School\Fall 2017\CSCC85\Phase 1\Phase1---Little-Lost-Robot\Distro\pfilter prob.nxc"
11	359	69		mov __signed_stack_001robot_sense, __robot_sense_7qG2_nColor_7qG2_000
11	358	71	#line 358 "C:\Users\Sakeeb\Documents\School\Fall 2017\CSCC85\Phase 1\Phase1---Little-Lost-Robot\Distro\pfilter prob.nxc"
11	358	71	#line 358 "C:\Users\Sakeeb\Documents\School\Fall 2017\CSCC85\Phase 1\Phase1---Little-Lost-Robot\Distro\pfilter prob.nxc"
11	359	71		set __D0robot_sense, 1
11	358	74	#line 358 "C:\Users\Sakeeb\Documents\School\Fall 2017\CSCC85\Phase 1\Phase1---Little-Lost-Robot\Distro\pfilter prob.nxc"
11	359	74		sub __signed_stack_001robot_sense, __signed_stack_001robot_sense, __D0robot_sense
11	358	78	#line 358 "C:\Users\Sakeeb\Documents\School\Fall 2017\CSCC85\Phase 1\Phase1---Little-Lost-Robot\Distro\pfilter prob.nxc"
11	358	78	#line 358 "C:\Users\Sakeeb\Documents\School\Fall 2017\CSCC85\Phase 1\Phase1---Little-Lost-Robot\Distro\pfilter prob.nxc"
11	359	78		index __signed_stack_002robot_sense, __robot_sense_7qG2_possible_7qG2_000, __signed_stack_001robot_sense
11	359	82	#line 359 "C:\Users\Sakeeb\Documents\School\Fall 2017\CSCC85\Phase 1\Phase1---Little-Lost-Robot\Distro\pfilter prob.nxc"
11	360	82		set __D0robot_sense, 1
11	359	85	#line 359 "C:\Users\Sakeeb\Documents\School\Fall 2017\CSCC85\Phase 1\Phase1---Little-Lost-Robot\Distro\pfilter prob.nxc"
11	360	85		add __signed_stack_002robot_sense, __signed_stack_002robot_sense, __D0robot_sense
11	359	89	#line 359 "C:\Users\Sakeeb\Documents\School\Fall 2017\CSCC85\Phase 1\Phase1---Little-Lost-Robot\Distro\pfilter prob.nxc"
11	360	89		replace __robot_sense_7qG2_possible_7qG2_000, __robot_sense_7qG2_possible_7qG2_000, __signed_stack_001robot_sense, __signed_stack_002robot_sense
11	359	94	#line 359 "C:\Users\Sakeeb\Documents\School\Fall 2017\CSCC85\Phase 1\Phase1---Little-Lost-Robot\Distro\pfilter prob.nxc"
11	361	94	#line 361 "C:\Users\Sakeeb\Documents\School\Fall 2017\CSCC85\Phase 1\Phase1---Little-Lost-Robot\Distro\pfilter prob.nxc"
11	362	94		jmp __ASM_Label_1029
11	361	96	#line 361 "C:\Users\Sakeeb\Documents\School\Fall 2017\CSCC85\Phase 1\Phase1---Little-Lost-Robot\Distro\pfilter prob.nxc"
11	362	96		set __signed_stack_001robot_sense, 6
11	361	99	#line 361 "C:\Users\Sakeeb\Documents\School\Fall 2017\CSCC85\Phase 1\Phase1---Little-Lost-Robot\Distro\pfilter prob.nxc"
11	361	99	#line 361 "C:\Users\Sakeeb\Documents\School\Fall 2017\CSCC85\Phase 1\Phase1---Little-Lost-Robot\Distro\pfilter prob.nxc"
11	362	99		index __signed_stack_002robot_sense, __robot_sense_7qG2_possible_7qG2_000, __signed_stack_001robot_sense
11	362	103	#line 362 "C:\Users\Sakeeb\Documents\School\Fall 2017\CSCC85\Phase 1\Phase1---Little-Lost-Robot\Distro\pfilter prob.nxc"
11	363	103		set __D0robot_sense, 1
11	362	106	#line 362 "C:\Users\Sakeeb\Documents\School\Fall 2017\CSCC85\Phase 1\Phase1---Little-Lost-Robot\Distro\pfilter prob.nxc"
11	363	106		add __signed_stack_002robot_sense, __signed_stack_002robot_sense, __D0robot_sense
11	362	110	#line 362 "C:\Users\Sakeeb\Documents\School\Fall 2017\CSCC85\Phase 1\Phase1---Little-Lost-Robot\Distro\pfilter prob.nxc"
11	363	110		replace __robot_sense_7qG2_possible_7qG2_000, __robot_sense_7qG2_possible_7qG2_000, __signed_stack_001robot_sense, __signed_stack_002robot_sense
11	362	115	#line 362 "C:\Users\Sakeeb\Documents\School\Fall 2017\CSCC85\Phase 1\Phase1---Little-Lost-Robot\Distro\pfilter prob.nxc"
11	365	115	#line 365 "C:\Users\Sakeeb\Documents\School\Fall 2017\CSCC85\Phase 1\Phase1---Little-Lost-Robot\Distro\pfilter prob.nxc"
11	365	115	#line 365 "C:\Users\Sakeeb\Documents\School\Fall 2017\CSCC85\Phase 1\Phase1---Little-Lost-Robot\Distro\pfilter prob.nxc"
11	366	115		jmp __ASM_Label_1012
11	365	117	#line 365 "C:\Users\Sakeeb\Documents\School\Fall 2017\CSCC85\Phase 1\Phase1---Little-Lost-Robot\Distro\pfilter prob.nxc"
11	365	117	#line 365 "C:\Users\Sakeeb\Documents\School\Fall 2017\CSCC85\Phase 1\Phase1---Little-Lost-Robot\Distro\pfilter prob.nxc"
11	366	117		set __robot_sense_7qG2_index_7qG2_001, 0
11	365	120	#line 365 "C:\Users\Sakeeb\Documents\School\Fall 2017\CSCC85\Phase 1\Phase1---Little-Lost-Robot\Distro\pfilter prob.nxc"
11	365	120	#line 365 "C:\Users\Sakeeb\Documents\School\Fall 2017\CSCC85\Phase 1\Phase1---Little-Lost-Robot\Distro\pfilter prob.nxc"
11	366	120		mov __signed_stack_001robot_sense, __robot_sense_7qG2_index_7qG2_001
11	365	122	#line 365 "C:\Users\Sakeeb\Documents\School\Fall 2017\CSCC85\Phase 1\Phase1---Little-Lost-Robot\Distro\pfilter prob.nxc"
11	365	122	#line 365 "C:\Users\Sakeeb\Documents\School\Fall 2017\CSCC85\Phase 1\Phase1---Little-Lost-Robot\Distro\pfilter prob.nxc"
11	366	122		set __D0robot_sense, 7
11	365	125	#line 365 "C:\Users\Sakeeb\Documents\School\Fall 2017\CSCC85\Phase 1\Phase1---Little-Lost-Robot\Distro\pfilter prob.nxc"
11	366	125		cmp 0, __D0robot_sense, __signed_stack_001robot_sense, __D0robot_sense
11	365	129	#line 365 "C:\Users\Sakeeb\Documents\School\Fall 2017\CSCC85\Phase 1\Phase1---Little-Lost-Robot\Distro\pfilter prob.nxc"
11	366	129		brtst 4, __ASM_Label_1035, __D0robot_sense
11	365	132	#line 365 "C:\Users\Sakeeb\Documents\School\Fall 2017\CSCC85\Phase 1\Phase1---Little-Lost-Robot\Distro\pfilter prob.nxc"
11	366	132		jmp __ASM_Label_1036
11	365	134	#line 365 "C:\Users\Sakeeb\Documents\School\Fall 2017\CSCC85\Phase 1\Phase1---Little-Lost-Robot\Distro\pfilter prob.nxc"
11	366	134		set __D0robot_sense, 1
11	365	137	#line 365 "C:\Users\Sakeeb\Documents\School\Fall 2017\CSCC85\Phase 1\Phase1---Little-Lost-Robot\Distro\pfilter prob.nxc"
11	366	137		add __robot_sense_7qG2_index_7qG2_001, __robot_sense_7qG2_index_7qG2_001, __D0robot_sense
11	366	141	#line 366 "C:\Users\Sakeeb\Documents\School\Fall 2017\CSCC85\Phase 1\Phase1---Little-Lost-Robot\Distro\pfilter prob.nxc"
11	367	141		jmp __ASM_Label_1034
11	366	143	#line 366 "C:\Users\Sakeeb\Documents\School\Fall 2017\CSCC85\Phase 1\Phase1---Little-Lost-Robot\Distro\pfilter prob.nxc"
11	367	143		mov __signed_stack_001robot_sense, __robot_sense_7qG2_index_7qG2_001
11	366	145	#line 366 "C:\Users\Sakeeb\Documents\School\Fall 2017\CSCC85\Phase 1\Phase1---Little-Lost-Robot\Distro\pfilter prob.nxc"
11	366	145	#line 366 "C:\Users\Sakeeb\Documents\School\Fall 2017\CSCC85\Phase 1\Phase1---Little-Lost-Robot\Distro\pfilter prob.nxc"
11	367	145		index __signed_stack_001robot_sense, __robot_sense_7qG2_possible_7qG2_000, __signed_stack_001robot_sense
11	366	149	#line 366 "C:\Users\Sakeeb\Documents\School\Fall 2017\CSCC85\Phase 1\Phase1---Little-Lost-Robot\Distro\pfilter prob.nxc"
11	366	149	#line 366 "C:\Users\Sakeeb\Documents\School\Fall 2017\CSCC85\Phase 1\Phase1---Little-Lost-Robot\Distro\pfilter prob.nxc"
11	366	149	#line 366 "C:\Users\Sakeeb\Documents\School\Fall 2017\CSCC85\Phase 1\Phase1---Little-Lost-Robot\Distro\pfilter prob.nxc"
11	367	149		mov __D0robot_sense, __robot_sense_7qG2_high_7qG2_000
11	366	151	#line 366 "C:\Users\Sakeeb\Documents\School\Fall 2017\CSCC85\Phase 1\Phase1---Little-Lost-Robot\Distro\pfilter prob.nxc"
11	367	151		cmp 1, __D0robot_sense, __signed_stack_001robot_sense, __D0robot_sense
11	367	155	#line 367 "C:\Users\Sakeeb\Documents\School\Fall 2017\CSCC85\Phase 1\Phase1---Little-Lost-Robot\Distro\pfilter prob.nxc"
11	368	155		brtst 4, __ASM_Label_1048, __D0robot_sense
11	367	158	#line 367 "C:\Users\Sakeeb\Documents\School\Fall 2017\CSCC85\Phase 1\Phase1---Little-Lost-Robot\Distro\pfilter prob.nxc"
11	368	158		mov __signed_stack_001robot_sense, __robot_sense_7qG2_index_7qG2_001
11	367	160	#line 367 "C:\Users\Sakeeb\Documents\School\Fall 2017\CSCC85\Phase 1\Phase1---Little-Lost-Robot\Distro\pfilter prob.nxc"
11	368	160	#line 368 "C:\Users\Sakeeb\Documents\School\Fall 2017\CSCC85\Phase 1\Phase1---Little-Lost-Robot\Distro\pfilter prob.nxc"
11	369	160		set __D0robot_sense, 1
11	368	163	#line 368 "C:\Users\Sakeeb\Documents\School\Fall 2017\CSCC85\Phase 1\Phase1---Little-Lost-Robot\Distro\pfilter prob.nxc"
11	369	163		add __robot_sense_7qG2_bestColor_7qG2_000, __signed_stack_001robot_sense, __D0robot_sense
11	368	167	#line 368 "C:\Users\Sakeeb\Documents\School\Fall 2017\CSCC85\Phase 1\Phase1---Little-Lost-Robot\Distro\pfilter prob.nxc"
11	368	167	#line 368 "C:\Users\Sakeeb\Documents\School\Fall 2017\CSCC85\Phase 1\Phase1---Little-Lost-Robot\Distro\pfilter prob.nxc"
11	368	167	#line 368 "C:\Users\Sakeeb\Documents\School\Fall 2017\CSCC85\Phase 1\Phase1---Little-Lost-Robot\Distro\pfilter prob.nxc"
11	369	167		mov __signed_stack_001robot_sense, __robot_sense_7qG2_index_7qG2_001
11	368	169	#line 368 "C:\Users\Sakeeb\Documents\School\Fall 2017\CSCC85\Phase 1\Phase1---Little-Lost-Robot\Distro\pfilter prob.nxc"
11	368	169	#line 368 "C:\Users\Sakeeb\Documents\School\Fall 2017\CSCC85\Phase 1\Phase1---Little-Lost-Robot\Distro\pfilter prob.nxc"
11	369	169		index __robot_sense_7qG2_high_7qG2_000, __robot_sense_7qG2_possible_7qG2_000, __signed_stack_001robot_sense
11	368	173	#line 368 "C:\Users\Sakeeb\Documents\School\Fall 2017\CSCC85\Phase 1\Phase1---Little-Lost-Robot\Distro\pfilter prob.nxc"
11	369	173	#line 369 "C:\Users\Sakeeb\Documents\School\Fall 2017\CSCC85\Phase 1\Phase1---Little-Lost-Robot\Distro\pfilter prob.nxc"
11	369	173	#line 369 "C:\Users\Sakeeb\Documents\School\Fall 2017\CSCC85\Phase 1\Phase1---Little-Lost-Robot\Distro\pfilter prob.nxc"
11	371	173	#line 371 "C:\Users\Sakeeb\Documents\School\Fall 2017\CSCC85\Phase 1\Phase1---Little-Lost-Robot\Distro\pfilter prob.nxc"
11	371	173	#line 371 "C:\Users\Sakeeb\Documents\School\Fall 2017\CSCC85\Phase 1\Phase1---Little-Lost-Robot\Distro\pfilter prob.nxc"
11	372	173		jmp __ASM_Label_1037
11	371	175	#line 371 "C:\Users\Sakeeb\Documents\School\Fall 2017\CSCC85\Phase 1\Phase1---Little-Lost-Robot\Distro\pfilter prob.nxc"
11	371	175	#line 371 "C:\Users\Sakeeb\Documents\School\Fall 2017\CSCC85\Phase 1\Phase1---Little-Lost-Robot\Distro\pfilter prob.nxc"
11	372	175		mov __signed_stack_001robot_sense, __robot_sense_7qG2_bestColor_7qG2_000
11	371	177	#line 371 "C:\Users\Sakeeb\Documents\School\Fall 2017\CSCC85\Phase 1\Phase1---Little-Lost-Robot\Distro\pfilter prob.nxc"
11	371	177	#line 371 "C:\Users\Sakeeb\Documents\School\Fall 2017\CSCC85\Phase 1\Phase1---Little-Lost-Robot\Distro\pfilter prob.nxc"
11	372	177		set __D0robot_sense, 1
11	371	180	#line 371 "C:\Users\Sakeeb\Documents\School\Fall 2017\CSCC85\Phase 1\Phase1---Little-Lost-Robot\Distro\pfilter prob.nxc"
11	372	180		cmp 4, __D0robot_sense, __signed_stack_001robot_sense, __D0robot_sense
11	373	184	#line 373 "C:\Users\Sakeeb\Documents\School\Fall 2017\CSCC85\Phase 1\Phase1---Little-Lost-Robot\Distro\pfilter prob.nxc"
11	374	184		brtst 4, __ASM_Label_1057, __D0robot_sense
11	374	187	#line 374 "C:\Users\Sakeeb\Documents\School\Fall 2017\CSCC85\Phase 1\Phase1---Little-Lost-Robot\Distro\pfilter prob.nxc"
11	375	187		strcat __strbufrobot_sense, __constStr0009
11	374	191	#line 374 "C:\Users\Sakeeb\Documents\School\Fall 2017\CSCC85\Phase 1\Phase1---Little-Lost-Robot\Distro\pfilter prob.nxc"
11	375	191		mov __robot_sense_7qG2_sColor_7qG2_000, __strbufrobot_sense
11	374	193	#line 374 "C:\Users\Sakeeb\Documents\School\Fall 2017\CSCC85\Phase 1\Phase1---Little-Lost-Robot\Distro\pfilter prob.nxc"
11	376	193	#line 376 "C:\Users\Sakeeb\Documents\School\Fall 2017\CSCC85\Phase 1\Phase1---Little-Lost-Robot\Distro\pfilter prob.nxc"
11	377	193		jmp __ASM_Label_1058
11	376	195	#line 376 "C:\Users\Sakeeb\Documents\School\Fall 2017\CSCC85\Phase 1\Phase1---Little-Lost-Robot\Distro\pfilter prob.nxc"
11	377	195		mov __signed_stack_001robot_sense, __robot_sense_7qG2_bestColor_7qG2_000
11	376	197	#line 376 "C:\Users\Sakeeb\Documents\School\Fall 2017\CSCC85\Phase 1\Phase1---Little-Lost-Robot\Distro\pfilter prob.nxc"
11	376	197	#line 376 "C:\Users\Sakeeb\Documents\School\Fall 2017\CSCC85\Phase 1\Phase1---Little-Lost-Robot\Distro\pfilter prob.nxc"
11	377	197		set __D0robot_sense, 2
11	376	200	#line 376 "C:\Users\Sakeeb\Documents\School\Fall 2017\CSCC85\Phase 1\Phase1---Little-Lost-Robot\Distro\pfilter prob.nxc"
11	377	200		cmp 4, __D0robot_sense, __signed_stack_001robot_sense, __D0robot_sense
11	378	204	#line 378 "C:\Users\Sakeeb\Documents\School\Fall 2017\CSCC85\Phase 1\Phase1---Little-Lost-Robot\Distro\pfilter prob.nxc"
11	379	204		brtst 4, __ASM_Label_1061, __D0robot_sense
11	379	207	#line 379 "C:\Users\Sakeeb\Documents\School\Fall 2017\CSCC85\Phase 1\Phase1---Little-Lost-Robot\Distro\pfilter prob.nxc"
11	380	207		strcat __strbufrobot_sense, __constStr0010
11	379	211	#line 379 "C:\Users\Sakeeb\Documents\School\Fall 2017\CSCC85\Phase 1\Phase1---Little-Lost-Robot\Distro\pfilter prob.nxc"
11	380	211		mov __robot_sense_7qG2_sColor_7qG2_000, __strbufrobot_sense
11	379	213	#line 379 "C:\Users\Sakeeb\Documents\School\Fall 2017\CSCC85\Phase 1\Phase1---Little-Lost-Robot\Distro\pfilter prob.nxc"
11	381	213	#line 381 "C:\Users\Sakeeb\Documents\School\Fall 2017\CSCC85\Phase 1\Phase1---Little-Lost-Robot\Distro\pfilter prob.nxc"
11	382	213		jmp __ASM_Label_1062
11	381	215	#line 381 "C:\Users\Sakeeb\Documents\School\Fall 2017\CSCC85\Phase 1\Phase1---Little-Lost-Robot\Distro\pfilter prob.nxc"
11	382	215		mov __signed_stack_001robot_sense, __robot_sense_7qG2_bestColor_7qG2_000
11	381	217	#line 381 "C:\Users\Sakeeb\Documents\School\Fall 2017\CSCC85\Phase 1\Phase1---Little-Lost-Robot\Distro\pfilter prob.nxc"
11	381	217	#line 381 "C:\Users\Sakeeb\Documents\School\Fall 2017\CSCC85\Phase 1\Phase1---Little-Lost-Robot\Distro\pfilter prob.nxc"
11	382	217		set __D0robot_sense, 3
11	381	220	#line 381 "C:\Users\Sakeeb\Documents\School\Fall 2017\CSCC85\Phase 1\Phase1---Little-Lost-Robot\Distro\pfilter prob.nxc"
11	382	220		cmp 4, __D0robot_sense, __signed_stack_001robot_sense, __D0robot_sense
11	383	224	#line 383 "C:\Users\Sakeeb\Documents\School\Fall 2017\CSCC85\Phase 1\Phase1---Little-Lost-Robot\Distro\pfilter prob.nxc"
11	384	224		brtst 4, __ASM_Label_1065, __D0robot_sense
11	384	227	#line 384 "C:\Users\Sakeeb\Documents\School\Fall 2017\CSCC85\Phase 1\Phase1---Little-Lost-Robot\Distro\pfilter prob.nxc"
11	385	227		strcat __strbufrobot_sense, __constStr0011
11	384	231	#line 384 "C:\Users\Sakeeb\Documents\School\Fall 2017\CSCC85\Phase 1\Phase1---Little-Lost-Robot\Distro\pfilter prob.nxc"
11	385	231		mov __robot_sense_7qG2_sColor_7qG2_000, __strbufrobot_sense
11	384	233	#line 384 "C:\Users\Sakeeb\Documents\School\Fall 2017\CSCC85\Phase 1\Phase1---Little-Lost-Robot\Distro\pfilter prob.nxc"
11	386	233	#line 386 "C:\Users\Sakeeb\Documents\School\Fall 2017\CSCC85\Phase 1\Phase1---Little-Lost-Robot\Distro\pfilter prob.nxc"
11	387	233		jmp __ASM_Label_1066
11	386	235	#line 386 "C:\Users\Sakeeb\Documents\School\Fall 2017\CSCC85\Phase 1\Phase1---Little-Lost-Robot\Distro\pfilter prob.nxc"
11	387	235		mov __signed_stack_001robot_sense, __robot_sense_7qG2_bestColor_7qG2_000
11	386	237	#line 386 "C:\Users\Sakeeb\Documents\School\Fall 2017\CSCC85\Phase 1\Phase1---Little-Lost-Robot\Distro\pfilter prob.nxc"
11	386	237	#line 386 "C:\Users\Sakeeb\Documents\School\Fall 2017\CSCC85\Phase 1\Phase1---Little-Lost-Robot\Distro\pfilter prob.nxc"
11	387	237		set __D0robot_sense, 4
11	386	240	#line 386 "C:\Users\Sakeeb\Documents\School\Fall 2017\CSCC85\Phase 1\Phase1---Little-Lost-Robot\Distro\pfilter prob.nxc"
11	387	240		cmp 4, __D0robot_sense, __signed_stack_001robot_sense, __D0robot_sense
11	388	244	#line 388 "C:\Users\Sakeeb\Documents\School\Fall 2017\CSCC85\Phase 1\Phase1---Little-Lost-Robot\Distro\pfilter prob.nxc"
11	389	244		brtst 4, __ASM_Label_1069, __D0robot_sense
11	389	247	#line 389 "C:\Users\Sakeeb\Documents\School\Fall 2017\CSCC85\Phase 1\Phase1---Little-Lost-Robot\Distro\pfilter prob.nxc"
11	390	247		strcat __strbufrobot_sense, __constStr0012
11	389	251	#line 389 "C:\Users\Sakeeb\Documents\School\Fall 2017\CSCC85\Phase 1\Phase1---Little-Lost-Robot\Distro\pfilter prob.nxc"
11	390	251		mov __robot_sense_7qG2_sColor_7qG2_000, __strbufrobot_sense
11	389	253	#line 389 "C:\Users\Sakeeb\Documents\School\Fall 2017\CSCC85\Phase 1\Phase1---Little-Lost-Robot\Distro\pfilter prob.nxc"
11	390	253	#line 390 "C:\Users\Sakeeb\Documents\School\Fall 2017\CSCC85\Phase 1\Phase1---Little-Lost-Robot\Distro\pfilter prob.nxc"
11	391	253		jmp __ASM_Label_1070
11	390	255	#line 390 "C:\Users\Sakeeb\Documents\School\Fall 2017\CSCC85\Phase 1\Phase1---Little-Lost-Robot\Distro\pfilter prob.nxc"
11	391	255		mov __signed_stack_001robot_sense, __robot_sense_7qG2_bestColor_7qG2_000
11	390	257	#line 390 "C:\Users\Sakeeb\Documents\School\Fall 2017\CSCC85\Phase 1\Phase1---Little-Lost-Robot\Distro\pfilter prob.nxc"
11	390	257	#line 390 "C:\Users\Sakeeb\Documents\School\Fall 2017\CSCC85\Phase 1\Phase1---Little-Lost-Robot\Distro\pfilter prob.nxc"
11	391	257		set __D0robot_sense, 5
11	390	260	#line 390 "C:\Users\Sakeeb\Documents\School\Fall 2017\CSCC85\Phase 1\Phase1---Little-Lost-Robot\Distro\pfilter prob.nxc"
11	391	260		cmp 4, __D0robot_sense, __signed_stack_001robot_sense, __D0robot_sense
11	392	264	#line 392 "C:\Users\Sakeeb\Documents\School\Fall 2017\CSCC85\Phase 1\Phase1---Little-Lost-Robot\Distro\pfilter prob.nxc"
11	393	264		brtst 4, __ASM_Label_1073, __D0robot_sense
11	393	267	#line 393 "C:\Users\Sakeeb\Documents\School\Fall 2017\CSCC85\Phase 1\Phase1---Little-Lost-Robot\Distro\pfilter prob.nxc"
11	394	267		strcat __strbufrobot_sense, __constStr0013
11	393	271	#line 393 "C:\Users\Sakeeb\Documents\School\Fall 2017\CSCC85\Phase 1\Phase1---Little-Lost-Robot\Distro\pfilter prob.nxc"
11	394	271		mov __robot_sense_7qG2_sColor_7qG2_000, __strbufrobot_sense
11	393	273	#line 393 "C:\Users\Sakeeb\Documents\School\Fall 2017\CSCC85\Phase 1\Phase1---Little-Lost-Robot\Distro\pfilter prob.nxc"
11	394	273	#line 394 "C:\Users\Sakeeb\Documents\School\Fall 2017\CSCC85\Phase 1\Phase1---Little-Lost-Robot\Distro\pfilter prob.nxc"
11	395	273		jmp __ASM_Label_1074
11	394	275	#line 394 "C:\Users\Sakeeb\Documents\School\Fall 2017\CSCC85\Phase 1\Phase1---Little-Lost-Robot\Distro\pfilter prob.nxc"
11	395	275		mov __signed_stack_001robot_sense, __robot_sense_7qG2_bestColor_7qG2_000
11	394	277	#line 394 "C:\Users\Sakeeb\Documents\School\Fall 2017\CSCC85\Phase 1\Phase1---Little-Lost-Robot\Distro\pfilter prob.nxc"
11	394	277	#line 394 "C:\Users\Sakeeb\Documents\School\Fall 2017\CSCC85\Phase 1\Phase1---Little-Lost-Robot\Distro\pfilter prob.nxc"
11	395	277		set __D0robot_sense, 6
11	394	280	#line 394 "C:\Users\Sakeeb\Documents\School\Fall 2017\CSCC85\Phase 1\Phase1---Little-Lost-Robot\Distro\pfilter prob.nxc"
11	395	280		cmp 4, __D0robot_sense, __signed_stack_001robot_sense, __D0robot_sense
11	395	284	#line 395 "C:\Users\Sakeeb\Documents\School\Fall 2017\CSCC85\Phase 1\Phase1---Little-Lost-Robot\Distro\pfilter prob.nxc"
11	396	284		brtst 4, __ASM_Label_1077, __D0robot_sense
11	396	287	#line 396 "C:\Users\Sakeeb\Documents\School\Fall 2017\CSCC85\Phase 1\Phase1---Little-Lost-Robot\Distro\pfilter prob.nxc"
11	397	287		strcat __strbufrobot_sense, __constStr0014
11	396	291	#line 396 "C:\Users\Sakeeb\Documents\School\Fall 2017\CSCC85\Phase 1\Phase1---Little-Lost-Robot\Distro\pfilter prob.nxc"
11	397	291		mov __robot_sense_7qG2_sColor_7qG2_000, __strbufrobot_sense
11	396	293	#line 396 "C:\Users\Sakeeb\Documents\School\Fall 2017\CSCC85\Phase 1\Phase1---Little-Lost-Robot\Distro\pfilter prob.nxc"
11	398	293	#line 398 "C:\Users\Sakeeb\Documents\School\Fall 2017\CSCC85\Phase 1\Phase1---Little-Lost-Robot\Distro\pfilter prob.nxc"
11	399	293		jmp __ASM_Label_1078
11	399	295	#line 399 "C:\Users\Sakeeb\Documents\School\Fall 2017\CSCC85\Phase 1\Phase1---Little-Lost-Robot\Distro\pfilter prob.nxc"
11	400	295		strcat __strbufrobot_sense, __constStr0015
11	399	299	#line 399 "C:\Users\Sakeeb\Documents\School\Fall 2017\CSCC85\Phase 1\Phase1---Little-Lost-Robot\Distro\pfilter prob.nxc"
11	400	299		mov __robot_sense_7qG2_sColor_7qG2_000, __strbufrobot_sense
11	399	301	#line 399 "C:\Users\Sakeeb\Documents\School\Fall 2017\CSCC85\Phase 1\Phase1---Little-Lost-Robot\Distro\pfilter prob.nxc"
11	402	301	#line 402 "C:\Users\Sakeeb\Documents\School\Fall 2017\CSCC85\Phase 1\Phase1---Little-Lost-Robot\Distro\pfilter prob.nxc"
11	402	301	#line 402 "C:\Users\Sakeeb\Documents\School\Fall 2017\CSCC85\Phase 1\Phase1---Little-Lost-Robot\Distro\pfilter prob.nxc"
11	402	301	#line 402 "C:\Users\Sakeeb\Documents\School\Fall 2017\CSCC85\Phase 1\Phase1---Little-Lost-Robot\Distro\pfilter prob.nxc"
11	402	301	#line 402 "C:\Users\Sakeeb\Documents\School\Fall 2017\CSCC85\Phase 1\Phase1---Little-Lost-Robot\Distro\pfilter prob.nxc"
11	402	301	#line 402 "C:\Users\Sakeeb\Documents\School\Fall 2017\CSCC85\Phase 1\Phase1---Little-Lost-Robot\Distro\pfilter prob.nxc"
11	402	301	#line 402 "C:\Users\Sakeeb\Documents\School\Fall 2017\CSCC85\Phase 1\Phase1---Little-Lost-Robot\Distro\pfilter prob.nxc"
11	6678	301	#line 6678 "NXCDefs.h"
11	6679	301	#pragma macro 6
11	6679	301		acquire __PointOutMutex
11	6679	302		mov __PointOutArgs.Location.X, __constVal200
11	6679	305		mov __PointOutArgs.Location.Y, __constVal200
11	6679	308		mov __PointOutArgs.Options, __constVal1
11	6679	310		syscall 14, __PointOutArgs
11	6679	313		release __PointOutMutex
11	7789	314	#line 7789 "NXCDefs.h"
11	6678	314	#line 6678 "NXCDefs.h"
11	403	314	#line 403 "C:\Users\Sakeeb\Documents\School\Fall 2017\CSCC85\Phase 1\Phase1---Little-Lost-Robot\Distro\pfilter prob.nxc"
11	403	314	#line 403 "C:\Users\Sakeeb\Documents\School\Fall 2017\CSCC85\Phase 1\Phase1---Little-Lost-Robot\Distro\pfilter prob.nxc"
11	404	314		set __signed_stack_001robot_sense, 0
11	403	317	#line 403 "C:\Users\Sakeeb\Documents\School\Fall 2017\CSCC85\Phase 1\Phase1---Little-Lost-Robot\Distro\pfilter prob.nxc"
11	403	317	#line 403 "C:\Users\Sakeeb\Documents\School\Fall 2017\CSCC85\Phase 1\Phase1---Little-Lost-Robot\Distro\pfilter prob.nxc"
11	404	317		set __signed_stack_002robot_sense, 56
11	403	320	#line 403 "C:\Users\Sakeeb\Documents\School\Fall 2017\CSCC85\Phase 1\Phase1---Little-Lost-Robot\Distro\pfilter prob.nxc"
11	403	320	#line 403 "C:\Users\Sakeeb\Documents\School\Fall 2017\CSCC85\Phase 1\Phase1---Little-Lost-Robot\Distro\pfilter prob.nxc"
11	404	320		mov __D0robot_sense, __robot_sense_7qG2_bestColor_7qG2_000
11	403	322	#line 403 "C:\Users\Sakeeb\Documents\School\Fall 2017\CSCC85\Phase 1\Phase1---Little-Lost-Robot\Distro\pfilter prob.nxc"
11	404	322		numtostr __strretvalrobot_sense, __D0robot_sense
11	403	325	#line 403 "C:\Users\Sakeeb\Documents\School\Fall 2017\CSCC85\Phase 1\Phase1---Little-Lost-Robot\Distro\pfilter prob.nxc"
11	404	325		mov __ArrHelper__robot_sense_244_0, __strretvalrobot_sense
11	403	327	#line 403 "C:\Users\Sakeeb\Documents\School\Fall 2017\CSCC85\Phase 1\Phase1---Little-Lost-Robot\Distro\pfilter prob.nxc"
11	404	327		mov __ArrHelper__robot_sense_244_1, __constStr0016
11	403	329	#line 403 "C:\Users\Sakeeb\Documents\School\Fall 2017\CSCC85\Phase 1\Phase1---Little-Lost-Robot\Distro\pfilter prob.nxc"
11	404	329		strcat __strbufrobot_sense, __robot_sense_7qG2_sColor_7qG2_000
11	403	333	#line 403 "C:\Users\Sakeeb\Documents\School\Fall 2017\CSCC85\Phase 1\Phase1---Little-Lost-Robot\Distro\pfilter prob.nxc"
11	404	333		mov __ArrHelper__robot_sense_244_2, __strbufrobot_sense
11	403	335	#line 403 "C:\Users\Sakeeb\Documents\School\Fall 2017\CSCC85\Phase 1\Phase1---Little-Lost-Robot\Distro\pfilter prob.nxc"
11	404	335		strcat __strbufrobot_sense, __ArrHelper__robot_sense_244_1, __ArrHelper__robot_sense_244_2
11	403	340	#line 403 "C:\Users\Sakeeb\Documents\School\Fall 2017\CSCC85\Phase 1\Phase1---Little-Lost-Robot\Distro\pfilter prob.nxc"
11	404	340		mov __ArrHelper__robot_sense_244_1, __strbufrobot_sense
11	403	342	#line 403 "C:\Users\Sakeeb\Documents\School\Fall 2017\CSCC85\Phase 1\Phase1---Little-Lost-Robot\Distro\pfilter prob.nxc"
11	404	342		strcat __strbufrobot_sense, __ArrHelper__robot_sense_244_0, __ArrHelper__robot_sense_244_1
11	406	347	#line 406 "C:\Users\Sakeeb\Documents\School\Fall 2017\CSCC85\Phase 1\Phase1---Little-Lost-Robot\Distro\pfilter prob.nxc"
11	407	347		acquire __TextOutMutex
11	406	348	#line 406 "C:\Users\Sakeeb\Documents\School\Fall 2017\CSCC85\Phase 1\Phase1---Little-Lost-Robot\Distro\pfilter prob.nxc"
11	407	348		mov __TextOutArgs.Location.X, __signed_stack_001robot_sense
11	406	351	#line 406 "C:\Users\Sakeeb\Documents\School\Fall 2017\CSCC85\Phase 1\Phase1---Little-Lost-Robot\Distro\pfilter prob.nxc"
11	407	351		mov __TextOutArgs.Location.Y, __signed_stack_002robot_sense
11	406	354	#line 406 "C:\Users\Sakeeb\Documents\School\Fall 2017\CSCC85\Phase 1\Phase1---Little-Lost-Robot\Distro\pfilter prob.nxc"
11	407	354		set __TextOutArgs.Options, 0
11	406	357	#line 406 "C:\Users\Sakeeb\Documents\School\Fall 2017\CSCC85\Phase 1\Phase1---Little-Lost-Robot\Distro\pfilter prob.nxc"
11	407	357		mov __TextOutArgs.Text, __strbufrobot_sense
11	406	359	#line 406 "C:\Users\Sakeeb\Documents\School\Fall 2017\CSCC85\Phase 1\Phase1---Little-Lost-Robot\Distro\pfilter prob.nxc"
11	407	359		syscall 13, __TextOutArgs
11	406	362	#line 406 "C:\Users\Sakeeb\Documents\School\Fall 2017\CSCC85\Phase 1\Phase1---Little-Lost-Robot\Distro\pfilter prob.nxc"
11	407	362		mov __D0robot_sense, __TextOutArgs.Result
11	406	365	#line 406 "C:\Users\Sakeeb\Documents\School\Fall 2017\CSCC85\Phase 1\Phase1---Little-Lost-Robot\Distro\pfilter prob.nxc"
11	407	365		release __TextOutMutex
11	406	366	#line 406 "C:\Users\Sakeeb\Documents\School\Fall 2017\CSCC85\Phase 1\Phase1---Little-Lost-Robot\Distro\pfilter prob.nxc"
11	406	366	#line 406 "C:\Users\Sakeeb\Documents\School\Fall 2017\CSCC85\Phase 1\Phase1---Little-Lost-Robot\Distro\pfilter prob.nxc"
11	407	366		set __signed_stack_001robot_sense, 684
11	406	369	#line 406 "C:\Users\Sakeeb\Documents\School\Fall 2017\CSCC85\Phase 1\Phase1---Little-Lost-Robot\Distro\pfilter prob.nxc"
11	406	369	#line 406 "C:\Users\Sakeeb\Documents\School\Fall 2017\CSCC85\Phase 1\Phase1---Little-Lost-Robot\Distro\pfilter prob.nxc"
11	407	369		mov __signed_stack_002robot_sense, __robot_sense_7qG2_bestColor_7qG2_000
11	406	371	#line 406 "C:\Users\Sakeeb\Documents\School\Fall 2017\CSCC85\Phase 1\Phase1---Little-Lost-Robot\Distro\pfilter prob.nxc"
11	406	371	#line 406 "C:\Users\Sakeeb\Documents\School\Fall 2017\CSCC85\Phase 1\Phase1---Little-Lost-Robot\Distro\pfilter prob.nxc"
11	407	371		set __D0robot_sense, 400
11	406	374	#line 406 "C:\Users\Sakeeb\Documents\School\Fall 2017\CSCC85\Phase 1\Phase1---Little-Lost-Robot\Distro\pfilter prob.nxc"
11	407	374		mul __D0robot_sense, __signed_stack_002robot_sense, __D0robot_sense
11	406	378	#line 406 "C:\Users\Sakeeb\Documents\School\Fall 2017\CSCC85\Phase 1\Phase1---Little-Lost-Robot\Distro\pfilter prob.nxc"
11	407	378		add __signed_stack_001robot_sense, __signed_stack_001robot_sense, __D0robot_sense
11	406	382	#line 406 "C:\Users\Sakeeb\Documents\School\Fall 2017\CSCC85\Phase 1\Phase1---Little-Lost-Robot\Distro\pfilter prob.nxc"
11	406	382	#line 406 "C:\Users\Sakeeb\Documents\School\Fall 2017\CSCC85\Phase 1\Phase1---Little-Lost-Robot\Distro\pfilter prob.nxc"
11	407	382		set __signed_stack_002robot_sense, 30
11	406	385	#line 406 "C:\Users\Sakeeb\Documents\School\Fall 2017\CSCC85\Phase 1\Phase1---Little-Lost-Robot\Distro\pfilter prob.nxc"
11	406	385	#line 406 "C:\Users\Sakeeb\Documents\School\Fall 2017\CSCC85\Phase 1\Phase1---Little-Lost-Robot\Distro\pfilter prob.nxc"
11	407	385		set __signed_stack_003robot_sense, 2
11	406	388	#line 406 "C:\Users\Sakeeb\Documents\School\Fall 2017\CSCC85\Phase 1\Phase1---Little-Lost-Robot\Distro\pfilter prob.nxc"
11	406	388	#line 406 "C:\Users\Sakeeb\Documents\School\Fall 2017\CSCC85\Phase 1\Phase1---Little-Lost-Robot\Distro\pfilter prob.nxc"
11	407	388		set __D0robot_sense, 0
11	407	391	#line 407 "C:\Users\Sakeeb\Documents\School\Fall 2017\CSCC85\Phase 1\Phase1---Little-Lost-Robot\Distro\pfilter prob.nxc"
11	408	391		acquire __SPTArgsMutex
11	407	392	#line 407 "C:\Users\Sakeeb\Documents\School\Fall 2017\CSCC85\Phase 1\Phase1---Little-Lost-Robot\Distro\pfilter prob.nxc"
11	408	392		mov __SPTArgs.Frequency, __signed_stack_001robot_sense
11	407	395	#line 407 "C:\Users\Sakeeb\Documents\School\Fall 2017\CSCC85\Phase 1\Phase1---Little-Lost-Robot\Distro\pfilter prob.nxc"
11	408	395		mov __SPTArgs.Duration, __signed_stack_002robot_sense
11	407	398	#line 407 "C:\Users\Sakeeb\Documents\School\Fall 2017\CSCC85\Phase 1\Phase1---Little-Lost-Robot\Distro\pfilter prob.nxc"
11	408	398		mov __SPTArgs.Volume, __signed_stack_003robot_sense
11	407	401	#line 407 "C:\Users\Sakeeb\Documents\School\Fall 2017\CSCC85\Phase 1\Phase1---Little-Lost-Robot\Distro\pfilter prob.nxc"
11	408	401		mov __SPTArgs.Loop, __D0robot_sense
11	407	404	#line 407 "C:\Users\Sakeeb\Documents\School\Fall 2017\CSCC85\Phase 1\Phase1---Little-Lost-Robot\Distro\pfilter prob.nxc"
11	408	404		syscall 10, __SPTArgs
11	407	407	#line 407 "C:\Users\Sakeeb\Documents\School\Fall 2017\CSCC85\Phase 1\Phase1---Little-Lost-Robot\Distro\pfilter prob.nxc"
11	408	407		mov __D0robot_sense, __SPTArgs.Result
11	407	410	#line 407 "C:\Users\Sakeeb\Documents\School\Fall 2017\CSCC85\Phase 1\Phase1---Little-Lost-Robot\Distro\pfilter prob.nxc"
11	408	410		release __SPTArgsMutex
11	407	411	#line 407 "C:\Users\Sakeeb\Documents\School\Fall 2017\CSCC85\Phase 1\Phase1---Little-Lost-Robot\Distro\pfilter prob.nxc"
11	409	411	#line 409 "C:\Users\Sakeeb\Documents\School\Fall 2017\CSCC85\Phase 1\Phase1---Little-Lost-Robot\Distro\pfilter prob.nxc"
11	410	411		mov __D0robot_sense, __robot_sense_7qG2_bestColor_7qG2_000
11	409	413	#line 409 "C:\Users\Sakeeb\Documents\School\Fall 2017\CSCC85\Phase 1\Phase1---Little-Lost-Robot\Distro\pfilter prob.nxc"
11	410	413		subret __robot_sense_return
11	409	415	#line 409 "C:\Users\Sakeeb\Documents\School\Fall 2017\CSCC85\Phase 1\Phase1---Little-Lost-Robot\Distro\pfilter prob.nxc"
11	411	415	#line 411 "C:\Users\Sakeeb\Documents\School\Fall 2017\CSCC85\Phase 1\Phase1---Little-Lost-Robot\Distro\pfilter prob.nxc"
11	412	415		subret __robot_sense_return
12	412	0	#line 412 "C:\Users\Sakeeb\Documents\School\Fall 2017\CSCC85\Phase 1\Phase1---Little-Lost-Robot\Distro\pfilter prob.nxc"
12	413	0		set __robot_sense_7qG2_iter_7qG2_000, 200
12	412	3	#line 412 "C:\Users\Sakeeb\Documents\School\Fall 2017\CSCC85\Phase 1\Phase1---Little-Lost-Robot\Distro\pfilter prob.nxc"
12	412	3	#line 412 "C:\Users\Sakeeb\Documents\School\Fall 2017\CSCC85\Phase 1\Phase1---Little-Lost-Robot\Distro\pfilter prob.nxc"
12	413	3		subcall robot_sense, __robot_sense_return
12	412	6	#line 412 "C:\Users\Sakeeb\Documents\School\Fall 2017\CSCC85\Phase 1\Phase1---Little-Lost-Robot\Distro\pfilter prob.nxc"
12	413	6		mov __find_left_7qG2_fColor_7qG2_000, __D0robot_sense
12	412	8	#line 412 "C:\Users\Sakeeb\Documents\School\Fall 2017\CSCC85\Phase 1\Phase1---Little-Lost-Robot\Distro\pfilter prob.nxc"
12	413	8	#line 413 "C:\Users\Sakeeb\Documents\School\Fall 2017\CSCC85\Phase 1\Phase1---Little-Lost-Robot\Distro\pfilter prob.nxc"
12	414	8		set __find_left_7qG2_angle_7qG2_000, 0
12	413	11	#line 413 "C:\Users\Sakeeb\Documents\School\Fall 2017\CSCC85\Phase 1\Phase1---Little-Lost-Robot\Distro\pfilter prob.nxc"
12	413	11	#line 413 "C:\Users\Sakeeb\Documents\School\Fall 2017\CSCC85\Phase 1\Phase1---Little-Lost-Robot\Distro\pfilter prob.nxc"
12	414	11		mov __signed_stack_001find_left, __find_left_7qG2_fColor_7qG2_000
12	413	13	#line 413 "C:\Users\Sakeeb\Documents\School\Fall 2017\CSCC85\Phase 1\Phase1---Little-Lost-Robot\Distro\pfilter prob.nxc"
12	413	13	#line 413 "C:\Users\Sakeeb\Documents\School\Fall 2017\CSCC85\Phase 1\Phase1---Little-Lost-Robot\Distro\pfilter prob.nxc"
12	414	13		set __D0find_left, 1
12	413	16	#line 413 "C:\Users\Sakeeb\Documents\School\Fall 2017\CSCC85\Phase 1\Phase1---Little-Lost-Robot\Distro\pfilter prob.nxc"
12	414	16		cmp 4, __D0find_left, __signed_stack_001find_left, __D0find_left
12	413	20	#line 413 "C:\Users\Sakeeb\Documents\School\Fall 2017\CSCC85\Phase 1\Phase1---Little-Lost-Robot\Distro\pfilter prob.nxc"
12	414	20		brtst 5, __ASM_Label_1105, __D0find_left
12	413	23	#line 413 "C:\Users\Sakeeb\Documents\School\Fall 2017\CSCC85\Phase 1\Phase1---Little-Lost-Robot\Distro\pfilter prob.nxc"
12	414	23		mov __signed_stack_001find_left, __find_left_7qG2_fColor_7qG2_000
12	413	25	#line 413 "C:\Users\Sakeeb\Documents\School\Fall 2017\CSCC85\Phase 1\Phase1---Little-Lost-Robot\Distro\pfilter prob.nxc"
12	413	25	#line 413 "C:\Users\Sakeeb\Documents\School\Fall 2017\CSCC85\Phase 1\Phase1---Little-Lost-Robot\Distro\pfilter prob.nxc"
12	414	25		set __D0find_left, 4
12	413	28	#line 413 "C:\Users\Sakeeb\Documents\School\Fall 2017\CSCC85\Phase 1\Phase1---Little-Lost-Robot\Distro\pfilter prob.nxc"
12	414	28		cmp 4, __D0find_left, __signed_stack_001find_left, __D0find_left
12	414	32	#line 414 "C:\Users\Sakeeb\Documents\School\Fall 2017\CSCC85\Phase 1\Phase1---Little-Lost-Robot\Distro\pfilter prob.nxc"
12	415	32		brtst 4, __ASM_Label_1104, __D0find_left
12	414	35	#line 414 "C:\Users\Sakeeb\Documents\School\Fall 2017\CSCC85\Phase 1\Phase1---Little-Lost-Robot\Distro\pfilter prob.nxc"
12	415	35		set __turnLeft_7qG2_degree_7qG2_000, 6
12	414	38	#line 414 "C:\Users\Sakeeb\Documents\School\Fall 2017\CSCC85\Phase 1\Phase1---Little-Lost-Robot\Distro\pfilter prob.nxc"
12	415	38	#line 415 "C:\Users\Sakeeb\Documents\School\Fall 2017\CSCC85\Phase 1\Phase1---Little-Lost-Robot\Distro\pfilter prob.nxc"
12	416	38		subcall turnLeft, __turnLeft_return
12	415	41	#line 415 "C:\Users\Sakeeb\Documents\School\Fall 2017\CSCC85\Phase 1\Phase1---Little-Lost-Robot\Distro\pfilter prob.nxc"
12	415	41	#line 415 "C:\Users\Sakeeb\Documents\School\Fall 2017\CSCC85\Phase 1\Phase1---Little-Lost-Robot\Distro\pfilter prob.nxc"
12	416	41		set __robot_sense_7qG2_iter_7qG2_000, 200
12	415	44	#line 415 "C:\Users\Sakeeb\Documents\School\Fall 2017\CSCC85\Phase 1\Phase1---Little-Lost-Robot\Distro\pfilter prob.nxc"
12	417	44	#line 417 "C:\Users\Sakeeb\Documents\School\Fall 2017\CSCC85\Phase 1\Phase1---Little-Lost-Robot\Distro\pfilter prob.nxc"
12	418	44		subcall robot_sense, __robot_sense_return
12	417	47	#line 417 "C:\Users\Sakeeb\Documents\School\Fall 2017\CSCC85\Phase 1\Phase1---Little-Lost-Robot\Distro\pfilter prob.nxc"
12	418	47		mov __find_left_7qG2_fColor_7qG2_000, __D0robot_sense
12	417	49	#line 417 "C:\Users\Sakeeb\Documents\School\Fall 2017\CSCC85\Phase 1\Phase1---Little-Lost-Robot\Distro\pfilter prob.nxc"
12	417	49	#line 417 "C:\Users\Sakeeb\Documents\School\Fall 2017\CSCC85\Phase 1\Phase1---Little-Lost-Robot\Distro\pfilter prob.nxc"
12	417	49	#line 417 "C:\Users\Sakeeb\Documents\School\Fall 2017\CSCC85\Phase 1\Phase1---Little-Lost-Robot\Distro\pfilter prob.nxc"
12	418	49		mov __signed_stack_001find_left, __find_left_7qG2_fColor_7qG2_000
12	417	51	#line 417 "C:\Users\Sakeeb\Documents\School\Fall 2017\CSCC85\Phase 1\Phase1---Little-Lost-Robot\Distro\pfilter prob.nxc"
12	417	51	#line 417 "C:\Users\Sakeeb\Documents\School\Fall 2017\CSCC85\Phase 1\Phase1---Little-Lost-Robot\Distro\pfilter prob.nxc"
12	418	51		set __D0find_left, 3
12	417	54	#line 417 "C:\Users\Sakeeb\Documents\School\Fall 2017\CSCC85\Phase 1\Phase1---Little-Lost-Robot\Distro\pfilter prob.nxc"
12	418	54		cmp 4, __D0find_left, __signed_stack_001find_left, __D0find_left
12	417	58	#line 417 "C:\Users\Sakeeb\Documents\School\Fall 2017\CSCC85\Phase 1\Phase1---Little-Lost-Robot\Distro\pfilter prob.nxc"
12	418	58		brtst 5, __ASM_Label_1114, __D0find_left
12	417	61	#line 417 "C:\Users\Sakeeb\Documents\School\Fall 2017\CSCC85\Phase 1\Phase1---Little-Lost-Robot\Distro\pfilter prob.nxc"
12	418	61		mov __signed_stack_001find_left, __find_left_7qG2_fColor_7qG2_000
12	417	63	#line 417 "C:\Users\Sakeeb\Documents\School\Fall 2017\CSCC85\Phase 1\Phase1---Little-Lost-Robot\Distro\pfilter prob.nxc"
12	417	63	#line 417 "C:\Users\Sakeeb\Documents\School\Fall 2017\CSCC85\Phase 1\Phase1---Little-Lost-Robot\Distro\pfilter prob.nxc"
12	418	63		set __D0find_left, 2
12	417	66	#line 417 "C:\Users\Sakeeb\Documents\School\Fall 2017\CSCC85\Phase 1\Phase1---Little-Lost-Robot\Distro\pfilter prob.nxc"
12	418	66		cmp 4, __D0find_left, __signed_stack_001find_left, __D0find_left
12	417	70	#line 417 "C:\Users\Sakeeb\Documents\School\Fall 2017\CSCC85\Phase 1\Phase1---Little-Lost-Robot\Distro\pfilter prob.nxc"
12	418	70		brtst 5, __ASM_Label_1114, __D0find_left
12	417	73	#line 417 "C:\Users\Sakeeb\Documents\School\Fall 2017\CSCC85\Phase 1\Phase1---Little-Lost-Robot\Distro\pfilter prob.nxc"
12	418	73		mov __signed_stack_001find_left, __find_left_7qG2_fColor_7qG2_000
12	417	75	#line 417 "C:\Users\Sakeeb\Documents\School\Fall 2017\CSCC85\Phase 1\Phase1---Little-Lost-Robot\Distro\pfilter prob.nxc"
12	417	75	#line 417 "C:\Users\Sakeeb\Documents\School\Fall 2017\CSCC85\Phase 1\Phase1---Little-Lost-Robot\Distro\pfilter prob.nxc"
12	418	75		set __D0find_left, 6
12	417	78	#line 417 "C:\Users\Sakeeb\Documents\School\Fall 2017\CSCC85\Phase 1\Phase1---Little-Lost-Robot\Distro\pfilter prob.nxc"
12	418	78		cmp 4, __D0find_left, __signed_stack_001find_left, __D0find_left
12	418	82	#line 418 "C:\Users\Sakeeb\Documents\School\Fall 2017\CSCC85\Phase 1\Phase1---Little-Lost-Robot\Distro\pfilter prob.nxc"
12	419	82		brtst 4, __ASM_Label_1118, __D0find_left
12	418	85	#line 418 "C:\Users\Sakeeb\Documents\School\Fall 2017\CSCC85\Phase 1\Phase1---Little-Lost-Robot\Distro\pfilter prob.nxc"
12	419	85		set __turnLeft_7qG2_degree_7qG2_000, 6
12	418	88	#line 418 "C:\Users\Sakeeb\Documents\School\Fall 2017\CSCC85\Phase 1\Phase1---Little-Lost-Robot\Distro\pfilter prob.nxc"
12	419	88	#line 419 "C:\Users\Sakeeb\Documents\School\Fall 2017\CSCC85\Phase 1\Phase1---Little-Lost-Robot\Distro\pfilter prob.nxc"
12	420	88		subcall turnLeft, __turnLeft_return
12	419	91	#line 419 "C:\Users\Sakeeb\Documents\School\Fall 2017\CSCC85\Phase 1\Phase1---Little-Lost-Robot\Distro\pfilter prob.nxc"
12	419	91	#line 419 "C:\Users\Sakeeb\Documents\School\Fall 2017\CSCC85\Phase 1\Phase1---Little-Lost-Robot\Distro\pfilter prob.nxc"
12	420	91		set __robot_sense_7qG2_iter_7qG2_000, 200
12	419	94	#line 419 "C:\Users\Sakeeb\Documents\School\Fall 2017\CSCC85\Phase 1\Phase1---Little-Lost-Robot\Distro\pfilter prob.nxc"
12	420	94	#line 420 "C:\Users\Sakeeb\Documents\School\Fall 2017\CSCC85\Phase 1\Phase1---Little-Lost-Robot\Distro\pfilter prob.nxc"
12	421	94		subcall robot_sense, __robot_sense_return
12	420	97	#line 420 "C:\Users\Sakeeb\Documents\School\Fall 2017\CSCC85\Phase 1\Phase1---Little-Lost-Robot\Distro\pfilter prob.nxc"
12	421	97		mov __find_left_7qG2_fColor_7qG2_000, __D0robot_sense
12	420	99	#line 420 "C:\Users\Sakeeb\Documents\School\Fall 2017\CSCC85\Phase 1\Phase1---Little-Lost-Robot\Distro\pfilter prob.nxc"
12	420	99	#line 420 "C:\Users\Sakeeb\Documents\School\Fall 2017\CSCC85\Phase 1\Phase1---Little-Lost-Robot\Distro\pfilter prob.nxc"
12	422	99	#line 422 "C:\Users\Sakeeb\Documents\School\Fall 2017\CSCC85\Phase 1\Phase1---Little-Lost-Robot\Distro\pfilter prob.nxc"
12	422	99	#line 422 "C:\Users\Sakeeb\Documents\School\Fall 2017\CSCC85\Phase 1\Phase1---Little-Lost-Robot\Distro\pfilter prob.nxc"
12	423	99		jmp __ASM_Label_1103
12	422	101	#line 422 "C:\Users\Sakeeb\Documents\School\Fall 2017\CSCC85\Phase 1\Phase1---Little-Lost-Robot\Distro\pfilter prob.nxc"
12	422	101	#line 422 "C:\Users\Sakeeb\Documents\School\Fall 2017\CSCC85\Phase 1\Phase1---Little-Lost-Robot\Distro\pfilter prob.nxc"
12	423	101		set __Wait_7qG2_ms_7qG2_000_inline_find_left, 500
12	422	104	#line 422 "C:\Users\Sakeeb\Documents\School\Fall 2017\CSCC85\Phase 1\Phase1---Little-Lost-Robot\Distro\pfilter prob.nxc"
12	8551	104	#line 8551 "NXCDefs.h"
12	8552	104		wait2 NA, __Wait_7qG2_ms_7qG2_000_inline_find_left
12	8551	107	#line 8551 "NXCDefs.h"
12	423	107	#line 423 "C:\Users\Sakeeb\Documents\School\Fall 2017\CSCC85\Phase 1\Phase1---Little-Lost-Robot\Distro\pfilter prob.nxc"
12	424	107	#line 424 "C:\Users\Sakeeb\Documents\School\Fall 2017\CSCC85\Phase 1\Phase1---Little-Lost-Robot\Distro\pfilter prob.nxc"
12	425	107		mov __find_left_7qG2_rColor_7qG2_000, __find_left_7qG2_fColor_7qG2_000
12	424	109	#line 424 "C:\Users\Sakeeb\Documents\School\Fall 2017\CSCC85\Phase 1\Phase1---Little-Lost-Robot\Distro\pfilter prob.nxc"
12	424	109	#line 424 "C:\Users\Sakeeb\Documents\School\Fall 2017\CSCC85\Phase 1\Phase1---Little-Lost-Robot\Distro\pfilter prob.nxc"
12	424	109	#line 424 "C:\Users\Sakeeb\Documents\School\Fall 2017\CSCC85\Phase 1\Phase1---Little-Lost-Robot\Distro\pfilter prob.nxc"
12	425	109		mov __signed_stack_001find_left, __find_left_7qG2_rColor_7qG2_000
12	424	111	#line 424 "C:\Users\Sakeeb\Documents\School\Fall 2017\CSCC85\Phase 1\Phase1---Little-Lost-Robot\Distro\pfilter prob.nxc"
12	424	111	#line 424 "C:\Users\Sakeeb\Documents\School\Fall 2017\CSCC85\Phase 1\Phase1---Little-Lost-Robot\Distro\pfilter prob.nxc"
12	425	111		set __D0find_left, 1
12	424	114	#line 424 "C:\Users\Sakeeb\Documents\School\Fall 2017\CSCC85\Phase 1\Phase1---Little-Lost-Robot\Distro\pfilter prob.nxc"
12	425	114		cmp 5, __D0find_left, __signed_stack_001find_left, __D0find_left
12	424	118	#line 424 "C:\Users\Sakeeb\Documents\School\Fall 2017\CSCC85\Phase 1\Phase1---Little-Lost-Robot\Distro\pfilter prob.nxc"
12	425	118		brtst 4, __ASM_Label_1132, __D0find_left
12	424	121	#line 424 "C:\Users\Sakeeb\Documents\School\Fall 2017\CSCC85\Phase 1\Phase1---Little-Lost-Robot\Distro\pfilter prob.nxc"
12	425	121		mov __signed_stack_001find_left, __find_left_7qG2_angle_7qG2_000
12	424	123	#line 424 "C:\Users\Sakeeb\Documents\School\Fall 2017\CSCC85\Phase 1\Phase1---Little-Lost-Robot\Distro\pfilter prob.nxc"
12	424	123	#line 424 "C:\Users\Sakeeb\Documents\School\Fall 2017\CSCC85\Phase 1\Phase1---Little-Lost-Robot\Distro\pfilter prob.nxc"
12	425	123		set __D0find_left, 5
12	424	126	#line 424 "C:\Users\Sakeeb\Documents\School\Fall 2017\CSCC85\Phase 1\Phase1---Little-Lost-Robot\Distro\pfilter prob.nxc"
12	425	126		cmp 0, __D0find_left, __signed_stack_001find_left, __D0find_left
12	425	130	#line 425 "C:\Users\Sakeeb\Documents\School\Fall 2017\CSCC85\Phase 1\Phase1---Little-Lost-Robot\Distro\pfilter prob.nxc"
12	426	130		brtst 4, __ASM_Label_1130, __D0find_left
12	425	133	#line 425 "C:\Users\Sakeeb\Documents\School\Fall 2017\CSCC85\Phase 1\Phase1---Little-Lost-Robot\Distro\pfilter prob.nxc"
12	426	133		set __turnRight_7qG2_degree_7qG2_000, 6
12	425	136	#line 425 "C:\Users\Sakeeb\Documents\School\Fall 2017\CSCC85\Phase 1\Phase1---Little-Lost-Robot\Distro\pfilter prob.nxc"
12	426	136	#line 426 "C:\Users\Sakeeb\Documents\School\Fall 2017\CSCC85\Phase 1\Phase1---Little-Lost-Robot\Distro\pfilter prob.nxc"
12	427	136		subcall turnRight, __turnRight_return
12	426	139	#line 426 "C:\Users\Sakeeb\Documents\School\Fall 2017\CSCC85\Phase 1\Phase1---Little-Lost-Robot\Distro\pfilter prob.nxc"
12	426	139	#line 426 "C:\Users\Sakeeb\Documents\School\Fall 2017\CSCC85\Phase 1\Phase1---Little-Lost-Robot\Distro\pfilter prob.nxc"
12	427	139		set __robot_sense_7qG2_iter_7qG2_000, 200
12	426	142	#line 426 "C:\Users\Sakeeb\Documents\School\Fall 2017\CSCC85\Phase 1\Phase1---Little-Lost-Robot\Distro\pfilter prob.nxc"
12	427	142	#line 427 "C:\Users\Sakeeb\Documents\School\Fall 2017\CSCC85\Phase 1\Phase1---Little-Lost-Robot\Distro\pfilter prob.nxc"
12	428	142		subcall robot_sense, __robot_sense_return
12	427	145	#line 427 "C:\Users\Sakeeb\Documents\School\Fall 2017\CSCC85\Phase 1\Phase1---Little-Lost-Robot\Distro\pfilter prob.nxc"
12	428	145		mov __find_left_7qG2_rColor_7qG2_000, __D0robot_sense
12	427	147	#line 427 "C:\Users\Sakeeb\Documents\School\Fall 2017\CSCC85\Phase 1\Phase1---Little-Lost-Robot\Distro\pfilter prob.nxc"
12	427	147	#line 427 "C:\Users\Sakeeb\Documents\School\Fall 2017\CSCC85\Phase 1\Phase1---Little-Lost-Robot\Distro\pfilter prob.nxc"
12	428	147	#line 428 "C:\Users\Sakeeb\Documents\School\Fall 2017\CSCC85\Phase 1\Phase1---Little-Lost-Robot\Distro\pfilter prob.nxc"
12	429	147		add __find_left_7qG2_angle_7qG2_000, __find_left_7qG2_angle_7qG2_000, __constVal1
12	428	151	#line 428 "C:\Users\Sakeeb\Documents\School\Fall 2017\CSCC85\Phase 1\Phase1---Little-Lost-Robot\Distro\pfilter prob.nxc"
12	430	151	#line 430 "C:\Users\Sakeeb\Documents\School\Fall 2017\CSCC85\Phase 1\Phase1---Little-Lost-Robot\Distro\pfilter prob.nxc"
12	431	151		jmp __ASM_Label_1129
12	430	153	#line 430 "C:\Users\Sakeeb\Documents\School\Fall 2017\CSCC85\Phase 1\Phase1---Little-Lost-Robot\Distro\pfilter prob.nxc"
12	430	153	#line 430 "C:\Users\Sakeeb\Documents\School\Fall 2017\CSCC85\Phase 1\Phase1---Little-Lost-Robot\Distro\pfilter prob.nxc"
12	431	153		mov __signed_stack_001find_left, __find_left_7qG2_rColor_7qG2_000
12	430	155	#line 430 "C:\Users\Sakeeb\Documents\School\Fall 2017\CSCC85\Phase 1\Phase1---Little-Lost-Robot\Distro\pfilter prob.nxc"
12	430	155	#line 430 "C:\Users\Sakeeb\Documents\School\Fall 2017\CSCC85\Phase 1\Phase1---Little-Lost-Robot\Distro\pfilter prob.nxc"
12	431	155		set __D0find_left, 1
12	430	158	#line 430 "C:\Users\Sakeeb\Documents\School\Fall 2017\CSCC85\Phase 1\Phase1---Little-Lost-Robot\Distro\pfilter prob.nxc"
12	431	158		cmp 5, __D0find_left, __signed_stack_001find_left, __D0find_left
12	431	162	#line 431 "C:\Users\Sakeeb\Documents\School\Fall 2017\CSCC85\Phase 1\Phase1---Little-Lost-Robot\Distro\pfilter prob.nxc"
12	432	162		brtst 4, __ASM_Label_1140, __D0find_left
12	431	165	#line 431 "C:\Users\Sakeeb\Documents\School\Fall 2017\CSCC85\Phase 1\Phase1---Little-Lost-Robot\Distro\pfilter prob.nxc"
12	432	165		set __turnLeft_7qG2_degree_7qG2_000, 6
12	431	168	#line 431 "C:\Users\Sakeeb\Documents\School\Fall 2017\CSCC85\Phase 1\Phase1---Little-Lost-Robot\Distro\pfilter prob.nxc"
12	432	168	#line 432 "C:\Users\Sakeeb\Documents\School\Fall 2017\CSCC85\Phase 1\Phase1---Little-Lost-Robot\Distro\pfilter prob.nxc"
12	433	168		subcall turnLeft, __turnLeft_return
12	432	171	#line 432 "C:\Users\Sakeeb\Documents\School\Fall 2017\CSCC85\Phase 1\Phase1---Little-Lost-Robot\Distro\pfilter prob.nxc"
12	432	171	#line 432 "C:\Users\Sakeeb\Documents\School\Fall 2017\CSCC85\Phase 1\Phase1---Little-Lost-Robot\Distro\pfilter prob.nxc"
12	433	171		set __robot_sense_7qG2_iter_7qG2_000, 200
12	432	174	#line 432 "C:\Users\Sakeeb\Documents\School\Fall 2017\CSCC85\Phase 1\Phase1---Little-Lost-Robot\Distro\pfilter prob.nxc"
12	433	174	#line 433 "C:\Users\Sakeeb\Documents\School\Fall 2017\CSCC85\Phase 1\Phase1---Little-Lost-Robot\Distro\pfilter prob.nxc"
12	434	174		subcall robot_sense, __robot_sense_return
12	433	177	#line 433 "C:\Users\Sakeeb\Documents\School\Fall 2017\CSCC85\Phase 1\Phase1---Little-Lost-Robot\Distro\pfilter prob.nxc"
12	434	177		mov __find_left_7qG2_rColor_7qG2_000, __D0robot_sense
12	433	179	#line 433 "C:\Users\Sakeeb\Documents\School\Fall 2017\CSCC85\Phase 1\Phase1---Little-Lost-Robot\Distro\pfilter prob.nxc"
12	433	179	#line 433 "C:\Users\Sakeeb\Documents\School\Fall 2017\CSCC85\Phase 1\Phase1---Little-Lost-Robot\Distro\pfilter prob.nxc"
12	435	179	#line 435 "C:\Users\Sakeeb\Documents\School\Fall 2017\CSCC85\Phase 1\Phase1---Little-Lost-Robot\Distro\pfilter prob.nxc"
12	436	179		jmp __ASM_Label_1139
12	435	181	#line 435 "C:\Users\Sakeeb\Documents\School\Fall 2017\CSCC85\Phase 1\Phase1---Little-Lost-Robot\Distro\pfilter prob.nxc"
12	435	181	#line 435 "C:\Users\Sakeeb\Documents\School\Fall 2017\CSCC85\Phase 1\Phase1---Little-Lost-Robot\Distro\pfilter prob.nxc"
12	436	181		set __turnRight_7qG2_degree_7qG2_000, 6
12	435	184	#line 435 "C:\Users\Sakeeb\Documents\School\Fall 2017\CSCC85\Phase 1\Phase1---Little-Lost-Robot\Distro\pfilter prob.nxc"
12	436	184	#line 436 "C:\Users\Sakeeb\Documents\School\Fall 2017\CSCC85\Phase 1\Phase1---Little-Lost-Robot\Distro\pfilter prob.nxc"
12	437	184		subcall turnRight, __turnRight_return
12	436	187	#line 436 "C:\Users\Sakeeb\Documents\School\Fall 2017\CSCC85\Phase 1\Phase1---Little-Lost-Robot\Distro\pfilter prob.nxc"
12	437	187	#line 437 "C:\Users\Sakeeb\Documents\School\Fall 2017\CSCC85\Phase 1\Phase1---Little-Lost-Robot\Distro\pfilter prob.nxc"
12	438	187		mov __D0find_left, __find_left_7qG2_fColor_7qG2_000
12	437	189	#line 437 "C:\Users\Sakeeb\Documents\School\Fall 2017\CSCC85\Phase 1\Phase1---Little-Lost-Robot\Distro\pfilter prob.nxc"
12	438	189		subret __find_left_return
12	437	191	#line 437 "C:\Users\Sakeeb\Documents\School\Fall 2017\CSCC85\Phase 1\Phase1---Little-Lost-Robot\Distro\pfilter prob.nxc"
12	439	191	#line 439 "C:\Users\Sakeeb\Documents\School\Fall 2017\CSCC85\Phase 1\Phase1---Little-Lost-Robot\Distro\pfilter prob.nxc"
12	440	191		subret __find_left_return
13	440	0	#line 440 "C:\Users\Sakeeb\Documents\School\Fall 2017\CSCC85\Phase 1\Phase1---Little-Lost-Robot\Distro\pfilter prob.nxc"
13	441	0		set __robot_sense_7qG2_iter_7qG2_000, 200
13	440	3	#line 440 "C:\Users\Sakeeb\Documents\School\Fall 2017\CSCC85\Phase 1\Phase1---Little-Lost-Robot\Distro\pfilter prob.nxc"
13	440	3	#line 440 "C:\Users\Sakeeb\Documents\School\Fall 2017\CSCC85\Phase 1\Phase1---Little-Lost-Robot\Distro\pfilter prob.nxc"
13	441	3		subcall robot_sense, __robot_sense_return
13	440	6	#line 440 "C:\Users\Sakeeb\Documents\School\Fall 2017\CSCC85\Phase 1\Phase1---Little-Lost-Robot\Distro\pfilter prob.nxc"
13	441	6		mov __find_right_7qG2_fColor_7qG2_000, __D0robot_sense
13	440	8	#line 440 "C:\Users\Sakeeb\Documents\School\Fall 2017\CSCC85\Phase 1\Phase1---Little-Lost-Robot\Distro\pfilter prob.nxc"
13	441	8	#line 441 "C:\Users\Sakeeb\Documents\School\Fall 2017\CSCC85\Phase 1\Phase1---Little-Lost-Robot\Distro\pfilter prob.nxc"
13	442	8		set __find_right_7qG2_angle_7qG2_000, 0
13	441	11	#line 441 "C:\Users\Sakeeb\Documents\School\Fall 2017\CSCC85\Phase 1\Phase1---Little-Lost-Robot\Distro\pfilter prob.nxc"
13	441	11	#line 441 "C:\Users\Sakeeb\Documents\School\Fall 2017\CSCC85\Phase 1\Phase1---Little-Lost-Robot\Distro\pfilter prob.nxc"
13	442	11		mov __signed_stack_001find_right, __find_right_7qG2_fColor_7qG2_000
13	441	13	#line 441 "C:\Users\Sakeeb\Documents\School\Fall 2017\CSCC85\Phase 1\Phase1---Little-Lost-Robot\Distro\pfilter prob.nxc"
13	441	13	#line 441 "C:\Users\Sakeeb\Documents\School\Fall 2017\CSCC85\Phase 1\Phase1---Little-Lost-Robot\Distro\pfilter prob.nxc"
13	442	13		set __D0find_right, 1
13	441	16	#line 441 "C:\Users\Sakeeb\Documents\School\Fall 2017\CSCC85\Phase 1\Phase1---Little-Lost-Robot\Distro\pfilter prob.nxc"
13	442	16		cmp 4, __D0find_right, __signed_stack_001find_right, __D0find_right
13	441	20	#line 441 "C:\Users\Sakeeb\Documents\School\Fall 2017\CSCC85\Phase 1\Phase1---Little-Lost-Robot\Distro\pfilter prob.nxc"
13	442	20		brtst 5, __ASM_Label_1161, __D0find_right
13	441	23	#line 441 "C:\Users\Sakeeb\Documents\School\Fall 2017\CSCC85\Phase 1\Phase1---Little-Lost-Robot\Distro\pfilter prob.nxc"
13	442	23		mov __signed_stack_001find_right, __find_right_7qG2_fColor_7qG2_000
13	441	25	#line 441 "C:\Users\Sakeeb\Documents\School\Fall 2017\CSCC85\Phase 1\Phase1---Little-Lost-Robot\Distro\pfilter prob.nxc"
13	441	25	#line 441 "C:\Users\Sakeeb\Documents\School\Fall 2017\CSCC85\Phase 1\Phase1---Little-Lost-Robot\Distro\pfilter prob.nxc"
13	442	25		set __D0find_right, 4
13	441	28	#line 441 "C:\Users\Sakeeb\Documents\School\Fall 2017\CSCC85\Phase 1\Phase1---Little-Lost-Robot\Distro\pfilter prob.nxc"
13	442	28		cmp 4, __D0find_right, __signed_stack_001find_right, __D0find_right
13	442	32	#line 442 "C:\Users\Sakeeb\Documents\School\Fall 2017\CSCC85\Phase 1\Phase1---Little-Lost-Robot\Distro\pfilter prob.nxc"
13	443	32		brtst 4, __ASM_Label_1160, __D0find_right
13	442	35	#line 442 "C:\Users\Sakeeb\Documents\School\Fall 2017\CSCC85\Phase 1\Phase1---Little-Lost-Robot\Distro\pfilter prob.nxc"
13	443	35		set __turnRight_7qG2_degree_7qG2_000, 6
13	442	38	#line 442 "C:\Users\Sakeeb\Documents\School\Fall 2017\CSCC85\Phase 1\Phase1---Little-Lost-Robot\Distro\pfilter prob.nxc"
13	443	38	#line 443 "C:\Users\Sakeeb\Documents\School\Fall 2017\CSCC85\Phase 1\Phase1---Little-Lost-Robot\Distro\pfilter prob.nxc"
13	444	38		subcall turnRight, __turnRight_return
13	443	41	#line 443 "C:\Users\Sakeeb\Documents\School\Fall 2017\CSCC85\Phase 1\Phase1---Little-Lost-Robot\Distro\pfilter prob.nxc"
13	443	41	#line 443 "C:\Users\Sakeeb\Documents\School\Fall 2017\CSCC85\Phase 1\Phase1---Little-Lost-Robot\Distro\pfilter prob.nxc"
13	444	41		set __robot_sense_7qG2_iter_7qG2_000, 200
13	443	44	#line 443 "C:\Users\Sakeeb\Documents\School\Fall 2017\CSCC85\Phase 1\Phase1---Little-Lost-Robot\Distro\pfilter prob.nxc"
13	444	44	#line 444 "C:\Users\Sakeeb\Documents\School\Fall 2017\CSCC85\Phase 1\Phase1---Little-Lost-Robot\Distro\pfilter prob.nxc"
13	445	44		subcall robot_sense, __robot_sense_return
13	444	47	#line 444 "C:\Users\Sakeeb\Documents\School\Fall 2017\CSCC85\Phase 1\Phase1---Little-Lost-Robot\Distro\pfilter prob.nxc"
13	445	47		mov __find_right_7qG2_fColor_7qG2_000, __D0robot_sense
13	444	49	#line 444 "C:\Users\Sakeeb\Documents\School\Fall 2017\CSCC85\Phase 1\Phase1---Little-Lost-Robot\Distro\pfilter prob.nxc"
13	444	49	#line 444 "C:\Users\Sakeeb\Documents\School\Fall 2017\CSCC85\Phase 1\Phase1---Little-Lost-Robot\Distro\pfilter prob.nxc"
13	445	49	#line 445 "C:\Users\Sakeeb\Documents\School\Fall 2017\CSCC85\Phase 1\Phase1---Little-Lost-Robot\Distro\pfilter prob.nxc"
13	446	49		jmp __ASM_Label_1159
13	445	51	#line 445 "C:\Users\Sakeeb\Documents\School\Fall 2017\CSCC85\Phase 1\Phase1---Little-Lost-Robot\Distro\pfilter prob.nxc"
13	445	51	#line 445 "C:\Users\Sakeeb\Documents\School\Fall 2017\CSCC85\Phase 1\Phase1---Little-Lost-Robot\Distro\pfilter prob.nxc"
13	446	51		set __Wait_7qG2_ms_7qG2_000_inline_find_right, 500
13	445	54	#line 445 "C:\Users\Sakeeb\Documents\School\Fall 2017\CSCC85\Phase 1\Phase1---Little-Lost-Robot\Distro\pfilter prob.nxc"
13	8551	54	#line 8551 "NXCDefs.h"
13	8552	54		wait2 NA, __Wait_7qG2_ms_7qG2_000_inline_find_right
13	8551	57	#line 8551 "NXCDefs.h"
13	446	57	#line 446 "C:\Users\Sakeeb\Documents\School\Fall 2017\CSCC85\Phase 1\Phase1---Little-Lost-Robot\Distro\pfilter prob.nxc"
13	447	57	#line 447 "C:\Users\Sakeeb\Documents\School\Fall 2017\CSCC85\Phase 1\Phase1---Little-Lost-Robot\Distro\pfilter prob.nxc"
13	448	57		mov __find_right_7qG2_rColor_7qG2_000, __find_right_7qG2_fColor_7qG2_000
13	447	59	#line 447 "C:\Users\Sakeeb\Documents\School\Fall 2017\CSCC85\Phase 1\Phase1---Little-Lost-Robot\Distro\pfilter prob.nxc"
13	447	59	#line 447 "C:\Users\Sakeeb\Documents\School\Fall 2017\CSCC85\Phase 1\Phase1---Little-Lost-Robot\Distro\pfilter prob.nxc"
13	447	59	#line 447 "C:\Users\Sakeeb\Documents\School\Fall 2017\CSCC85\Phase 1\Phase1---Little-Lost-Robot\Distro\pfilter prob.nxc"
13	448	59		mov __signed_stack_001find_right, __find_right_7qG2_rColor_7qG2_000
13	447	61	#line 447 "C:\Users\Sakeeb\Documents\School\Fall 2017\CSCC85\Phase 1\Phase1---Little-Lost-Robot\Distro\pfilter prob.nxc"
13	447	61	#line 447 "C:\Users\Sakeeb\Documents\School\Fall 2017\CSCC85\Phase 1\Phase1---Little-Lost-Robot\Distro\pfilter prob.nxc"
13	448	61		set __D0find_right, 1
13	447	64	#line 447 "C:\Users\Sakeeb\Documents\School\Fall 2017\CSCC85\Phase 1\Phase1---Little-Lost-Robot\Distro\pfilter prob.nxc"
13	448	64		cmp 5, __D0find_right, __signed_stack_001find_right, __D0find_right
13	447	68	#line 447 "C:\Users\Sakeeb\Documents\School\Fall 2017\CSCC85\Phase 1\Phase1---Little-Lost-Robot\Distro\pfilter prob.nxc"
13	448	68		brtst 4, __ASM_Label_1177, __D0find_right
13	447	71	#line 447 "C:\Users\Sakeeb\Documents\School\Fall 2017\CSCC85\Phase 1\Phase1---Little-Lost-Robot\Distro\pfilter prob.nxc"
13	448	71		mov __signed_stack_001find_right, __find_right_7qG2_angle_7qG2_000
13	447	73	#line 447 "C:\Users\Sakeeb\Documents\School\Fall 2017\CSCC85\Phase 1\Phase1---Little-Lost-Robot\Distro\pfilter prob.nxc"
13	447	73	#line 447 "C:\Users\Sakeeb\Documents\School\Fall 2017\CSCC85\Phase 1\Phase1---Little-Lost-Robot\Distro\pfilter prob.nxc"
13	448	73		set __D0find_right, 5
13	447	76	#line 447 "C:\Users\Sakeeb\Documents\School\Fall 2017\CSCC85\Phase 1\Phase1---Little-Lost-Robot\Distro\pfilter prob.nxc"
13	448	76		cmp 0, __D0find_right, __signed_stack_001find_right, __D0find_right
13	448	80	#line 448 "C:\Users\Sakeeb\Documents\School\Fall 2017\CSCC85\Phase 1\Phase1---Little-Lost-Robot\Distro\pfilter prob.nxc"
13	449	80		brtst 4, __ASM_Label_1175, __D0find_right
13	448	83	#line 448 "C:\Users\Sakeeb\Documents\School\Fall 2017\CSCC85\Phase 1\Phase1---Little-Lost-Robot\Distro\pfilter prob.nxc"
13	449	83		set __turnLeft_7qG2_degree_7qG2_000, 6
13	448	86	#line 448 "C:\Users\Sakeeb\Documents\School\Fall 2017\CSCC85\Phase 1\Phase1---Little-Lost-Robot\Distro\pfilter prob.nxc"
13	449	86	#line 449 "C:\Users\Sakeeb\Documents\School\Fall 2017\CSCC85\Phase 1\Phase1---Little-Lost-Robot\Distro\pfilter prob.nxc"
13	450	86		subcall turnLeft, __turnLeft_return
13	449	89	#line 449 "C:\Users\Sakeeb\Documents\School\Fall 2017\CSCC85\Phase 1\Phase1---Little-Lost-Robot\Distro\pfilter prob.nxc"
13	449	89	#line 449 "C:\Users\Sakeeb\Documents\School\Fall 2017\CSCC85\Phase 1\Phase1---Little-Lost-Robot\Distro\pfilter prob.nxc"
13	450	89		set __robot_sense_7qG2_iter_7qG2_000, 200
13	449	92	#line 449 "C:\Users\Sakeeb\Documents\School\Fall 2017\CSCC85\Phase 1\Phase1---Little-Lost-Robot\Distro\pfilter prob.nxc"
13	450	92	#line 450 "C:\Users\Sakeeb\Documents\School\Fall 2017\CSCC85\Phase 1\Phase1---Little-Lost-Robot\Distro\pfilter prob.nxc"
13	451	92		subcall robot_sense, __robot_sense_return
13	450	95	#line 450 "C:\Users\Sakeeb\Documents\School\Fall 2017\CSCC85\Phase 1\Phase1---Little-Lost-Robot\Distro\pfilter prob.nxc"
13	451	95		mov __find_right_7qG2_rColor_7qG2_000, __D0robot_sense
13	450	97	#line 450 "C:\Users\Sakeeb\Documents\School\Fall 2017\CSCC85\Phase 1\Phase1---Little-Lost-Robot\Distro\pfilter prob.nxc"
13	450	97	#line 450 "C:\Users\Sakeeb\Documents\School\Fall 2017\CSCC85\Phase 1\Phase1---Little-Lost-Robot\Distro\pfilter prob.nxc"
13	451	97	#line 451 "C:\Users\Sakeeb\Documents\School\Fall 2017\CSCC85\Phase 1\Phase1---Little-Lost-Robot\Distro\pfilter prob.nxc"
13	452	97		add __find_right_7qG2_angle_7qG2_000, __find_right_7qG2_angle_7qG2_000, __constVal1
13	451	101	#line 451 "C:\Users\Sakeeb\Documents\School\Fall 2017\CSCC85\Phase 1\Phase1---Little-Lost-Robot\Distro\pfilter prob.nxc"
13	453	101	#line 453 "C:\Users\Sakeeb\Documents\School\Fall 2017\CSCC85\Phase 1\Phase1---Little-Lost-Robot\Distro\pfilter prob.nxc"
13	454	101		jmp __ASM_Label_1174
13	453	103	#line 453 "C:\Users\Sakeeb\Documents\School\Fall 2017\CSCC85\Phase 1\Phase1---Little-Lost-Robot\Distro\pfilter prob.nxc"
13	453	103	#line 453 "C:\Users\Sakeeb\Documents\School\Fall 2017\CSCC85\Phase 1\Phase1---Little-Lost-Robot\Distro\pfilter prob.nxc"
13	454	103		mov __signed_stack_001find_right, __find_right_7qG2_rColor_7qG2_000
13	453	105	#line 453 "C:\Users\Sakeeb\Documents\School\Fall 2017\CSCC85\Phase 1\Phase1---Little-Lost-Robot\Distro\pfilter prob.nxc"
13	453	105	#line 453 "C:\Users\Sakeeb\Documents\School\Fall 2017\CSCC85\Phase 1\Phase1---Little-Lost-Robot\Distro\pfilter prob.nxc"
13	454	105		set __D0find_right, 1
13	453	108	#line 453 "C:\Users\Sakeeb\Documents\School\Fall 2017\CSCC85\Phase 1\Phase1---Little-Lost-Robot\Distro\pfilter prob.nxc"
13	454	108		cmp 5, __D0find_right, __signed_stack_001find_right, __D0find_right
13	454	112	#line 454 "C:\Users\Sakeeb\Documents\School\Fall 2017\CSCC85\Phase 1\Phase1---Little-Lost-Robot\Distro\pfilter prob.nxc"
13	455	112		brtst 4, __ASM_Label_1185, __D0find_right
13	454	115	#line 454 "C:\Users\Sakeeb\Documents\School\Fall 2017\CSCC85\Phase 1\Phase1---Little-Lost-Robot\Distro\pfilter prob.nxc"
13	455	115		set __turnRight_7qG2_degree_7qG2_000, 6
13	454	118	#line 454 "C:\Users\Sakeeb\Documents\School\Fall 2017\CSCC85\Phase 1\Phase1---Little-Lost-Robot\Distro\pfilter prob.nxc"
13	455	118	#line 455 "C:\Users\Sakeeb\Documents\School\Fall 2017\CSCC85\Phase 1\Phase1---Little-Lost-Robot\Distro\pfilter prob.nxc"
13	456	118		subcall turnRight, __turnRight_return
13	455	121	#line 455 "C:\Users\Sakeeb\Documents\School\Fall 2017\CSCC85\Phase 1\Phase1---Little-Lost-Robot\Distro\pfilter prob.nxc"
13	455	121	#line 455 "C:\Users\Sakeeb\Documents\School\Fall 2017\CSCC85\Phase 1\Phase1---Little-Lost-Robot\Distro\pfilter prob.nxc"
13	456	121		set __robot_sense_7qG2_iter_7qG2_000, 200
13	455	124	#line 455 "C:\Users\Sakeeb\Documents\School\Fall 2017\CSCC85\Phase 1\Phase1---Little-Lost-Robot\Distro\pfilter prob.nxc"
13	456	124	#line 456 "C:\Users\Sakeeb\Documents\School\Fall 2017\CSCC85\Phase 1\Phase1---Little-Lost-Robot\Distro\pfilter prob.nxc"
13	457	124		subcall robot_sense, __robot_sense_return
13	456	127	#line 456 "C:\Users\Sakeeb\Documents\School\Fall 2017\CSCC85\Phase 1\Phase1---Little-Lost-Robot\Distro\pfilter prob.nxc"
13	457	127		mov __find_right_7qG2_rColor_7qG2_000, __D0robot_sense
13	456	129	#line 456 "C:\Users\Sakeeb\Documents\School\Fall 2017\CSCC85\Phase 1\Phase1---Little-Lost-Robot\Distro\pfilter prob.nxc"
13	456	129	#line 456 "C:\Users\Sakeeb\Documents\School\Fall 2017\CSCC85\Phase 1\Phase1---Little-Lost-Robot\Distro\pfilter prob.nxc"
13	458	129	#line 458 "C:\Users\Sakeeb\Documents\School\Fall 2017\CSCC85\Phase 1\Phase1---Little-Lost-Robot\Distro\pfilter prob.nxc"
13	459	129		jmp __ASM_Label_1184
13	458	131	#line 458 "C:\Users\Sakeeb\Documents\School\Fall 2017\CSCC85\Phase 1\Phase1---Little-Lost-Robot\Distro\pfilter prob.nxc"
13	458	131	#line 458 "C:\Users\Sakeeb\Documents\School\Fall 2017\CSCC85\Phase 1\Phase1---Little-Lost-Robot\Distro\pfilter prob.nxc"
13	459	131		set __turnLeft_7qG2_degree_7qG2_000, 6
13	458	134	#line 458 "C:\Users\Sakeeb\Documents\School\Fall 2017\CSCC85\Phase 1\Phase1---Little-Lost-Robot\Distro\pfilter prob.nxc"
13	459	134	#line 459 "C:\Users\Sakeeb\Documents\School\Fall 2017\CSCC85\Phase 1\Phase1---Little-Lost-Robot\Distro\pfilter prob.nxc"
13	460	134		subcall turnLeft, __turnLeft_return
13	459	137	#line 459 "C:\Users\Sakeeb\Documents\School\Fall 2017\CSCC85\Phase 1\Phase1---Little-Lost-Robot\Distro\pfilter prob.nxc"
13	460	137	#line 460 "C:\Users\Sakeeb\Documents\School\Fall 2017\CSCC85\Phase 1\Phase1---Little-Lost-Robot\Distro\pfilter prob.nxc"
13	461	137		mov __D0find_right, __find_right_7qG2_fColor_7qG2_000
13	460	139	#line 460 "C:\Users\Sakeeb\Documents\School\Fall 2017\CSCC85\Phase 1\Phase1---Little-Lost-Robot\Distro\pfilter prob.nxc"
13	461	139		subret __find_right_return
13	460	141	#line 460 "C:\Users\Sakeeb\Documents\School\Fall 2017\CSCC85\Phase 1\Phase1---Little-Lost-Robot\Distro\pfilter prob.nxc"
13	462	141	#line 462 "C:\Users\Sakeeb\Documents\School\Fall 2017\CSCC85\Phase 1\Phase1---Little-Lost-Robot\Distro\pfilter prob.nxc"
13	463	141		subret __find_right_return
14	463	0	#line 463 "C:\Users\Sakeeb\Documents\School\Fall 2017\CSCC85\Phase 1\Phase1---Little-Lost-Robot\Distro\pfilter prob.nxc"
14	464	0		set __adjust_7qG2_miss_7qG2_000, 10
14	463	3	#line 463 "C:\Users\Sakeeb\Documents\School\Fall 2017\CSCC85\Phase 1\Phase1---Little-Lost-Robot\Distro\pfilter prob.nxc"
14	465	3	#line 465 "C:\Users\Sakeeb\Documents\School\Fall 2017\CSCC85\Phase 1\Phase1---Little-Lost-Robot\Distro\pfilter prob.nxc"
14	466	3		set __D0adjust, 1
14	466	6	#line 466 "C:\Users\Sakeeb\Documents\School\Fall 2017\CSCC85\Phase 1\Phase1---Little-Lost-Robot\Distro\pfilter prob.nxc"
14	467	6		tst 5, __D0adjust, __D0adjust
14	466	9	#line 466 "C:\Users\Sakeeb\Documents\School\Fall 2017\CSCC85\Phase 1\Phase1---Little-Lost-Robot\Distro\pfilter prob.nxc"
14	467	9		brtst 4, __ASM_Label_1201, __D0adjust
14	467	12	#line 467 "C:\Users\Sakeeb\Documents\School\Fall 2017\CSCC85\Phase 1\Phase1---Little-Lost-Robot\Distro\pfilter prob.nxc"
14	468	12		set __adjust_7qG2_angle_7qG2_000, 1
14	467	15	#line 467 "C:\Users\Sakeeb\Documents\School\Fall 2017\CSCC85\Phase 1\Phase1---Little-Lost-Robot\Distro\pfilter prob.nxc"
14	467	15	#line 467 "C:\Users\Sakeeb\Documents\School\Fall 2017\CSCC85\Phase 1\Phase1---Little-Lost-Robot\Distro\pfilter prob.nxc"
14	467	15	#line 467 "C:\Users\Sakeeb\Documents\School\Fall 2017\CSCC85\Phase 1\Phase1---Little-Lost-Robot\Distro\pfilter prob.nxc"
14	468	15		mov __signed_stack_001adjust, __adjust_7qG2_angle_7qG2_000
14	467	17	#line 467 "C:\Users\Sakeeb\Documents\School\Fall 2017\CSCC85\Phase 1\Phase1---Little-Lost-Robot\Distro\pfilter prob.nxc"
14	467	17	#line 467 "C:\Users\Sakeeb\Documents\School\Fall 2017\CSCC85\Phase 1\Phase1---Little-Lost-Robot\Distro\pfilter prob.nxc"
14	468	17		mov __D0adjust, __adjust_7qG2_miss_7qG2_000
14	467	19	#line 467 "C:\Users\Sakeeb\Documents\School\Fall 2017\CSCC85\Phase 1\Phase1---Little-Lost-Robot\Distro\pfilter prob.nxc"
14	468	19		cmp 0, __D0adjust, __signed_stack_001adjust, __D0adjust
14	469	23	#line 469 "C:\Users\Sakeeb\Documents\School\Fall 2017\CSCC85\Phase 1\Phase1---Little-Lost-Robot\Distro\pfilter prob.nxc"
14	470	23		brtst 4, __ASM_Label_1207, __D0adjust
14	469	26	#line 469 "C:\Users\Sakeeb\Documents\School\Fall 2017\CSCC85\Phase 1\Phase1---Little-Lost-Robot\Distro\pfilter prob.nxc"
14	470	26		set __turnRight_7qG2_degree_7qG2_000, 3
14	469	29	#line 469 "C:\Users\Sakeeb\Documents\School\Fall 2017\CSCC85\Phase 1\Phase1---Little-Lost-Robot\Distro\pfilter prob.nxc"
14	470	29	#line 470 "C:\Users\Sakeeb\Documents\School\Fall 2017\CSCC85\Phase 1\Phase1---Little-Lost-Robot\Distro\pfilter prob.nxc"
14	471	29		subcall turnRight, __turnRight_return
14	470	32	#line 470 "C:\Users\Sakeeb\Documents\School\Fall 2017\CSCC85\Phase 1\Phase1---Little-Lost-Robot\Distro\pfilter prob.nxc"
14	470	32	#line 470 "C:\Users\Sakeeb\Documents\School\Fall 2017\CSCC85\Phase 1\Phase1---Little-Lost-Robot\Distro\pfilter prob.nxc"
14	471	32		set __robot_sense_7qG2_iter_7qG2_000, 200
14	470	35	#line 470 "C:\Users\Sakeeb\Documents\School\Fall 2017\CSCC85\Phase 1\Phase1---Little-Lost-Robot\Distro\pfilter prob.nxc"
14	471	35	#line 471 "C:\Users\Sakeeb\Documents\School\Fall 2017\CSCC85\Phase 1\Phase1---Little-Lost-Robot\Distro\pfilter prob.nxc"
14	472	35		subcall robot_sense, __robot_sense_return
14	471	38	#line 471 "C:\Users\Sakeeb\Documents\School\Fall 2017\CSCC85\Phase 1\Phase1---Little-Lost-Robot\Distro\pfilter prob.nxc"
14	472	38		mov __adjust_7qG2_c_7qG2_000, __D0robot_sense
14	471	40	#line 471 "C:\Users\Sakeeb\Documents\School\Fall 2017\CSCC85\Phase 1\Phase1---Little-Lost-Robot\Distro\pfilter prob.nxc"
14	471	40	#line 471 "C:\Users\Sakeeb\Documents\School\Fall 2017\CSCC85\Phase 1\Phase1---Little-Lost-Robot\Distro\pfilter prob.nxc"
14	471	40	#line 471 "C:\Users\Sakeeb\Documents\School\Fall 2017\CSCC85\Phase 1\Phase1---Little-Lost-Robot\Distro\pfilter prob.nxc"
14	472	40		mov __signed_stack_001adjust, __adjust_7qG2_c_7qG2_000
14	471	42	#line 471 "C:\Users\Sakeeb\Documents\School\Fall 2017\CSCC85\Phase 1\Phase1---Little-Lost-Robot\Distro\pfilter prob.nxc"
14	471	42	#line 471 "C:\Users\Sakeeb\Documents\School\Fall 2017\CSCC85\Phase 1\Phase1---Little-Lost-Robot\Distro\pfilter prob.nxc"
14	472	42		set __D0adjust, 6
14	471	45	#line 471 "C:\Users\Sakeeb\Documents\School\Fall 2017\CSCC85\Phase 1\Phase1---Little-Lost-Robot\Distro\pfilter prob.nxc"
14	472	45		cmp 4, __D0adjust, __signed_stack_001adjust, __D0adjust
14	472	49	#line 472 "C:\Users\Sakeeb\Documents\School\Fall 2017\CSCC85\Phase 1\Phase1---Little-Lost-Robot\Distro\pfilter prob.nxc"
14	473	49		brtst 4, __ASM_Label_1218, __D0adjust
14	472	52	#line 472 "C:\Users\Sakeeb\Documents\School\Fall 2017\CSCC85\Phase 1\Phase1---Little-Lost-Robot\Distro\pfilter prob.nxc"
14	473	52		set __moveForward_7qG2_seconds_7qG2_000, 1
14	472	55	#line 472 "C:\Users\Sakeeb\Documents\School\Fall 2017\CSCC85\Phase 1\Phase1---Little-Lost-Robot\Distro\pfilter prob.nxc"
14	473	55	#line 473 "C:\Users\Sakeeb\Documents\School\Fall 2017\CSCC85\Phase 1\Phase1---Little-Lost-Robot\Distro\pfilter prob.nxc"
14	474	55		subcall moveForward, __moveForward_return
14	473	58	#line 473 "C:\Users\Sakeeb\Documents\School\Fall 2017\CSCC85\Phase 1\Phase1---Little-Lost-Robot\Distro\pfilter prob.nxc"
14	473	58	#line 473 "C:\Users\Sakeeb\Documents\School\Fall 2017\CSCC85\Phase 1\Phase1---Little-Lost-Robot\Distro\pfilter prob.nxc"
14	474	58		set __robot_sense_7qG2_iter_7qG2_000, 200
14	473	61	#line 473 "C:\Users\Sakeeb\Documents\School\Fall 2017\CSCC85\Phase 1\Phase1---Little-Lost-Robot\Distro\pfilter prob.nxc"
14	474	61	#line 474 "C:\Users\Sakeeb\Documents\School\Fall 2017\CSCC85\Phase 1\Phase1---Little-Lost-Robot\Distro\pfilter prob.nxc"
14	475	61		subcall robot_sense, __robot_sense_return
14	474	64	#line 474 "C:\Users\Sakeeb\Documents\School\Fall 2017\CSCC85\Phase 1\Phase1---Little-Lost-Robot\Distro\pfilter prob.nxc"
14	475	64		mov __adjust_7qG2_c2_7qG2_000, __D0robot_sense
14	474	66	#line 474 "C:\Users\Sakeeb\Documents\School\Fall 2017\CSCC85\Phase 1\Phase1---Little-Lost-Robot\Distro\pfilter prob.nxc"
14	474	66	#line 474 "C:\Users\Sakeeb\Documents\School\Fall 2017\CSCC85\Phase 1\Phase1---Little-Lost-Robot\Distro\pfilter prob.nxc"
14	474	66	#line 474 "C:\Users\Sakeeb\Documents\School\Fall 2017\CSCC85\Phase 1\Phase1---Little-Lost-Robot\Distro\pfilter prob.nxc"
14	475	66		mov __signed_stack_001adjust, __adjust_7qG2_c2_7qG2_000
14	474	68	#line 474 "C:\Users\Sakeeb\Documents\School\Fall 2017\CSCC85\Phase 1\Phase1---Little-Lost-Robot\Distro\pfilter prob.nxc"
14	474	68	#line 474 "C:\Users\Sakeeb\Documents\School\Fall 2017\CSCC85\Phase 1\Phase1---Little-Lost-Robot\Distro\pfilter prob.nxc"
14	475	68		set __D0adjust, 4
14	474	71	#line 474 "C:\Users\Sakeeb\Documents\School\Fall 2017\CSCC85\Phase 1\Phase1---Little-Lost-Robot\Distro\pfilter prob.nxc"
14	475	71		cmp 4, __D0adjust, __signed_stack_001adjust, __D0adjust
14	475	75	#line 475 "C:\Users\Sakeeb\Documents\School\Fall 2017\CSCC85\Phase 1\Phase1---Little-Lost-Robot\Distro\pfilter prob.nxc"
14	476	75		brtst 4, __ASM_Label_1227, __D0adjust
14	476	78	#line 476 "C:\Users\Sakeeb\Documents\School\Fall 2017\CSCC85\Phase 1\Phase1---Little-Lost-Robot\Distro\pfilter prob.nxc"
14	477	78		mov __adjust_7qG2_c_7qG2_000, __adjust_7qG2_c2_7qG2_000
14	476	80	#line 476 "C:\Users\Sakeeb\Documents\School\Fall 2017\CSCC85\Phase 1\Phase1---Little-Lost-Robot\Distro\pfilter prob.nxc"
14	476	80	#line 476 "C:\Users\Sakeeb\Documents\School\Fall 2017\CSCC85\Phase 1\Phase1---Little-Lost-Robot\Distro\pfilter prob.nxc"
14	478	80	#line 478 "C:\Users\Sakeeb\Documents\School\Fall 2017\CSCC85\Phase 1\Phase1---Little-Lost-Robot\Distro\pfilter prob.nxc"
14	479	80		jmp __ASM_Label_1230
14	478	82	#line 478 "C:\Users\Sakeeb\Documents\School\Fall 2017\CSCC85\Phase 1\Phase1---Little-Lost-Robot\Distro\pfilter prob.nxc"
14	479	82		set __moveBackward_7qG2_seconds_7qG2_000, 1
14	478	85	#line 478 "C:\Users\Sakeeb\Documents\School\Fall 2017\CSCC85\Phase 1\Phase1---Little-Lost-Robot\Distro\pfilter prob.nxc"
14	479	85	#line 479 "C:\Users\Sakeeb\Documents\School\Fall 2017\CSCC85\Phase 1\Phase1---Little-Lost-Robot\Distro\pfilter prob.nxc"
14	480	85		subcall moveBackward, __moveBackward_return
14	479	88	#line 479 "C:\Users\Sakeeb\Documents\School\Fall 2017\CSCC85\Phase 1\Phase1---Little-Lost-Robot\Distro\pfilter prob.nxc"
14	481	88	#line 481 "C:\Users\Sakeeb\Documents\School\Fall 2017\CSCC85\Phase 1\Phase1---Little-Lost-Robot\Distro\pfilter prob.nxc"
14	481	88	#line 481 "C:\Users\Sakeeb\Documents\School\Fall 2017\CSCC85\Phase 1\Phase1---Little-Lost-Robot\Distro\pfilter prob.nxc"
14	481	88	#line 481 "C:\Users\Sakeeb\Documents\School\Fall 2017\CSCC85\Phase 1\Phase1---Little-Lost-Robot\Distro\pfilter prob.nxc"
14	482	88		mov __signed_stack_001adjust, __adjust_7qG2_c_7qG2_000
14	481	90	#line 481 "C:\Users\Sakeeb\Documents\School\Fall 2017\CSCC85\Phase 1\Phase1---Little-Lost-Robot\Distro\pfilter prob.nxc"
14	481	90	#line 481 "C:\Users\Sakeeb\Documents\School\Fall 2017\CSCC85\Phase 1\Phase1---Little-Lost-Robot\Distro\pfilter prob.nxc"
14	482	90		set __D0adjust, 1
14	481	93	#line 481 "C:\Users\Sakeeb\Documents\School\Fall 2017\CSCC85\Phase 1\Phase1---Little-Lost-Robot\Distro\pfilter prob.nxc"
14	482	93		cmp 4, __D0adjust, __signed_stack_001adjust, __D0adjust
14	481	97	#line 481 "C:\Users\Sakeeb\Documents\School\Fall 2017\CSCC85\Phase 1\Phase1---Little-Lost-Robot\Distro\pfilter prob.nxc"
14	482	97		brtst 5, __ASM_Label_1233, __D0adjust
14	481	100	#line 481 "C:\Users\Sakeeb\Documents\School\Fall 2017\CSCC85\Phase 1\Phase1---Little-Lost-Robot\Distro\pfilter prob.nxc"
14	482	100		mov __signed_stack_001adjust, __adjust_7qG2_c_7qG2_000
14	481	102	#line 481 "C:\Users\Sakeeb\Documents\School\Fall 2017\CSCC85\Phase 1\Phase1---Little-Lost-Robot\Distro\pfilter prob.nxc"
14	481	102	#line 481 "C:\Users\Sakeeb\Documents\School\Fall 2017\CSCC85\Phase 1\Phase1---Little-Lost-Robot\Distro\pfilter prob.nxc"
14	482	102		set __D0adjust, 4
14	481	105	#line 481 "C:\Users\Sakeeb\Documents\School\Fall 2017\CSCC85\Phase 1\Phase1---Little-Lost-Robot\Distro\pfilter prob.nxc"
14	482	105		cmp 4, __D0adjust, __signed_stack_001adjust, __D0adjust
14	482	109	#line 482 "C:\Users\Sakeeb\Documents\School\Fall 2017\CSCC85\Phase 1\Phase1---Little-Lost-Robot\Distro\pfilter prob.nxc"
14	483	109		brtst 4, __ASM_Label_1236, __D0adjust
14	482	112	#line 482 "C:\Users\Sakeeb\Documents\School\Fall 2017\CSCC85\Phase 1\Phase1---Little-Lost-Robot\Distro\pfilter prob.nxc"
14	483	112		set __turnRight_7qG2_degree_7qG2_000, 6
14	482	115	#line 482 "C:\Users\Sakeeb\Documents\School\Fall 2017\CSCC85\Phase 1\Phase1---Little-Lost-Robot\Distro\pfilter prob.nxc"
14	483	115	#line 483 "C:\Users\Sakeeb\Documents\School\Fall 2017\CSCC85\Phase 1\Phase1---Little-Lost-Robot\Distro\pfilter prob.nxc"
14	484	115		subcall turnRight, __turnRight_return
14	483	118	#line 483 "C:\Users\Sakeeb\Documents\School\Fall 2017\CSCC85\Phase 1\Phase1---Little-Lost-Robot\Distro\pfilter prob.nxc"
14	484	118	#line 484 "C:\Users\Sakeeb\Documents\School\Fall 2017\CSCC85\Phase 1\Phase1---Little-Lost-Robot\Distro\pfilter prob.nxc"
14	485	118		jmp __ASM_Label_1207
14	484	120	#line 484 "C:\Users\Sakeeb\Documents\School\Fall 2017\CSCC85\Phase 1\Phase1---Little-Lost-Robot\Distro\pfilter prob.nxc"
14	485	120	#line 485 "C:\Users\Sakeeb\Documents\School\Fall 2017\CSCC85\Phase 1\Phase1---Little-Lost-Robot\Distro\pfilter prob.nxc"
14	486	120	#line 486 "C:\Users\Sakeeb\Documents\School\Fall 2017\CSCC85\Phase 1\Phase1---Little-Lost-Robot\Distro\pfilter prob.nxc"
14	487	120		set __D0adjust, 1
14	486	123	#line 486 "C:\Users\Sakeeb\Documents\School\Fall 2017\CSCC85\Phase 1\Phase1---Little-Lost-Robot\Distro\pfilter prob.nxc"
14	487	123		add __adjust_7qG2_angle_7qG2_000, __adjust_7qG2_angle_7qG2_000, __D0adjust
14	486	127	#line 486 "C:\Users\Sakeeb\Documents\School\Fall 2017\CSCC85\Phase 1\Phase1---Little-Lost-Robot\Distro\pfilter prob.nxc"
14	487	127	#line 487 "C:\Users\Sakeeb\Documents\School\Fall 2017\CSCC85\Phase 1\Phase1---Little-Lost-Robot\Distro\pfilter prob.nxc"
14	488	127		jmp __ASM_Label_1206
14	487	129	#line 487 "C:\Users\Sakeeb\Documents\School\Fall 2017\CSCC85\Phase 1\Phase1---Little-Lost-Robot\Distro\pfilter prob.nxc"
14	487	129	#line 487 "C:\Users\Sakeeb\Documents\School\Fall 2017\CSCC85\Phase 1\Phase1---Little-Lost-Robot\Distro\pfilter prob.nxc"
14	488	129		mov __signed_stack_001adjust, __adjust_7qG2_c_7qG2_000
14	487	131	#line 487 "C:\Users\Sakeeb\Documents\School\Fall 2017\CSCC85\Phase 1\Phase1---Little-Lost-Robot\Distro\pfilter prob.nxc"
14	487	131	#line 487 "C:\Users\Sakeeb\Documents\School\Fall 2017\CSCC85\Phase 1\Phase1---Little-Lost-Robot\Distro\pfilter prob.nxc"
14	488	131		set __D0adjust, 1
14	487	134	#line 487 "C:\Users\Sakeeb\Documents\School\Fall 2017\CSCC85\Phase 1\Phase1---Little-Lost-Robot\Distro\pfilter prob.nxc"
14	488	134		cmp 4, __D0adjust, __signed_stack_001adjust, __D0adjust
14	487	138	#line 487 "C:\Users\Sakeeb\Documents\School\Fall 2017\CSCC85\Phase 1\Phase1---Little-Lost-Robot\Distro\pfilter prob.nxc"
14	488	138		brtst 5, __ASM_Label_1241, __D0adjust
14	487	141	#line 487 "C:\Users\Sakeeb\Documents\School\Fall 2017\CSCC85\Phase 1\Phase1---Little-Lost-Robot\Distro\pfilter prob.nxc"
14	488	141		mov __signed_stack_001adjust, __adjust_7qG2_c_7qG2_000
14	487	143	#line 487 "C:\Users\Sakeeb\Documents\School\Fall 2017\CSCC85\Phase 1\Phase1---Little-Lost-Robot\Distro\pfilter prob.nxc"
14	487	143	#line 487 "C:\Users\Sakeeb\Documents\School\Fall 2017\CSCC85\Phase 1\Phase1---Little-Lost-Robot\Distro\pfilter prob.nxc"
14	488	143		set __D0adjust, 4
14	487	146	#line 487 "C:\Users\Sakeeb\Documents\School\Fall 2017\CSCC85\Phase 1\Phase1---Little-Lost-Robot\Distro\pfilter prob.nxc"
14	488	146		cmp 4, __D0adjust, __signed_stack_001adjust, __D0adjust
14	488	150	#line 488 "C:\Users\Sakeeb\Documents\School\Fall 2017\CSCC85\Phase 1\Phase1---Little-Lost-Robot\Distro\pfilter prob.nxc"
14	489	150		brtst 4, __ASM_Label_1244, __D0adjust
14	489	153	#line 489 "C:\Users\Sakeeb\Documents\School\Fall 2017\CSCC85\Phase 1\Phase1---Little-Lost-Robot\Distro\pfilter prob.nxc"
14	490	153		jmp __ASM_Label_1201
14	489	155	#line 489 "C:\Users\Sakeeb\Documents\School\Fall 2017\CSCC85\Phase 1\Phase1---Little-Lost-Robot\Distro\pfilter prob.nxc"
14	490	155	#line 490 "C:\Users\Sakeeb\Documents\School\Fall 2017\CSCC85\Phase 1\Phase1---Little-Lost-Robot\Distro\pfilter prob.nxc"
14	490	155	#line 490 "C:\Users\Sakeeb\Documents\School\Fall 2017\CSCC85\Phase 1\Phase1---Little-Lost-Robot\Distro\pfilter prob.nxc"
14	491	155		set __Wait_7qG2_ms_7qG2_000_inline_adjust, 500
14	490	158	#line 490 "C:\Users\Sakeeb\Documents\School\Fall 2017\CSCC85\Phase 1\Phase1---Little-Lost-Robot\Distro\pfilter prob.nxc"
14	8551	158	#line 8551 "NXCDefs.h"
14	8552	158		wait2 NA, __Wait_7qG2_ms_7qG2_000_inline_adjust
14	8551	161	#line 8551 "NXCDefs.h"
14	494	161	#line 494 "C:\Users\Sakeeb\Documents\School\Fall 2017\CSCC85\Phase 1\Phase1---Little-Lost-Robot\Distro\pfilter prob.nxc"
14	495	161	#line 495 "C:\Users\Sakeeb\Documents\School\Fall 2017\CSCC85\Phase 1\Phase1---Little-Lost-Robot\Distro\pfilter prob.nxc"
14	496	161		set __adjust_7qG2_angle_7qG2_000, 1
14	495	164	#line 495 "C:\Users\Sakeeb\Documents\School\Fall 2017\CSCC85\Phase 1\Phase1---Little-Lost-Robot\Distro\pfilter prob.nxc"
14	495	164	#line 495 "C:\Users\Sakeeb\Documents\School\Fall 2017\CSCC85\Phase 1\Phase1---Little-Lost-Robot\Distro\pfilter prob.nxc"
14	495	164	#line 495 "C:\Users\Sakeeb\Documents\School\Fall 2017\CSCC85\Phase 1\Phase1---Little-Lost-Robot\Distro\pfilter prob.nxc"
14	496	164		mov __signed_stack_001adjust, __adjust_7qG2_angle_7qG2_000
14	495	166	#line 495 "C:\Users\Sakeeb\Documents\School\Fall 2017\CSCC85\Phase 1\Phase1---Little-Lost-Robot\Distro\pfilter prob.nxc"
14	495	166	#line 495 "C:\Users\Sakeeb\Documents\School\Fall 2017\CSCC85\Phase 1\Phase1---Little-Lost-Robot\Distro\pfilter prob.nxc"
14	496	166		set __signed_stack_002adjust, 2
14	495	169	#line 495 "C:\Users\Sakeeb\Documents\School\Fall 2017\CSCC85\Phase 1\Phase1---Little-Lost-Robot\Distro\pfilter prob.nxc"
14	495	169	#line 495 "C:\Users\Sakeeb\Documents\School\Fall 2017\CSCC85\Phase 1\Phase1---Little-Lost-Robot\Distro\pfilter prob.nxc"
14	496	169		mov __D0adjust, __adjust_7qG2_miss_7qG2_000
14	495	171	#line 495 "C:\Users\Sakeeb\Documents\School\Fall 2017\CSCC85\Phase 1\Phase1---Little-Lost-Robot\Distro\pfilter prob.nxc"
14	496	171		mul __D0adjust, __signed_stack_002adjust, __D0adjust
14	495	175	#line 495 "C:\Users\Sakeeb\Documents\School\Fall 2017\CSCC85\Phase 1\Phase1---Little-Lost-Robot\Distro\pfilter prob.nxc"
14	496	175		cmp 0, __D0adjust, __signed_stack_001adjust, __D0adjust
14	497	179	#line 497 "C:\Users\Sakeeb\Documents\School\Fall 2017\CSCC85\Phase 1\Phase1---Little-Lost-Robot\Distro\pfilter prob.nxc"
14	498	179		brtst 4, __ASM_Label_1250, __D0adjust
14	497	182	#line 497 "C:\Users\Sakeeb\Documents\School\Fall 2017\CSCC85\Phase 1\Phase1---Little-Lost-Robot\Distro\pfilter prob.nxc"
14	498	182		set __turnLeft_7qG2_degree_7qG2_000, 3
14	497	185	#line 497 "C:\Users\Sakeeb\Documents\School\Fall 2017\CSCC85\Phase 1\Phase1---Little-Lost-Robot\Distro\pfilter prob.nxc"
14	498	185	#line 498 "C:\Users\Sakeeb\Documents\School\Fall 2017\CSCC85\Phase 1\Phase1---Little-Lost-Robot\Distro\pfilter prob.nxc"
14	499	185		subcall turnLeft, __turnLeft_return
14	498	188	#line 498 "C:\Users\Sakeeb\Documents\School\Fall 2017\CSCC85\Phase 1\Phase1---Little-Lost-Robot\Distro\pfilter prob.nxc"
14	498	188	#line 498 "C:\Users\Sakeeb\Documents\School\Fall 2017\CSCC85\Phase 1\Phase1---Little-Lost-Robot\Distro\pfilter prob.nxc"
14	499	188		set __robot_sense_7qG2_iter_7qG2_000, 200
14	498	191	#line 498 "C:\Users\Sakeeb\Documents\School\Fall 2017\CSCC85\Phase 1\Phase1---Little-Lost-Robot\Distro\pfilter prob.nxc"
14	499	191	#line 499 "C:\Users\Sakeeb\Documents\School\Fall 2017\CSCC85\Phase 1\Phase1---Little-Lost-Robot\Distro\pfilter prob.nxc"
14	500	191		subcall robot_sense, __robot_sense_return
14	499	194	#line 499 "C:\Users\Sakeeb\Documents\School\Fall 2017\CSCC85\Phase 1\Phase1---Little-Lost-Robot\Distro\pfilter prob.nxc"
14	500	194		mov __adjust_7qG2_c_7qG2_000, __D0robot_sense
14	499	196	#line 499 "C:\Users\Sakeeb\Documents\School\Fall 2017\CSCC85\Phase 1\Phase1---Little-Lost-Robot\Distro\pfilter prob.nxc"
14	499	196	#line 499 "C:\Users\Sakeeb\Documents\School\Fall 2017\CSCC85\Phase 1\Phase1---Little-Lost-Robot\Distro\pfilter prob.nxc"
14	499	196	#line 499 "C:\Users\Sakeeb\Documents\School\Fall 2017\CSCC85\Phase 1\Phase1---Little-Lost-Robot\Distro\pfilter prob.nxc"
14	500	196		mov __signed_stack_001adjust, __adjust_7qG2_c_7qG2_000
14	499	198	#line 499 "C:\Users\Sakeeb\Documents\School\Fall 2017\CSCC85\Phase 1\Phase1---Little-Lost-Robot\Distro\pfilter prob.nxc"
14	499	198	#line 499 "C:\Users\Sakeeb\Documents\School\Fall 2017\CSCC85\Phase 1\Phase1---Little-Lost-Robot\Distro\pfilter prob.nxc"
14	500	198		set __D0adjust, 6
14	499	201	#line 499 "C:\Users\Sakeeb\Documents\School\Fall 2017\CSCC85\Phase 1\Phase1---Little-Lost-Robot\Distro\pfilter prob.nxc"
14	500	201		cmp 4, __D0adjust, __signed_stack_001adjust, __D0adjust
14	500	205	#line 500 "C:\Users\Sakeeb\Documents\School\Fall 2017\CSCC85\Phase 1\Phase1---Little-Lost-Robot\Distro\pfilter prob.nxc"
14	501	205		brtst 4, __ASM_Label_1261, __D0adjust
14	500	208	#line 500 "C:\Users\Sakeeb\Documents\School\Fall 2017\CSCC85\Phase 1\Phase1---Little-Lost-Robot\Distro\pfilter prob.nxc"
14	501	208		set __moveForward_7qG2_seconds_7qG2_000, 1
14	500	211	#line 500 "C:\Users\Sakeeb\Documents\School\Fall 2017\CSCC85\Phase 1\Phase1---Little-Lost-Robot\Distro\pfilter prob.nxc"
14	501	211	#line 501 "C:\Users\Sakeeb\Documents\School\Fall 2017\CSCC85\Phase 1\Phase1---Little-Lost-Robot\Distro\pfilter prob.nxc"
14	502	211		subcall moveForward, __moveForward_return
14	501	214	#line 501 "C:\Users\Sakeeb\Documents\School\Fall 2017\CSCC85\Phase 1\Phase1---Little-Lost-Robot\Distro\pfilter prob.nxc"
14	501	214	#line 501 "C:\Users\Sakeeb\Documents\School\Fall 2017\CSCC85\Phase 1\Phase1---Little-Lost-Robot\Distro\pfilter prob.nxc"
14	502	214		set __robot_sense_7qG2_iter_7qG2_000, 200
14	501	217	#line 501 "C:\Users\Sakeeb\Documents\School\Fall 2017\CSCC85\Phase 1\Phase1---Little-Lost-Robot\Distro\pfilter prob.nxc"
14	502	217	#line 502 "C:\Users\Sakeeb\Documents\School\Fall 2017\CSCC85\Phase 1\Phase1---Little-Lost-Robot\Distro\pfilter prob.nxc"
14	503	217		subcall robot_sense, __robot_sense_return
14	502	220	#line 502 "C:\Users\Sakeeb\Documents\School\Fall 2017\CSCC85\Phase 1\Phase1---Little-Lost-Robot\Distro\pfilter prob.nxc"
14	503	220		mov __adjust_7qG2_c2_7qG2_000, __D0robot_sense
14	502	222	#line 502 "C:\Users\Sakeeb\Documents\School\Fall 2017\CSCC85\Phase 1\Phase1---Little-Lost-Robot\Distro\pfilter prob.nxc"
14	502	222	#line 502 "C:\Users\Sakeeb\Documents\School\Fall 2017\CSCC85\Phase 1\Phase1---Little-Lost-Robot\Distro\pfilter prob.nxc"
14	502	222	#line 502 "C:\Users\Sakeeb\Documents\School\Fall 2017\CSCC85\Phase 1\Phase1---Little-Lost-Robot\Distro\pfilter prob.nxc"
14	503	222		mov __signed_stack_001adjust, __adjust_7qG2_c2_7qG2_000
14	502	224	#line 502 "C:\Users\Sakeeb\Documents\School\Fall 2017\CSCC85\Phase 1\Phase1---Little-Lost-Robot\Distro\pfilter prob.nxc"
14	502	224	#line 502 "C:\Users\Sakeeb\Documents\School\Fall 2017\CSCC85\Phase 1\Phase1---Little-Lost-Robot\Distro\pfilter prob.nxc"
14	503	224		set __D0adjust, 4
14	502	227	#line 502 "C:\Users\Sakeeb\Documents\School\Fall 2017\CSCC85\Phase 1\Phase1---Little-Lost-Robot\Distro\pfilter prob.nxc"
14	503	227		cmp 4, __D0adjust, __signed_stack_001adjust, __D0adjust
14	503	231	#line 503 "C:\Users\Sakeeb\Documents\School\Fall 2017\CSCC85\Phase 1\Phase1---Little-Lost-Robot\Distro\pfilter prob.nxc"
14	504	231		brtst 4, __ASM_Label_1270, __D0adjust
14	504	234	#line 504 "C:\Users\Sakeeb\Documents\School\Fall 2017\CSCC85\Phase 1\Phase1---Little-Lost-Robot\Distro\pfilter prob.nxc"
14	505	234		mov __adjust_7qG2_c_7qG2_000, __adjust_7qG2_c2_7qG2_000
14	504	236	#line 504 "C:\Users\Sakeeb\Documents\School\Fall 2017\CSCC85\Phase 1\Phase1---Little-Lost-Robot\Distro\pfilter prob.nxc"
14	504	236	#line 504 "C:\Users\Sakeeb\Documents\School\Fall 2017\CSCC85\Phase 1\Phase1---Little-Lost-Robot\Distro\pfilter prob.nxc"
14	506	236	#line 506 "C:\Users\Sakeeb\Documents\School\Fall 2017\CSCC85\Phase 1\Phase1---Little-Lost-Robot\Distro\pfilter prob.nxc"
14	507	236		jmp __ASM_Label_1273
14	506	238	#line 506 "C:\Users\Sakeeb\Documents\School\Fall 2017\CSCC85\Phase 1\Phase1---Little-Lost-Robot\Distro\pfilter prob.nxc"
14	507	238		set __moveBackward_7qG2_seconds_7qG2_000, 1
14	506	241	#line 506 "C:\Users\Sakeeb\Documents\School\Fall 2017\CSCC85\Phase 1\Phase1---Little-Lost-Robot\Distro\pfilter prob.nxc"
14	507	241	#line 507 "C:\Users\Sakeeb\Documents\School\Fall 2017\CSCC85\Phase 1\Phase1---Little-Lost-Robot\Distro\pfilter prob.nxc"
14	508	241		subcall moveBackward, __moveBackward_return
14	507	244	#line 507 "C:\Users\Sakeeb\Documents\School\Fall 2017\CSCC85\Phase 1\Phase1---Little-Lost-Robot\Distro\pfilter prob.nxc"
14	509	244	#line 509 "C:\Users\Sakeeb\Documents\School\Fall 2017\CSCC85\Phase 1\Phase1---Little-Lost-Robot\Distro\pfilter prob.nxc"
14	509	244	#line 509 "C:\Users\Sakeeb\Documents\School\Fall 2017\CSCC85\Phase 1\Phase1---Little-Lost-Robot\Distro\pfilter prob.nxc"
14	509	244	#line 509 "C:\Users\Sakeeb\Documents\School\Fall 2017\CSCC85\Phase 1\Phase1---Little-Lost-Robot\Distro\pfilter prob.nxc"
14	510	244		mov __signed_stack_001adjust, __adjust_7qG2_c_7qG2_000
14	509	246	#line 509 "C:\Users\Sakeeb\Documents\School\Fall 2017\CSCC85\Phase 1\Phase1---Little-Lost-Robot\Distro\pfilter prob.nxc"
14	509	246	#line 509 "C:\Users\Sakeeb\Documents\School\Fall 2017\CSCC85\Phase 1\Phase1---Little-Lost-Robot\Distro\pfilter prob.nxc"
14	510	246		set __D0adjust, 1
14	509	249	#line 509 "C:\Users\Sakeeb\Documents\School\Fall 2017\CSCC85\Phase 1\Phase1---Little-Lost-Robot\Distro\pfilter prob.nxc"
14	510	249		cmp 4, __D0adjust, __signed_stack_001adjust, __D0adjust
14	509	253	#line 509 "C:\Users\Sakeeb\Documents\School\Fall 2017\CSCC85\Phase 1\Phase1---Little-Lost-Robot\Distro\pfilter prob.nxc"
14	510	253		brtst 5, __ASM_Label_1276, __D0adjust
14	509	256	#line 509 "C:\Users\Sakeeb\Documents\School\Fall 2017\CSCC85\Phase 1\Phase1---Little-Lost-Robot\Distro\pfilter prob.nxc"
14	510	256		mov __signed_stack_001adjust, __adjust_7qG2_c_7qG2_000
14	509	258	#line 509 "C:\Users\Sakeeb\Documents\School\Fall 2017\CSCC85\Phase 1\Phase1---Little-Lost-Robot\Distro\pfilter prob.nxc"
14	509	258	#line 509 "C:\Users\Sakeeb\Documents\School\Fall 2017\CSCC85\Phase 1\Phase1---Little-Lost-Robot\Distro\pfilter prob.nxc"
14	510	258		set __D0adjust, 4
14	509	261	#line 509 "C:\Users\Sakeeb\Documents\School\Fall 2017\CSCC85\Phase 1\Phase1---Little-Lost-Robot\Distro\pfilter prob.nxc"
14	510	261		cmp 4, __D0adjust, __signed_stack_001adjust, __D0adjust
14	510	265	#line 510 "C:\Users\Sakeeb\Documents\School\Fall 2017\CSCC85\Phase 1\Phase1---Little-Lost-Robot\Distro\pfilter prob.nxc"
14	511	265		brtst 4, __ASM_Label_1279, __D0adjust
14	510	268	#line 510 "C:\Users\Sakeeb\Documents\School\Fall 2017\CSCC85\Phase 1\Phase1---Little-Lost-Robot\Distro\pfilter prob.nxc"
14	511	268		set __turnLeft_7qG2_degree_7qG2_000, 6
14	510	271	#line 510 "C:\Users\Sakeeb\Documents\School\Fall 2017\CSCC85\Phase 1\Phase1---Little-Lost-Robot\Distro\pfilter prob.nxc"
14	511	271	#line 511 "C:\Users\Sakeeb\Documents\School\Fall 2017\CSCC85\Phase 1\Phase1---Little-Lost-Robot\Distro\pfilter prob.nxc"
14	512	271		subcall turnLeft, __turnLeft_return
14	511	274	#line 511 "C:\Users\Sakeeb\Documents\School\Fall 2017\CSCC85\Phase 1\Phase1---Little-Lost-Robot\Distro\pfilter prob.nxc"
14	512	274	#line 512 "C:\Users\Sakeeb\Documents\School\Fall 2017\CSCC85\Phase 1\Phase1---Little-Lost-Robot\Distro\pfilter prob.nxc"
14	513	274		jmp __ASM_Label_1250
14	512	276	#line 512 "C:\Users\Sakeeb\Documents\School\Fall 2017\CSCC85\Phase 1\Phase1---Little-Lost-Robot\Distro\pfilter prob.nxc"
14	513	276	#line 513 "C:\Users\Sakeeb\Documents\School\Fall 2017\CSCC85\Phase 1\Phase1---Little-Lost-Robot\Distro\pfilter prob.nxc"
14	514	276	#line 514 "C:\Users\Sakeeb\Documents\School\Fall 2017\CSCC85\Phase 1\Phase1---Little-Lost-Robot\Distro\pfilter prob.nxc"
14	515	276		set __D0adjust, 1
14	514	279	#line 514 "C:\Users\Sakeeb\Documents\School\Fall 2017\CSCC85\Phase 1\Phase1---Little-Lost-Robot\Distro\pfilter prob.nxc"
14	515	279		add __adjust_7qG2_angle_7qG2_000, __adjust_7qG2_angle_7qG2_000, __D0adjust
14	514	283	#line 514 "C:\Users\Sakeeb\Documents\School\Fall 2017\CSCC85\Phase 1\Phase1---Little-Lost-Robot\Distro\pfilter prob.nxc"
14	515	283	#line 515 "C:\Users\Sakeeb\Documents\School\Fall 2017\CSCC85\Phase 1\Phase1---Little-Lost-Robot\Distro\pfilter prob.nxc"
14	516	283		jmp __ASM_Label_1249
14	515	285	#line 515 "C:\Users\Sakeeb\Documents\School\Fall 2017\CSCC85\Phase 1\Phase1---Little-Lost-Robot\Distro\pfilter prob.nxc"
14	515	285	#line 515 "C:\Users\Sakeeb\Documents\School\Fall 2017\CSCC85\Phase 1\Phase1---Little-Lost-Robot\Distro\pfilter prob.nxc"
14	516	285		mov __signed_stack_001adjust, __adjust_7qG2_c_7qG2_000
14	515	287	#line 515 "C:\Users\Sakeeb\Documents\School\Fall 2017\CSCC85\Phase 1\Phase1---Little-Lost-Robot\Distro\pfilter prob.nxc"
14	515	287	#line 515 "C:\Users\Sakeeb\Documents\School\Fall 2017\CSCC85\Phase 1\Phase1---Little-Lost-Robot\Distro\pfilter prob.nxc"
14	516	287		set __D0adjust, 1
14	515	290	#line 515 "C:\Users\Sakeeb\Documents\School\Fall 2017\CSCC85\Phase 1\Phase1---Little-Lost-Robot\Distro\pfilter prob.nxc"
14	516	290		cmp 4, __D0adjust, __signed_stack_001adjust, __D0adjust
14	515	294	#line 515 "C:\Users\Sakeeb\Documents\School\Fall 2017\CSCC85\Phase 1\Phase1---Little-Lost-Robot\Distro\pfilter prob.nxc"
14	516	294		brtst 5, __ASM_Label_1284, __D0adjust
14	515	297	#line 515 "C:\Users\Sakeeb\Documents\School\Fall 2017\CSCC85\Phase 1\Phase1---Little-Lost-Robot\Distro\pfilter prob.nxc"
14	516	297		mov __signed_stack_001adjust, __adjust_7qG2_c_7qG2_000
14	515	299	#line 515 "C:\Users\Sakeeb\Documents\School\Fall 2017\CSCC85\Phase 1\Phase1---Little-Lost-Robot\Distro\pfilter prob.nxc"
14	515	299	#line 515 "C:\Users\Sakeeb\Documents\School\Fall 2017\CSCC85\Phase 1\Phase1---Little-Lost-Robot\Distro\pfilter prob.nxc"
14	516	299		set __D0adjust, 4
14	515	302	#line 515 "C:\Users\Sakeeb\Documents\School\Fall 2017\CSCC85\Phase 1\Phase1---Little-Lost-Robot\Distro\pfilter prob.nxc"
14	516	302		cmp 4, __D0adjust, __signed_stack_001adjust, __D0adjust
14	516	306	#line 516 "C:\Users\Sakeeb\Documents\School\Fall 2017\CSCC85\Phase 1\Phase1---Little-Lost-Robot\Distro\pfilter prob.nxc"
14	517	306		brtst 4, __ASM_Label_1287, __D0adjust
14	517	309	#line 517 "C:\Users\Sakeeb\Documents\School\Fall 2017\CSCC85\Phase 1\Phase1---Little-Lost-Robot\Distro\pfilter prob.nxc"
14	518	309		jmp __ASM_Label_1201
14	517	311	#line 517 "C:\Users\Sakeeb\Documents\School\Fall 2017\CSCC85\Phase 1\Phase1---Little-Lost-Robot\Distro\pfilter prob.nxc"
14	518	311	#line 518 "C:\Users\Sakeeb\Documents\School\Fall 2017\CSCC85\Phase 1\Phase1---Little-Lost-Robot\Distro\pfilter prob.nxc"
14	518	311	#line 518 "C:\Users\Sakeeb\Documents\School\Fall 2017\CSCC85\Phase 1\Phase1---Little-Lost-Robot\Distro\pfilter prob.nxc"
14	519	311		set __Wait_7qG2_ms_7qG2_000_inline_adjust, 500
14	518	314	#line 518 "C:\Users\Sakeeb\Documents\School\Fall 2017\CSCC85\Phase 1\Phase1---Little-Lost-Robot\Distro\pfilter prob.nxc"
14	8551	314	#line 8551 "NXCDefs.h"
14	8552	314		wait2 NA, __Wait_7qG2_ms_7qG2_000_inline_adjust
14	8551	317	#line 8551 "NXCDefs.h"
14	522	317	#line 522 "C:\Users\Sakeeb\Documents\School\Fall 2017\CSCC85\Phase 1\Phase1---Little-Lost-Robot\Distro\pfilter prob.nxc"
14	523	317	#line 523 "C:\Users\Sakeeb\Documents\School\Fall 2017\CSCC85\Phase 1\Phase1---Little-Lost-Robot\Distro\pfilter prob.nxc"
14	524	317		set __adjust_7qG2_angle_7qG2_000, 1
14	523	320	#line 523 "C:\Users\Sakeeb\Documents\School\Fall 2017\CSCC85\Phase 1\Phase1---Little-Lost-Robot\Distro\pfilter prob.nxc"
14	523	320	#line 523 "C:\Users\Sakeeb\Documents\School\Fall 2017\CSCC85\Phase 1\Phase1---Little-Lost-Robot\Distro\pfilter prob.nxc"
14	523	320	#line 523 "C:\Users\Sakeeb\Documents\School\Fall 2017\CSCC85\Phase 1\Phase1---Little-Lost-Robot\Distro\pfilter prob.nxc"
14	524	320		mov __signed_stack_001adjust, __adjust_7qG2_angle_7qG2_000
14	523	322	#line 523 "C:\Users\Sakeeb\Documents\School\Fall 2017\CSCC85\Phase 1\Phase1---Little-Lost-Robot\Distro\pfilter prob.nxc"
14	523	322	#line 523 "C:\Users\Sakeeb\Documents\School\Fall 2017\CSCC85\Phase 1\Phase1---Little-Lost-Robot\Distro\pfilter prob.nxc"
14	524	322		mov __D0adjust, __adjust_7qG2_miss_7qG2_000
14	523	324	#line 523 "C:\Users\Sakeeb\Documents\School\Fall 2017\CSCC85\Phase 1\Phase1---Little-Lost-Robot\Distro\pfilter prob.nxc"
14	524	324		cmp 0, __D0adjust, __signed_stack_001adjust, __D0adjust
14	524	328	#line 524 "C:\Users\Sakeeb\Documents\School\Fall 2017\CSCC85\Phase 1\Phase1---Little-Lost-Robot\Distro\pfilter prob.nxc"
14	525	328		brtst 4, __ASM_Label_1293, __D0adjust
14	524	331	#line 524 "C:\Users\Sakeeb\Documents\School\Fall 2017\CSCC85\Phase 1\Phase1---Little-Lost-Robot\Distro\pfilter prob.nxc"
14	525	331		set __turnRight_7qG2_degree_7qG2_000, 3
14	524	334	#line 524 "C:\Users\Sakeeb\Documents\School\Fall 2017\CSCC85\Phase 1\Phase1---Little-Lost-Robot\Distro\pfilter prob.nxc"
14	525	334	#line 525 "C:\Users\Sakeeb\Documents\School\Fall 2017\CSCC85\Phase 1\Phase1---Little-Lost-Robot\Distro\pfilter prob.nxc"
14	526	334		subcall turnRight, __turnRight_return
14	525	337	#line 525 "C:\Users\Sakeeb\Documents\School\Fall 2017\CSCC85\Phase 1\Phase1---Little-Lost-Robot\Distro\pfilter prob.nxc"
14	525	337	#line 525 "C:\Users\Sakeeb\Documents\School\Fall 2017\CSCC85\Phase 1\Phase1---Little-Lost-Robot\Distro\pfilter prob.nxc"
14	526	337		set __robot_sense_7qG2_iter_7qG2_000, 200
14	525	340	#line 525 "C:\Users\Sakeeb\Documents\School\Fall 2017\CSCC85\Phase 1\Phase1---Little-Lost-Robot\Distro\pfilter prob.nxc"
14	526	340	#line 526 "C:\Users\Sakeeb\Documents\School\Fall 2017\CSCC85\Phase 1\Phase1---Little-Lost-Robot\Distro\pfilter prob.nxc"
14	527	340		subcall robot_sense, __robot_sense_return
14	526	343	#line 526 "C:\Users\Sakeeb\Documents\School\Fall 2017\CSCC85\Phase 1\Phase1---Little-Lost-Robot\Distro\pfilter prob.nxc"
14	527	343		mov __adjust_7qG2_c_7qG2_000, __D0robot_sense
14	526	345	#line 526 "C:\Users\Sakeeb\Documents\School\Fall 2017\CSCC85\Phase 1\Phase1---Little-Lost-Robot\Distro\pfilter prob.nxc"
14	526	345	#line 526 "C:\Users\Sakeeb\Documents\School\Fall 2017\CSCC85\Phase 1\Phase1---Little-Lost-Robot\Distro\pfilter prob.nxc"
14	526	345	#line 526 "C:\Users\Sakeeb\Documents\School\Fall 2017\CSCC85\Phase 1\Phase1---Little-Lost-Robot\Distro\pfilter prob.nxc"
14	527	345		mov __signed_stack_001adjust, __adjust_7qG2_c_7qG2_000
14	526	347	#line 526 "C:\Users\Sakeeb\Documents\School\Fall 2017\CSCC85\Phase 1\Phase1---Little-Lost-Robot\Distro\pfilter prob.nxc"
14	526	347	#line 526 "C:\Users\Sakeeb\Documents\School\Fall 2017\CSCC85\Phase 1\Phase1---Little-Lost-Robot\Distro\pfilter prob.nxc"
14	527	347		set __D0adjust, 6
14	526	350	#line 526 "C:\Users\Sakeeb\Documents\School\Fall 2017\CSCC85\Phase 1\Phase1---Little-Lost-Robot\Distro\pfilter prob.nxc"
14	527	350		cmp 4, __D0adjust, __signed_stack_001adjust, __D0adjust
14	527	354	#line 527 "C:\Users\Sakeeb\Documents\School\Fall 2017\CSCC85\Phase 1\Phase1---Little-Lost-Robot\Distro\pfilter prob.nxc"
14	528	354		brtst 4, __ASM_Label_1304, __D0adjust
14	527	357	#line 527 "C:\Users\Sakeeb\Documents\School\Fall 2017\CSCC85\Phase 1\Phase1---Little-Lost-Robot\Distro\pfilter prob.nxc"
14	528	357		set __moveForward_7qG2_seconds_7qG2_000, 1
14	527	360	#line 527 "C:\Users\Sakeeb\Documents\School\Fall 2017\CSCC85\Phase 1\Phase1---Little-Lost-Robot\Distro\pfilter prob.nxc"
14	528	360	#line 528 "C:\Users\Sakeeb\Documents\School\Fall 2017\CSCC85\Phase 1\Phase1---Little-Lost-Robot\Distro\pfilter prob.nxc"
14	529	360		subcall moveForward, __moveForward_return
14	528	363	#line 528 "C:\Users\Sakeeb\Documents\School\Fall 2017\CSCC85\Phase 1\Phase1---Little-Lost-Robot\Distro\pfilter prob.nxc"
14	528	363	#line 528 "C:\Users\Sakeeb\Documents\School\Fall 2017\CSCC85\Phase 1\Phase1---Little-Lost-Robot\Distro\pfilter prob.nxc"
14	529	363		set __robot_sense_7qG2_iter_7qG2_000, 200
14	528	366	#line 528 "C:\Users\Sakeeb\Documents\School\Fall 2017\CSCC85\Phase 1\Phase1---Little-Lost-Robot\Distro\pfilter prob.nxc"
14	529	366	#line 529 "C:\Users\Sakeeb\Documents\School\Fall 2017\CSCC85\Phase 1\Phase1---Little-Lost-Robot\Distro\pfilter prob.nxc"
14	530	366		subcall robot_sense, __robot_sense_return
14	529	369	#line 529 "C:\Users\Sakeeb\Documents\School\Fall 2017\CSCC85\Phase 1\Phase1---Little-Lost-Robot\Distro\pfilter prob.nxc"
14	530	369		mov __adjust_7qG2_c2_7qG2_000, __D0robot_sense
14	529	371	#line 529 "C:\Users\Sakeeb\Documents\School\Fall 2017\CSCC85\Phase 1\Phase1---Little-Lost-Robot\Distro\pfilter prob.nxc"
14	529	371	#line 529 "C:\Users\Sakeeb\Documents\School\Fall 2017\CSCC85\Phase 1\Phase1---Little-Lost-Robot\Distro\pfilter prob.nxc"
14	529	371	#line 529 "C:\Users\Sakeeb\Documents\School\Fall 2017\CSCC85\Phase 1\Phase1---Little-Lost-Robot\Distro\pfilter prob.nxc"
14	530	371		mov __signed_stack_001adjust, __adjust_7qG2_c2_7qG2_000
14	529	373	#line 529 "C:\Users\Sakeeb\Documents\School\Fall 2017\CSCC85\Phase 1\Phase1---Little-Lost-Robot\Distro\pfilter prob.nxc"
14	529	373	#line 529 "C:\Users\Sakeeb\Documents\School\Fall 2017\CSCC85\Phase 1\Phase1---Little-Lost-Robot\Distro\pfilter prob.nxc"
14	530	373		set __D0adjust, 4
14	529	376	#line 529 "C:\Users\Sakeeb\Documents\School\Fall 2017\CSCC85\Phase 1\Phase1---Little-Lost-Robot\Distro\pfilter prob.nxc"
14	530	376		cmp 4, __D0adjust, __signed_stack_001adjust, __D0adjust
14	530	380	#line 530 "C:\Users\Sakeeb\Documents\School\Fall 2017\CSCC85\Phase 1\Phase1---Little-Lost-Robot\Distro\pfilter prob.nxc"
14	531	380		brtst 4, __ASM_Label_1313, __D0adjust
14	531	383	#line 531 "C:\Users\Sakeeb\Documents\School\Fall 2017\CSCC85\Phase 1\Phase1---Little-Lost-Robot\Distro\pfilter prob.nxc"
14	532	383		mov __adjust_7qG2_c_7qG2_000, __adjust_7qG2_c2_7qG2_000
14	531	385	#line 531 "C:\Users\Sakeeb\Documents\School\Fall 2017\CSCC85\Phase 1\Phase1---Little-Lost-Robot\Distro\pfilter prob.nxc"
14	531	385	#line 531 "C:\Users\Sakeeb\Documents\School\Fall 2017\CSCC85\Phase 1\Phase1---Little-Lost-Robot\Distro\pfilter prob.nxc"
14	533	385	#line 533 "C:\Users\Sakeeb\Documents\School\Fall 2017\CSCC85\Phase 1\Phase1---Little-Lost-Robot\Distro\pfilter prob.nxc"
14	534	385		jmp __ASM_Label_1316
14	533	387	#line 533 "C:\Users\Sakeeb\Documents\School\Fall 2017\CSCC85\Phase 1\Phase1---Little-Lost-Robot\Distro\pfilter prob.nxc"
14	534	387		set __moveBackward_7qG2_seconds_7qG2_000, 1
14	533	390	#line 533 "C:\Users\Sakeeb\Documents\School\Fall 2017\CSCC85\Phase 1\Phase1---Little-Lost-Robot\Distro\pfilter prob.nxc"
14	534	390	#line 534 "C:\Users\Sakeeb\Documents\School\Fall 2017\CSCC85\Phase 1\Phase1---Little-Lost-Robot\Distro\pfilter prob.nxc"
14	535	390		subcall moveBackward, __moveBackward_return
14	534	393	#line 534 "C:\Users\Sakeeb\Documents\School\Fall 2017\CSCC85\Phase 1\Phase1---Little-Lost-Robot\Distro\pfilter prob.nxc"
14	536	393	#line 536 "C:\Users\Sakeeb\Documents\School\Fall 2017\CSCC85\Phase 1\Phase1---Little-Lost-Robot\Distro\pfilter prob.nxc"
14	536	393	#line 536 "C:\Users\Sakeeb\Documents\School\Fall 2017\CSCC85\Phase 1\Phase1---Little-Lost-Robot\Distro\pfilter prob.nxc"
14	536	393	#line 536 "C:\Users\Sakeeb\Documents\School\Fall 2017\CSCC85\Phase 1\Phase1---Little-Lost-Robot\Distro\pfilter prob.nxc"
14	537	393		mov __signed_stack_001adjust, __adjust_7qG2_c_7qG2_000
14	536	395	#line 536 "C:\Users\Sakeeb\Documents\School\Fall 2017\CSCC85\Phase 1\Phase1---Little-Lost-Robot\Distro\pfilter prob.nxc"
14	536	395	#line 536 "C:\Users\Sakeeb\Documents\School\Fall 2017\CSCC85\Phase 1\Phase1---Little-Lost-Robot\Distro\pfilter prob.nxc"
14	537	395		set __D0adjust, 1
14	536	398	#line 536 "C:\Users\Sakeeb\Documents\School\Fall 2017\CSCC85\Phase 1\Phase1---Little-Lost-Robot\Distro\pfilter prob.nxc"
14	537	398		cmp 4, __D0adjust, __signed_stack_001adjust, __D0adjust
14	536	402	#line 536 "C:\Users\Sakeeb\Documents\School\Fall 2017\CSCC85\Phase 1\Phase1---Little-Lost-Robot\Distro\pfilter prob.nxc"
14	537	402		brtst 5, __ASM_Label_1319, __D0adjust
14	536	405	#line 536 "C:\Users\Sakeeb\Documents\School\Fall 2017\CSCC85\Phase 1\Phase1---Little-Lost-Robot\Distro\pfilter prob.nxc"
14	537	405		mov __signed_stack_001adjust, __adjust_7qG2_c_7qG2_000
14	536	407	#line 536 "C:\Users\Sakeeb\Documents\School\Fall 2017\CSCC85\Phase 1\Phase1---Little-Lost-Robot\Distro\pfilter prob.nxc"
14	536	407	#line 536 "C:\Users\Sakeeb\Documents\School\Fall 2017\CSCC85\Phase 1\Phase1---Little-Lost-Robot\Distro\pfilter prob.nxc"
14	537	407		set __D0adjust, 4
14	536	410	#line 536 "C:\Users\Sakeeb\Documents\School\Fall 2017\CSCC85\Phase 1\Phase1---Little-Lost-Robot\Distro\pfilter prob.nxc"
14	537	410		cmp 4, __D0adjust, __signed_stack_001adjust, __D0adjust
14	537	414	#line 537 "C:\Users\Sakeeb\Documents\School\Fall 2017\CSCC85\Phase 1\Phase1---Little-Lost-Robot\Distro\pfilter prob.nxc"
14	538	414		brtst 4, __ASM_Label_1322, __D0adjust
14	537	417	#line 537 "C:\Users\Sakeeb\Documents\School\Fall 2017\CSCC85\Phase 1\Phase1---Little-Lost-Robot\Distro\pfilter prob.nxc"
14	538	417		set __turnRight_7qG2_degree_7qG2_000, 6
14	537	420	#line 537 "C:\Users\Sakeeb\Documents\School\Fall 2017\CSCC85\Phase 1\Phase1---Little-Lost-Robot\Distro\pfilter prob.nxc"
14	538	420	#line 538 "C:\Users\Sakeeb\Documents\School\Fall 2017\CSCC85\Phase 1\Phase1---Little-Lost-Robot\Distro\pfilter prob.nxc"
14	539	420		subcall turnRight, __turnRight_return
14	538	423	#line 538 "C:\Users\Sakeeb\Documents\School\Fall 2017\CSCC85\Phase 1\Phase1---Little-Lost-Robot\Distro\pfilter prob.nxc"
14	539	423	#line 539 "C:\Users\Sakeeb\Documents\School\Fall 2017\CSCC85\Phase 1\Phase1---Little-Lost-Robot\Distro\pfilter prob.nxc"
14	540	423		jmp __ASM_Label_1293
14	539	425	#line 539 "C:\Users\Sakeeb\Documents\School\Fall 2017\CSCC85\Phase 1\Phase1---Little-Lost-Robot\Distro\pfilter prob.nxc"
14	540	425	#line 540 "C:\Users\Sakeeb\Documents\School\Fall 2017\CSCC85\Phase 1\Phase1---Little-Lost-Robot\Distro\pfilter prob.nxc"
14	541	425	#line 541 "C:\Users\Sakeeb\Documents\School\Fall 2017\CSCC85\Phase 1\Phase1---Little-Lost-Robot\Distro\pfilter prob.nxc"
14	542	425		set __D0adjust, 1
14	541	428	#line 541 "C:\Users\Sakeeb\Documents\School\Fall 2017\CSCC85\Phase 1\Phase1---Little-Lost-Robot\Distro\pfilter prob.nxc"
14	542	428		add __adjust_7qG2_angle_7qG2_000, __adjust_7qG2_angle_7qG2_000, __D0adjust
14	541	432	#line 541 "C:\Users\Sakeeb\Documents\School\Fall 2017\CSCC85\Phase 1\Phase1---Little-Lost-Robot\Distro\pfilter prob.nxc"
14	542	432	#line 542 "C:\Users\Sakeeb\Documents\School\Fall 2017\CSCC85\Phase 1\Phase1---Little-Lost-Robot\Distro\pfilter prob.nxc"
14	543	432		jmp __ASM_Label_1292
14	542	434	#line 542 "C:\Users\Sakeeb\Documents\School\Fall 2017\CSCC85\Phase 1\Phase1---Little-Lost-Robot\Distro\pfilter prob.nxc"
14	542	434	#line 542 "C:\Users\Sakeeb\Documents\School\Fall 2017\CSCC85\Phase 1\Phase1---Little-Lost-Robot\Distro\pfilter prob.nxc"
14	543	434		mov __signed_stack_001adjust, __adjust_7qG2_c_7qG2_000
14	542	436	#line 542 "C:\Users\Sakeeb\Documents\School\Fall 2017\CSCC85\Phase 1\Phase1---Little-Lost-Robot\Distro\pfilter prob.nxc"
14	542	436	#line 542 "C:\Users\Sakeeb\Documents\School\Fall 2017\CSCC85\Phase 1\Phase1---Little-Lost-Robot\Distro\pfilter prob.nxc"
14	543	436		set __D0adjust, 1
14	542	439	#line 542 "C:\Users\Sakeeb\Documents\School\Fall 2017\CSCC85\Phase 1\Phase1---Little-Lost-Robot\Distro\pfilter prob.nxc"
14	543	439		cmp 4, __D0adjust, __signed_stack_001adjust, __D0adjust
14	542	443	#line 542 "C:\Users\Sakeeb\Documents\School\Fall 2017\CSCC85\Phase 1\Phase1---Little-Lost-Robot\Distro\pfilter prob.nxc"
14	543	443		brtst 5, __ASM_Label_1327, __D0adjust
14	542	446	#line 542 "C:\Users\Sakeeb\Documents\School\Fall 2017\CSCC85\Phase 1\Phase1---Little-Lost-Robot\Distro\pfilter prob.nxc"
14	543	446		mov __signed_stack_001adjust, __adjust_7qG2_c_7qG2_000
14	542	448	#line 542 "C:\Users\Sakeeb\Documents\School\Fall 2017\CSCC85\Phase 1\Phase1---Little-Lost-Robot\Distro\pfilter prob.nxc"
14	542	448	#line 542 "C:\Users\Sakeeb\Documents\School\Fall 2017\CSCC85\Phase 1\Phase1---Little-Lost-Robot\Distro\pfilter prob.nxc"
14	543	448		set __D0adjust, 4
14	542	451	#line 542 "C:\Users\Sakeeb\Documents\School\Fall 2017\CSCC85\Phase 1\Phase1---Little-Lost-Robot\Distro\pfilter prob.nxc"
14	543	451		cmp 4, __D0adjust, __signed_stack_001adjust, __D0adjust
14	543	455	#line 543 "C:\Users\Sakeeb\Documents\School\Fall 2017\CSCC85\Phase 1\Phase1---Little-Lost-Robot\Distro\pfilter prob.nxc"
14	544	455		brtst 4, __ASM_Label_1330, __D0adjust
14	544	458	#line 544 "C:\Users\Sakeeb\Documents\School\Fall 2017\CSCC85\Phase 1\Phase1---Little-Lost-Robot\Distro\pfilter prob.nxc"
14	545	458		jmp __ASM_Label_1201
14	544	460	#line 544 "C:\Users\Sakeeb\Documents\School\Fall 2017\CSCC85\Phase 1\Phase1---Little-Lost-Robot\Distro\pfilter prob.nxc"
14	545	460	#line 545 "C:\Users\Sakeeb\Documents\School\Fall 2017\CSCC85\Phase 1\Phase1---Little-Lost-Robot\Distro\pfilter prob.nxc"
14	545	460	#line 545 "C:\Users\Sakeeb\Documents\School\Fall 2017\CSCC85\Phase 1\Phase1---Little-Lost-Robot\Distro\pfilter prob.nxc"
14	546	460		set __Wait_7qG2_ms_7qG2_000_inline_adjust, 500
14	545	463	#line 545 "C:\Users\Sakeeb\Documents\School\Fall 2017\CSCC85\Phase 1\Phase1---Little-Lost-Robot\Distro\pfilter prob.nxc"
14	8551	463	#line 8551 "NXCDefs.h"
14	8552	463		wait2 NA, __Wait_7qG2_ms_7qG2_000_inline_adjust
14	8551	466	#line 8551 "NXCDefs.h"
14	547	466	#line 547 "C:\Users\Sakeeb\Documents\School\Fall 2017\CSCC85\Phase 1\Phase1---Little-Lost-Robot\Distro\pfilter prob.nxc"
14	547	466	#line 547 "C:\Users\Sakeeb\Documents\School\Fall 2017\CSCC85\Phase 1\Phase1---Little-Lost-Robot\Distro\pfilter prob.nxc"
14	548	466		mov __signed_stack_001adjust, __adjust_7qG2_miss_7qG2_000
14	547	468	#line 547 "C:\Users\Sakeeb\Documents\School\Fall 2017\CSCC85\Phase 1\Phase1---Little-Lost-Robot\Distro\pfilter prob.nxc"
14	548	468	#line 548 "C:\Users\Sakeeb\Documents\School\Fall 2017\CSCC85\Phase 1\Phase1---Little-Lost-Robot\Distro\pfilter prob.nxc"
14	549	468		set __D0adjust, 10
14	548	471	#line 548 "C:\Users\Sakeeb\Documents\School\Fall 2017\CSCC85\Phase 1\Phase1---Little-Lost-Robot\Distro\pfilter prob.nxc"
14	549	471		add __adjust_7qG2_miss_7qG2_000, __signed_stack_001adjust, __D0adjust
14	548	475	#line 548 "C:\Users\Sakeeb\Documents\School\Fall 2017\CSCC85\Phase 1\Phase1---Little-Lost-Robot\Distro\pfilter prob.nxc"
14	548	475	#line 548 "C:\Users\Sakeeb\Documents\School\Fall 2017\CSCC85\Phase 1\Phase1---Little-Lost-Robot\Distro\pfilter prob.nxc"
14	553	475	#line 553 "C:\Users\Sakeeb\Documents\School\Fall 2017\CSCC85\Phase 1\Phase1---Little-Lost-Robot\Distro\pfilter prob.nxc"
14	554	475		jmp __ASM_Label_1200
14	553	477	#line 553 "C:\Users\Sakeeb\Documents\School\Fall 2017\CSCC85\Phase 1\Phase1---Little-Lost-Robot\Distro\pfilter prob.nxc"
14	553	477	#line 553 "C:\Users\Sakeeb\Documents\School\Fall 2017\CSCC85\Phase 1\Phase1---Little-Lost-Robot\Distro\pfilter prob.nxc"
14	554	477		subret __adjust_return
15	568	0	#line 568 "C:\Users\Sakeeb\Documents\School\Fall 2017\CSCC85\Phase 1\Phase1---Little-Lost-Robot\Distro\pfilter prob.nxc"
15	569	0		mov __signed_stack_001move_robot, __move_robot_7qG2_color_7qG2_000
15	568	2	#line 568 "C:\Users\Sakeeb\Documents\School\Fall 2017\CSCC85\Phase 1\Phase1---Little-Lost-Robot\Distro\pfilter prob.nxc"
15	568	2	#line 568 "C:\Users\Sakeeb\Documents\School\Fall 2017\CSCC85\Phase 1\Phase1---Little-Lost-Robot\Distro\pfilter prob.nxc"
15	569	2		set __D0move_robot, 5
15	568	5	#line 568 "C:\Users\Sakeeb\Documents\School\Fall 2017\CSCC85\Phase 1\Phase1---Little-Lost-Robot\Distro\pfilter prob.nxc"
15	569	5		cmp 4, __D0move_robot, __signed_stack_001move_robot, __D0move_robot
15	569	9	#line 569 "C:\Users\Sakeeb\Documents\School\Fall 2017\CSCC85\Phase 1\Phase1---Little-Lost-Robot\Distro\pfilter prob.nxc"
15	570	9		brtst 4, __ASM_Label_1337, __D0move_robot
15	569	12	#line 569 "C:\Users\Sakeeb\Documents\School\Fall 2017\CSCC85\Phase 1\Phase1---Little-Lost-Robot\Distro\pfilter prob.nxc"
15	570	12		set __moveForward_7qG2_seconds_7qG2_000, 10
15	569	15	#line 569 "C:\Users\Sakeeb\Documents\School\Fall 2017\CSCC85\Phase 1\Phase1---Little-Lost-Robot\Distro\pfilter prob.nxc"
15	570	15	#line 570 "C:\Users\Sakeeb\Documents\School\Fall 2017\CSCC85\Phase 1\Phase1---Little-Lost-Robot\Distro\pfilter prob.nxc"
15	571	15		subcall moveForward, __moveForward_return
15	570	18	#line 570 "C:\Users\Sakeeb\Documents\School\Fall 2017\CSCC85\Phase 1\Phase1---Little-Lost-Robot\Distro\pfilter prob.nxc"
15	570	18	#line 570 "C:\Users\Sakeeb\Documents\School\Fall 2017\CSCC85\Phase 1\Phase1---Little-Lost-Robot\Distro\pfilter prob.nxc"
15	571	18		set __turnRight_7qG2_degree_7qG2_000, 155
15	570	21	#line 570 "C:\Users\Sakeeb\Documents\School\Fall 2017\CSCC85\Phase 1\Phase1---Little-Lost-Robot\Distro\pfilter prob.nxc"
15	573	21	#line 573 "C:\Users\Sakeeb\Documents\School\Fall 2017\CSCC85\Phase 1\Phase1---Little-Lost-Robot\Distro\pfilter prob.nxc"
15	574	21		subcall turnRight, __turnRight_return
15	573	24	#line 573 "C:\Users\Sakeeb\Documents\School\Fall 2017\CSCC85\Phase 1\Phase1---Little-Lost-Robot\Distro\pfilter prob.nxc"
15	573	24	#line 573 "C:\Users\Sakeeb\Documents\School\Fall 2017\CSCC85\Phase 1\Phase1---Little-Lost-Robot\Distro\pfilter prob.nxc"
15	574	24		jmp __ASM_Label_1342
15	573	26	#line 573 "C:\Users\Sakeeb\Documents\School\Fall 2017\CSCC85\Phase 1\Phase1---Little-Lost-Robot\Distro\pfilter prob.nxc"
15	574	26		mov __signed_stack_001move_robot, __move_robot_7qG2_color_7qG2_000
15	573	28	#line 573 "C:\Users\Sakeeb\Documents\School\Fall 2017\CSCC85\Phase 1\Phase1---Little-Lost-Robot\Distro\pfilter prob.nxc"
15	573	28	#line 573 "C:\Users\Sakeeb\Documents\School\Fall 2017\CSCC85\Phase 1\Phase1---Little-Lost-Robot\Distro\pfilter prob.nxc"
15	574	28		set __D0move_robot, 1
15	573	31	#line 573 "C:\Users\Sakeeb\Documents\School\Fall 2017\CSCC85\Phase 1\Phase1---Little-Lost-Robot\Distro\pfilter prob.nxc"
15	574	31		cmp 4, __D0move_robot, __signed_stack_001move_robot, __D0move_robot
15	573	35	#line 573 "C:\Users\Sakeeb\Documents\School\Fall 2017\CSCC85\Phase 1\Phase1---Little-Lost-Robot\Distro\pfilter prob.nxc"
15	574	35		brtst 5, __ASM_Label_1343, __D0move_robot
15	573	38	#line 573 "C:\Users\Sakeeb\Documents\School\Fall 2017\CSCC85\Phase 1\Phase1---Little-Lost-Robot\Distro\pfilter prob.nxc"
15	574	38		mov __signed_stack_001move_robot, __move_robot_7qG2_color_7qG2_000
15	573	40	#line 573 "C:\Users\Sakeeb\Documents\School\Fall 2017\CSCC85\Phase 1\Phase1---Little-Lost-Robot\Distro\pfilter prob.nxc"
15	573	40	#line 573 "C:\Users\Sakeeb\Documents\School\Fall 2017\CSCC85\Phase 1\Phase1---Little-Lost-Robot\Distro\pfilter prob.nxc"
15	574	40		set __D0move_robot, 4
15	573	43	#line 573 "C:\Users\Sakeeb\Documents\School\Fall 2017\CSCC85\Phase 1\Phase1---Little-Lost-Robot\Distro\pfilter prob.nxc"
15	574	43		cmp 4, __D0move_robot, __signed_stack_001move_robot, __D0move_robot
15	575	47	#line 575 "C:\Users\Sakeeb\Documents\School\Fall 2017\CSCC85\Phase 1\Phase1---Little-Lost-Robot\Distro\pfilter prob.nxc"
15	576	47		brtst 4, __ASM_Label_1346, __D0move_robot
15	575	50	#line 575 "C:\Users\Sakeeb\Documents\School\Fall 2017\CSCC85\Phase 1\Phase1---Little-Lost-Robot\Distro\pfilter prob.nxc"
15	576	50		mov __signed_stack_001move_robot, __move_robot_7qG2_color_7qG2_000
15	575	52	#line 575 "C:\Users\Sakeeb\Documents\School\Fall 2017\CSCC85\Phase 1\Phase1---Little-Lost-Robot\Distro\pfilter prob.nxc"
15	575	52	#line 575 "C:\Users\Sakeeb\Documents\School\Fall 2017\CSCC85\Phase 1\Phase1---Little-Lost-Robot\Distro\pfilter prob.nxc"
15	576	52		set __D0move_robot, 1
15	575	55	#line 575 "C:\Users\Sakeeb\Documents\School\Fall 2017\CSCC85\Phase 1\Phase1---Little-Lost-Robot\Distro\pfilter prob.nxc"
15	576	55		cmp 4, __D0move_robot, __signed_stack_001move_robot, __D0move_robot
15	576	59	#line 576 "C:\Users\Sakeeb\Documents\School\Fall 2017\CSCC85\Phase 1\Phase1---Little-Lost-Robot\Distro\pfilter prob.nxc"
15	577	59		brtst 4, __ASM_Label_1349, __D0move_robot
15	576	62	#line 576 "C:\Users\Sakeeb\Documents\School\Fall 2017\CSCC85\Phase 1\Phase1---Little-Lost-Robot\Distro\pfilter prob.nxc"
15	577	62		set __moveForward_7qG2_seconds_7qG2_000, 1
15	576	65	#line 576 "C:\Users\Sakeeb\Documents\School\Fall 2017\CSCC85\Phase 1\Phase1---Little-Lost-Robot\Distro\pfilter prob.nxc"
15	577	65	#line 577 "C:\Users\Sakeeb\Documents\School\Fall 2017\CSCC85\Phase 1\Phase1---Little-Lost-Robot\Distro\pfilter prob.nxc"
15	578	65		subcall moveForward, __moveForward_return
15	577	68	#line 577 "C:\Users\Sakeeb\Documents\School\Fall 2017\CSCC85\Phase 1\Phase1---Little-Lost-Robot\Distro\pfilter prob.nxc"
15	581	68	#line 581 "C:\Users\Sakeeb\Documents\School\Fall 2017\CSCC85\Phase 1\Phase1---Little-Lost-Robot\Distro\pfilter prob.nxc"
15	581	68	#line 581 "C:\Users\Sakeeb\Documents\School\Fall 2017\CSCC85\Phase 1\Phase1---Little-Lost-Robot\Distro\pfilter prob.nxc"
15	582	68		jmp __ASM_Label_1352
15	581	70	#line 581 "C:\Users\Sakeeb\Documents\School\Fall 2017\CSCC85\Phase 1\Phase1---Little-Lost-Robot\Distro\pfilter prob.nxc"
15	582	70		mov __signed_stack_001move_robot, __move_robot_7qG2_color_7qG2_000
15	581	72	#line 581 "C:\Users\Sakeeb\Documents\School\Fall 2017\CSCC85\Phase 1\Phase1---Little-Lost-Robot\Distro\pfilter prob.nxc"
15	581	72	#line 581 "C:\Users\Sakeeb\Documents\School\Fall 2017\CSCC85\Phase 1\Phase1---Little-Lost-Robot\Distro\pfilter prob.nxc"
15	582	72		set __D0move_robot, 2
15	581	75	#line 581 "C:\Users\Sakeeb\Documents\School\Fall 2017\CSCC85\Phase 1\Phase1---Little-Lost-Robot\Distro\pfilter prob.nxc"
15	582	75		cmp 4, __D0move_robot, __signed_stack_001move_robot, __D0move_robot
15	581	79	#line 581 "C:\Users\Sakeeb\Documents\School\Fall 2017\CSCC85\Phase 1\Phase1---Little-Lost-Robot\Distro\pfilter prob.nxc"
15	582	79		brtst 5, __ASM_Label_1353, __D0move_robot
15	581	82	#line 581 "C:\Users\Sakeeb\Documents\School\Fall 2017\CSCC85\Phase 1\Phase1---Little-Lost-Robot\Distro\pfilter prob.nxc"
15	582	82		mov __signed_stack_001move_robot, __move_robot_7qG2_color_7qG2_000
15	581	84	#line 581 "C:\Users\Sakeeb\Documents\School\Fall 2017\CSCC85\Phase 1\Phase1---Little-Lost-Robot\Distro\pfilter prob.nxc"
15	581	84	#line 581 "C:\Users\Sakeeb\Documents\School\Fall 2017\CSCC85\Phase 1\Phase1---Little-Lost-Robot\Distro\pfilter prob.nxc"
15	582	84		set __D0move_robot, 3
15	581	87	#line 581 "C:\Users\Sakeeb\Documents\School\Fall 2017\CSCC85\Phase 1\Phase1---Little-Lost-Robot\Distro\pfilter prob.nxc"
15	582	87		cmp 4, __D0move_robot, __signed_stack_001move_robot, __D0move_robot
15	581	91	#line 581 "C:\Users\Sakeeb\Documents\School\Fall 2017\CSCC85\Phase 1\Phase1---Little-Lost-Robot\Distro\pfilter prob.nxc"
15	582	91		brtst 5, __ASM_Label_1353, __D0move_robot
15	581	94	#line 581 "C:\Users\Sakeeb\Documents\School\Fall 2017\CSCC85\Phase 1\Phase1---Little-Lost-Robot\Distro\pfilter prob.nxc"
15	582	94		mov __signed_stack_001move_robot, __move_robot_7qG2_color_7qG2_000
15	581	96	#line 581 "C:\Users\Sakeeb\Documents\School\Fall 2017\CSCC85\Phase 1\Phase1---Little-Lost-Robot\Distro\pfilter prob.nxc"
15	581	96	#line 581 "C:\Users\Sakeeb\Documents\School\Fall 2017\CSCC85\Phase 1\Phase1---Little-Lost-Robot\Distro\pfilter prob.nxc"
15	582	96		set __D0move_robot, 6
15	581	99	#line 581 "C:\Users\Sakeeb\Documents\School\Fall 2017\CSCC85\Phase 1\Phase1---Little-Lost-Robot\Distro\pfilter prob.nxc"
15	582	99		cmp 4, __D0move_robot, __signed_stack_001move_robot, __D0move_robot
15	582	103	#line 582 "C:\Users\Sakeeb\Documents\School\Fall 2017\CSCC85\Phase 1\Phase1---Little-Lost-Robot\Distro\pfilter prob.nxc"
15	583	103		brtst 4, __ASM_Label_1357, __D0move_robot
15	583	106	#line 583 "C:\Users\Sakeeb\Documents\School\Fall 2017\CSCC85\Phase 1\Phase1---Little-Lost-Robot\Distro\pfilter prob.nxc"
15	584	106		subcall adjust, __adjust_return
15	583	109	#line 583 "C:\Users\Sakeeb\Documents\School\Fall 2017\CSCC85\Phase 1\Phase1---Little-Lost-Robot\Distro\pfilter prob.nxc"
15	591	109	#line 591 "C:\Users\Sakeeb\Documents\School\Fall 2017\CSCC85\Phase 1\Phase1---Little-Lost-Robot\Distro\pfilter prob.nxc"
15	591	109	#line 591 "C:\Users\Sakeeb\Documents\School\Fall 2017\CSCC85\Phase 1\Phase1---Little-Lost-Robot\Distro\pfilter prob.nxc"
15	591	109	#line 591 "C:\Users\Sakeeb\Documents\School\Fall 2017\CSCC85\Phase 1\Phase1---Little-Lost-Robot\Distro\pfilter prob.nxc"
15	591	109	#line 591 "C:\Users\Sakeeb\Documents\School\Fall 2017\CSCC85\Phase 1\Phase1---Little-Lost-Robot\Distro\pfilter prob.nxc"
15	592	109		subret __move_robot_return
16	606	0	#line 606 "C:\Users\Sakeeb\Documents\School\Fall 2017\CSCC85\Phase 1\Phase1---Little-Lost-Robot\Distro\pfilter prob.nxc"
16	607	0		set __moveForward_7qG2_seconds_7qG2_000, 10
16	606	3	#line 606 "C:\Users\Sakeeb\Documents\School\Fall 2017\CSCC85\Phase 1\Phase1---Little-Lost-Robot\Distro\pfilter prob.nxc"
16	607	3	#line 607 "C:\Users\Sakeeb\Documents\School\Fall 2017\CSCC85\Phase 1\Phase1---Little-Lost-Robot\Distro\pfilter prob.nxc"
16	608	3		subcall moveForward, __moveForward_return
16	607	6	#line 607 "C:\Users\Sakeeb\Documents\School\Fall 2017\CSCC85\Phase 1\Phase1---Little-Lost-Robot\Distro\pfilter prob.nxc"
16	607	6	#line 607 "C:\Users\Sakeeb\Documents\School\Fall 2017\CSCC85\Phase 1\Phase1---Little-Lost-Robot\Distro\pfilter prob.nxc"
16	608	6		set __robot_sense_7qG2_iter_7qG2_000, 200
16	607	9	#line 607 "C:\Users\Sakeeb\Documents\School\Fall 2017\CSCC85\Phase 1\Phase1---Little-Lost-Robot\Distro\pfilter prob.nxc"
16	608	9	#line 608 "C:\Users\Sakeeb\Documents\School\Fall 2017\CSCC85\Phase 1\Phase1---Little-Lost-Robot\Distro\pfilter prob.nxc"
16	609	9		subcall robot_sense, __robot_sense_return
16	608	12	#line 608 "C:\Users\Sakeeb\Documents\School\Fall 2017\CSCC85\Phase 1\Phase1---Little-Lost-Robot\Distro\pfilter prob.nxc"
16	609	12		mov __scan_surroundings_7qG2_nColor_7qG2_000, __D0robot_sense
16	608	14	#line 608 "C:\Users\Sakeeb\Documents\School\Fall 2017\CSCC85\Phase 1\Phase1---Little-Lost-Robot\Distro\pfilter prob.nxc"
16	608	14	#line 608 "C:\Users\Sakeeb\Documents\School\Fall 2017\CSCC85\Phase 1\Phase1---Little-Lost-Robot\Distro\pfilter prob.nxc"
16	608	14	#line 608 "C:\Users\Sakeeb\Documents\School\Fall 2017\CSCC85\Phase 1\Phase1---Little-Lost-Robot\Distro\pfilter prob.nxc"
16	609	14		mov __signed_stack_001scan_surroundings, __scan_surroundings_7qG2_nColor_7qG2_000
16	608	16	#line 608 "C:\Users\Sakeeb\Documents\School\Fall 2017\CSCC85\Phase 1\Phase1---Little-Lost-Robot\Distro\pfilter prob.nxc"
16	608	16	#line 608 "C:\Users\Sakeeb\Documents\School\Fall 2017\CSCC85\Phase 1\Phase1---Little-Lost-Robot\Distro\pfilter prob.nxc"
16	609	16		set __D0scan_surroundings, 1
16	608	19	#line 608 "C:\Users\Sakeeb\Documents\School\Fall 2017\CSCC85\Phase 1\Phase1---Little-Lost-Robot\Distro\pfilter prob.nxc"
16	609	19		cmp 5, __D0scan_surroundings, __signed_stack_001scan_surroundings, __D0scan_surroundings
16	609	23	#line 609 "C:\Users\Sakeeb\Documents\School\Fall 2017\CSCC85\Phase 1\Phase1---Little-Lost-Robot\Distro\pfilter prob.nxc"
16	610	23		brtst 4, __ASM_Label_1366, __D0scan_surroundings
16	610	26	#line 610 "C:\Users\Sakeeb\Documents\School\Fall 2017\CSCC85\Phase 1\Phase1---Little-Lost-Robot\Distro\pfilter prob.nxc"
16	611	26		subcall adjust, __adjust_return
16	610	29	#line 610 "C:\Users\Sakeeb\Documents\School\Fall 2017\CSCC85\Phase 1\Phase1---Little-Lost-Robot\Distro\pfilter prob.nxc"
16	611	29	#line 611 "C:\Users\Sakeeb\Documents\School\Fall 2017\CSCC85\Phase 1\Phase1---Little-Lost-Robot\Distro\pfilter prob.nxc"
16	611	29	#line 611 "C:\Users\Sakeeb\Documents\School\Fall 2017\CSCC85\Phase 1\Phase1---Little-Lost-Robot\Distro\pfilter prob.nxc"
16	612	29		set __Wait_7qG2_ms_7qG2_000_inline_scan_surroundings, 100
16	611	32	#line 611 "C:\Users\Sakeeb\Documents\School\Fall 2017\CSCC85\Phase 1\Phase1---Little-Lost-Robot\Distro\pfilter prob.nxc"
16	8551	32	#line 8551 "NXCDefs.h"
16	8552	32		wait2 NA, __Wait_7qG2_ms_7qG2_000_inline_scan_surroundings
16	8551	35	#line 8551 "NXCDefs.h"
16	612	35	#line 612 "C:\Users\Sakeeb\Documents\School\Fall 2017\CSCC85\Phase 1\Phase1---Little-Lost-Robot\Distro\pfilter prob.nxc"
16	612	35	#line 612 "C:\Users\Sakeeb\Documents\School\Fall 2017\CSCC85\Phase 1\Phase1---Little-Lost-Robot\Distro\pfilter prob.nxc"
16	613	35		set __moveBackward_7qG2_seconds_7qG2_000, 13
16	612	38	#line 612 "C:\Users\Sakeeb\Documents\School\Fall 2017\CSCC85\Phase 1\Phase1---Little-Lost-Robot\Distro\pfilter prob.nxc"
16	614	38	#line 614 "C:\Users\Sakeeb\Documents\School\Fall 2017\CSCC85\Phase 1\Phase1---Little-Lost-Robot\Distro\pfilter prob.nxc"
16	615	38		subcall moveBackward, __moveBackward_return
16	614	41	#line 614 "C:\Users\Sakeeb\Documents\School\Fall 2017\CSCC85\Phase 1\Phase1---Little-Lost-Robot\Distro\pfilter prob.nxc"
16	614	41	#line 614 "C:\Users\Sakeeb\Documents\School\Fall 2017\CSCC85\Phase 1\Phase1---Little-Lost-Robot\Distro\pfilter prob.nxc"
16	615	41		mov __signed_stack_001scan_surroundings, __scan_surroundings_7qG2_nColor_7qG2_000
16	614	43	#line 614 "C:\Users\Sakeeb\Documents\School\Fall 2017\CSCC85\Phase 1\Phase1---Little-Lost-Robot\Distro\pfilter prob.nxc"
16	614	43	#line 614 "C:\Users\Sakeeb\Documents\School\Fall 2017\CSCC85\Phase 1\Phase1---Little-Lost-Robot\Distro\pfilter prob.nxc"
16	615	43		set __D0scan_surroundings, 1
16	614	46	#line 614 "C:\Users\Sakeeb\Documents\School\Fall 2017\CSCC85\Phase 1\Phase1---Little-Lost-Robot\Distro\pfilter prob.nxc"
16	615	46		cmp 5, __D0scan_surroundings, __signed_stack_001scan_surroundings, __D0scan_surroundings
16	615	50	#line 615 "C:\Users\Sakeeb\Documents\School\Fall 2017\CSCC85\Phase 1\Phase1---Little-Lost-Robot\Distro\pfilter prob.nxc"
16	616	50		brtst 4, __ASM_Label_1373, __D0scan_surroundings
16	616	53	#line 616 "C:\Users\Sakeeb\Documents\School\Fall 2017\CSCC85\Phase 1\Phase1---Little-Lost-Robot\Distro\pfilter prob.nxc"
16	617	53		subcall adjust, __adjust_return
16	616	56	#line 616 "C:\Users\Sakeeb\Documents\School\Fall 2017\CSCC85\Phase 1\Phase1---Little-Lost-Robot\Distro\pfilter prob.nxc"
16	618	56	#line 618 "C:\Users\Sakeeb\Documents\School\Fall 2017\CSCC85\Phase 1\Phase1---Little-Lost-Robot\Distro\pfilter prob.nxc"
16	619	56	#line 619 "C:\Users\Sakeeb\Documents\School\Fall 2017\CSCC85\Phase 1\Phase1---Little-Lost-Robot\Distro\pfilter prob.nxc"
16	620	56		subcall find_left, __find_left_return
16	619	59	#line 619 "C:\Users\Sakeeb\Documents\School\Fall 2017\CSCC85\Phase 1\Phase1---Little-Lost-Robot\Distro\pfilter prob.nxc"
16	620	59		mov __scan_surroundings_7qG2_rsense_7qG2_000.SW, __D0find_left
16	619	62	#line 619 "C:\Users\Sakeeb\Documents\School\Fall 2017\CSCC85\Phase 1\Phase1---Little-Lost-Robot\Distro\pfilter prob.nxc"
16	619	62	#line 619 "C:\Users\Sakeeb\Documents\School\Fall 2017\CSCC85\Phase 1\Phase1---Little-Lost-Robot\Distro\pfilter prob.nxc"
16	619	62	#line 619 "C:\Users\Sakeeb\Documents\School\Fall 2017\CSCC85\Phase 1\Phase1---Little-Lost-Robot\Distro\pfilter prob.nxc"
16	620	62		set __Wait_7qG2_ms_7qG2_000_inline_scan_surroundings, 1000
16	619	65	#line 619 "C:\Users\Sakeeb\Documents\School\Fall 2017\CSCC85\Phase 1\Phase1---Little-Lost-Robot\Distro\pfilter prob.nxc"
16	8551	65	#line 8551 "NXCDefs.h"
16	8552	65		wait2 NA, __Wait_7qG2_ms_7qG2_000_inline_scan_surroundings
16	8551	68	#line 8551 "NXCDefs.h"
16	621	68	#line 621 "C:\Users\Sakeeb\Documents\School\Fall 2017\CSCC85\Phase 1\Phase1---Little-Lost-Robot\Distro\pfilter prob.nxc"
16	622	68	#line 622 "C:\Users\Sakeeb\Documents\School\Fall 2017\CSCC85\Phase 1\Phase1---Little-Lost-Robot\Distro\pfilter prob.nxc"
16	623	68		subcall find_right, __find_right_return
16	622	71	#line 622 "C:\Users\Sakeeb\Documents\School\Fall 2017\CSCC85\Phase 1\Phase1---Little-Lost-Robot\Distro\pfilter prob.nxc"
16	623	71		mov __scan_surroundings_7qG2_rsense_7qG2_000.SE, __D0find_right
16	622	74	#line 622 "C:\Users\Sakeeb\Documents\School\Fall 2017\CSCC85\Phase 1\Phase1---Little-Lost-Robot\Distro\pfilter prob.nxc"
16	622	74	#line 622 "C:\Users\Sakeeb\Documents\School\Fall 2017\CSCC85\Phase 1\Phase1---Little-Lost-Robot\Distro\pfilter prob.nxc"
16	622	74	#line 622 "C:\Users\Sakeeb\Documents\School\Fall 2017\CSCC85\Phase 1\Phase1---Little-Lost-Robot\Distro\pfilter prob.nxc"
16	623	74		set __Wait_7qG2_ms_7qG2_000_inline_scan_surroundings, 1000
16	622	77	#line 622 "C:\Users\Sakeeb\Documents\School\Fall 2017\CSCC85\Phase 1\Phase1---Little-Lost-Robot\Distro\pfilter prob.nxc"
16	8551	77	#line 8551 "NXCDefs.h"
16	8552	77		wait2 NA, __Wait_7qG2_ms_7qG2_000_inline_scan_surroundings
16	8551	80	#line 8551 "NXCDefs.h"
16	624	80	#line 624 "C:\Users\Sakeeb\Documents\School\Fall 2017\CSCC85\Phase 1\Phase1---Little-Lost-Robot\Distro\pfilter prob.nxc"
16	624	80	#line 624 "C:\Users\Sakeeb\Documents\School\Fall 2017\CSCC85\Phase 1\Phase1---Little-Lost-Robot\Distro\pfilter prob.nxc"
16	625	80		set __moveForward_7qG2_seconds_7qG2_000, 13
16	624	83	#line 624 "C:\Users\Sakeeb\Documents\School\Fall 2017\CSCC85\Phase 1\Phase1---Little-Lost-Robot\Distro\pfilter prob.nxc"
16	625	83	#line 625 "C:\Users\Sakeeb\Documents\School\Fall 2017\CSCC85\Phase 1\Phase1---Little-Lost-Robot\Distro\pfilter prob.nxc"
16	626	83		subcall moveForward, __moveForward_return
16	625	86	#line 625 "C:\Users\Sakeeb\Documents\School\Fall 2017\CSCC85\Phase 1\Phase1---Little-Lost-Robot\Distro\pfilter prob.nxc"
16	625	86	#line 625 "C:\Users\Sakeeb\Documents\School\Fall 2017\CSCC85\Phase 1\Phase1---Little-Lost-Robot\Distro\pfilter prob.nxc"
16	626	86		set __robot_sense_7qG2_iter_7qG2_000, 200
16	625	89	#line 625 "C:\Users\Sakeeb\Documents\School\Fall 2017\CSCC85\Phase 1\Phase1---Little-Lost-Robot\Distro\pfilter prob.nxc"
16	626	89	#line 626 "C:\Users\Sakeeb\Documents\School\Fall 2017\CSCC85\Phase 1\Phase1---Little-Lost-Robot\Distro\pfilter prob.nxc"
16	627	89		subcall robot_sense, __robot_sense_return
16	626	92	#line 626 "C:\Users\Sakeeb\Documents\School\Fall 2017\CSCC85\Phase 1\Phase1---Little-Lost-Robot\Distro\pfilter prob.nxc"
16	627	92		mov __scan_surroundings_7qG2_nColor_7qG2_000, __D0robot_sense
16	626	94	#line 626 "C:\Users\Sakeeb\Documents\School\Fall 2017\CSCC85\Phase 1\Phase1---Little-Lost-Robot\Distro\pfilter prob.nxc"
16	626	94	#line 626 "C:\Users\Sakeeb\Documents\School\Fall 2017\CSCC85\Phase 1\Phase1---Little-Lost-Robot\Distro\pfilter prob.nxc"
16	626	94	#line 626 "C:\Users\Sakeeb\Documents\School\Fall 2017\CSCC85\Phase 1\Phase1---Little-Lost-Robot\Distro\pfilter prob.nxc"
16	627	94		mov __signed_stack_001scan_surroundings, __scan_surroundings_7qG2_nColor_7qG2_000
16	626	96	#line 626 "C:\Users\Sakeeb\Documents\School\Fall 2017\CSCC85\Phase 1\Phase1---Little-Lost-Robot\Distro\pfilter prob.nxc"
16	626	96	#line 626 "C:\Users\Sakeeb\Documents\School\Fall 2017\CSCC85\Phase 1\Phase1---Little-Lost-Robot\Distro\pfilter prob.nxc"
16	627	96		set __D0scan_surroundings, 1
16	626	99	#line 626 "C:\Users\Sakeeb\Documents\School\Fall 2017\CSCC85\Phase 1\Phase1---Little-Lost-Robot\Distro\pfilter prob.nxc"
16	627	99		cmp 5, __D0scan_surroundings, __signed_stack_001scan_surroundings, __D0scan_surroundings
16	627	103	#line 627 "C:\Users\Sakeeb\Documents\School\Fall 2017\CSCC85\Phase 1\Phase1---Little-Lost-Robot\Distro\pfilter prob.nxc"
16	628	103		brtst 4, __ASM_Label_1390, __D0scan_surroundings
16	628	106	#line 628 "C:\Users\Sakeeb\Documents\School\Fall 2017\CSCC85\Phase 1\Phase1---Little-Lost-Robot\Distro\pfilter prob.nxc"
16	629	106		subcall adjust, __adjust_return
16	628	109	#line 628 "C:\Users\Sakeeb\Documents\School\Fall 2017\CSCC85\Phase 1\Phase1---Little-Lost-Robot\Distro\pfilter prob.nxc"
16	630	109	#line 630 "C:\Users\Sakeeb\Documents\School\Fall 2017\CSCC85\Phase 1\Phase1---Little-Lost-Robot\Distro\pfilter prob.nxc"
16	631	109	#line 631 "C:\Users\Sakeeb\Documents\School\Fall 2017\CSCC85\Phase 1\Phase1---Little-Lost-Robot\Distro\pfilter prob.nxc"
16	632	109		subcall find_left, __find_left_return
16	631	112	#line 631 "C:\Users\Sakeeb\Documents\School\Fall 2017\CSCC85\Phase 1\Phase1---Little-Lost-Robot\Distro\pfilter prob.nxc"
16	632	112		mov __scan_surroundings_7qG2_rsense_7qG2_000.NW, __D0find_left
16	631	115	#line 631 "C:\Users\Sakeeb\Documents\School\Fall 2017\CSCC85\Phase 1\Phase1---Little-Lost-Robot\Distro\pfilter prob.nxc"
16	631	115	#line 631 "C:\Users\Sakeeb\Documents\School\Fall 2017\CSCC85\Phase 1\Phase1---Little-Lost-Robot\Distro\pfilter prob.nxc"
16	631	115	#line 631 "C:\Users\Sakeeb\Documents\School\Fall 2017\CSCC85\Phase 1\Phase1---Little-Lost-Robot\Distro\pfilter prob.nxc"
16	632	115		set __Wait_7qG2_ms_7qG2_000_inline_scan_surroundings, 1000
16	631	118	#line 631 "C:\Users\Sakeeb\Documents\School\Fall 2017\CSCC85\Phase 1\Phase1---Little-Lost-Robot\Distro\pfilter prob.nxc"
16	8551	118	#line 8551 "NXCDefs.h"
16	8552	118		wait2 NA, __Wait_7qG2_ms_7qG2_000_inline_scan_surroundings
16	8551	121	#line 8551 "NXCDefs.h"
16	633	121	#line 633 "C:\Users\Sakeeb\Documents\School\Fall 2017\CSCC85\Phase 1\Phase1---Little-Lost-Robot\Distro\pfilter prob.nxc"
16	634	121	#line 634 "C:\Users\Sakeeb\Documents\School\Fall 2017\CSCC85\Phase 1\Phase1---Little-Lost-Robot\Distro\pfilter prob.nxc"
16	635	121		subcall find_right, __find_right_return
16	634	124	#line 634 "C:\Users\Sakeeb\Documents\School\Fall 2017\CSCC85\Phase 1\Phase1---Little-Lost-Robot\Distro\pfilter prob.nxc"
16	635	124		mov __scan_surroundings_7qG2_rsense_7qG2_000.NE, __D0find_right
16	634	127	#line 634 "C:\Users\Sakeeb\Documents\School\Fall 2017\CSCC85\Phase 1\Phase1---Little-Lost-Robot\Distro\pfilter prob.nxc"
16	634	127	#line 634 "C:\Users\Sakeeb\Documents\School\Fall 2017\CSCC85\Phase 1\Phase1---Little-Lost-Robot\Distro\pfilter prob.nxc"
16	634	127	#line 634 "C:\Users\Sakeeb\Documents\School\Fall 2017\CSCC85\Phase 1\Phase1---Little-Lost-Robot\Distro\pfilter prob.nxc"
16	635	127		set __Wait_7qG2_ms_7qG2_000_inline_scan_surroundings, 1000
16	634	130	#line 634 "C:\Users\Sakeeb\Documents\School\Fall 2017\CSCC85\Phase 1\Phase1---Little-Lost-Robot\Distro\pfilter prob.nxc"
16	8551	130	#line 8551 "NXCDefs.h"
16	8552	130		wait2 NA, __Wait_7qG2_ms_7qG2_000_inline_scan_surroundings
16	8551	133	#line 8551 "NXCDefs.h"
16	636	133	#line 636 "C:\Users\Sakeeb\Documents\School\Fall 2017\CSCC85\Phase 1\Phase1---Little-Lost-Robot\Distro\pfilter prob.nxc"
16	637	133	#line 637 "C:\Users\Sakeeb\Documents\School\Fall 2017\CSCC85\Phase 1\Phase1---Little-Lost-Robot\Distro\pfilter prob.nxc"
16	638	133		mov __result_scan_surroundings, __scan_surroundings_7qG2_rsense_7qG2_000
16	637	135	#line 637 "C:\Users\Sakeeb\Documents\School\Fall 2017\CSCC85\Phase 1\Phase1---Little-Lost-Robot\Distro\pfilter prob.nxc"
16	638	135		subret __scan_surroundings_return
16	637	137	#line 637 "C:\Users\Sakeeb\Documents\School\Fall 2017\CSCC85\Phase 1\Phase1---Little-Lost-Robot\Distro\pfilter prob.nxc"
16	645	137	#line 645 "C:\Users\Sakeeb\Documents\School\Fall 2017\CSCC85\Phase 1\Phase1---Little-Lost-Robot\Distro\pfilter prob.nxc"
16	646	137		subret __scan_surroundings_return
17	653	0	#line 653 "C:\Users\Sakeeb\Documents\School\Fall 2017\CSCC85\Phase 1\Phase1---Little-Lost-Robot\Distro\pfilter prob.nxc"
17	654	0		mov __signed_stack_001change_direction, __change_direction_7qG2_new_7qG2_000
17	653	2	#line 653 "C:\Users\Sakeeb\Documents\School\Fall 2017\CSCC85\Phase 1\Phase1---Little-Lost-Robot\Distro\pfilter prob.nxc"
17	655	2	#line 655 "C:\Users\Sakeeb\Documents\School\Fall 2017\CSCC85\Phase 1\Phase1---Little-Lost-Robot\Distro\pfilter prob.nxc"
17	656	2		mov __D0change_direction, __change_direction_7qG2_orig_7qG2_000
17	655	4	#line 655 "C:\Users\Sakeeb\Documents\School\Fall 2017\CSCC85\Phase 1\Phase1---Little-Lost-Robot\Distro\pfilter prob.nxc"
17	656	4		sub __change_direction_7qG2_change_7qG2_000, __signed_stack_001change_direction, __D0change_direction
17	655	8	#line 655 "C:\Users\Sakeeb\Documents\School\Fall 2017\CSCC85\Phase 1\Phase1---Little-Lost-Robot\Distro\pfilter prob.nxc"
17	655	8	#line 655 "C:\Users\Sakeeb\Documents\School\Fall 2017\CSCC85\Phase 1\Phase1---Little-Lost-Robot\Distro\pfilter prob.nxc"
17	656	8		mov __D0change_direction, __change_direction_7qG2_change_7qG2_000
17	659	10		brcmp 4, __ASM_Label_1404, __constVal3, __D0change_direction
17	660	14		brcmp 4, __ASM_Label_1407, __constValNeg1, __D0change_direction
17	661	18		brcmp 4, __ASM_Label_1410, __constValNeg3, __D0change_direction
17	662	22		brcmp 4, __ASM_Label_1413, __constVal1, __D0change_direction
17	663	26		brcmp 4, __ASM_Label_1416, __constVal2, __D0change_direction
17	664	30		brcmp 4, __ASM_Label_1419, __constValNeg2, __D0change_direction
17	665	34		jmp __ASM_Label_1403
17	657	36	#line 657 "C:\Users\Sakeeb\Documents\School\Fall 2017\CSCC85\Phase 1\Phase1---Little-Lost-Robot\Distro\pfilter prob.nxc"
17	657	36	#line 657 "C:\Users\Sakeeb\Documents\School\Fall 2017\CSCC85\Phase 1\Phase1---Little-Lost-Robot\Distro\pfilter prob.nxc"
17	658	36		set __turnLeft_7qG2_degree_7qG2_000, 80
17	657	39	#line 657 "C:\Users\Sakeeb\Documents\School\Fall 2017\CSCC85\Phase 1\Phase1---Little-Lost-Robot\Distro\pfilter prob.nxc"
17	658	39	#line 658 "C:\Users\Sakeeb\Documents\School\Fall 2017\CSCC85\Phase 1\Phase1---Little-Lost-Robot\Distro\pfilter prob.nxc"
17	659	39		subcall turnLeft, __turnLeft_return
17	658	42	#line 658 "C:\Users\Sakeeb\Documents\School\Fall 2017\CSCC85\Phase 1\Phase1---Little-Lost-Robot\Distro\pfilter prob.nxc"
17	659	42	#line 659 "C:\Users\Sakeeb\Documents\School\Fall 2017\CSCC85\Phase 1\Phase1---Little-Lost-Robot\Distro\pfilter prob.nxc"
17	660	42		subcall adjust, __adjust_return
17	659	45	#line 659 "C:\Users\Sakeeb\Documents\School\Fall 2017\CSCC85\Phase 1\Phase1---Little-Lost-Robot\Distro\pfilter prob.nxc"
17	660	45	#line 660 "C:\Users\Sakeeb\Documents\School\Fall 2017\CSCC85\Phase 1\Phase1---Little-Lost-Robot\Distro\pfilter prob.nxc"
17	661	45		jmp __ASM_Label_1403
17	660	47	#line 660 "C:\Users\Sakeeb\Documents\School\Fall 2017\CSCC85\Phase 1\Phase1---Little-Lost-Robot\Distro\pfilter prob.nxc"
17	662	47	#line 662 "C:\Users\Sakeeb\Documents\School\Fall 2017\CSCC85\Phase 1\Phase1---Little-Lost-Robot\Distro\pfilter prob.nxc"
17	662	47	#line 662 "C:\Users\Sakeeb\Documents\School\Fall 2017\CSCC85\Phase 1\Phase1---Little-Lost-Robot\Distro\pfilter prob.nxc"
17	663	47		set __turnLeft_7qG2_degree_7qG2_000, 80
17	662	50	#line 662 "C:\Users\Sakeeb\Documents\School\Fall 2017\CSCC85\Phase 1\Phase1---Little-Lost-Robot\Distro\pfilter prob.nxc"
17	663	50	#line 663 "C:\Users\Sakeeb\Documents\School\Fall 2017\CSCC85\Phase 1\Phase1---Little-Lost-Robot\Distro\pfilter prob.nxc"
17	664	50		subcall turnLeft, __turnLeft_return
17	663	53	#line 663 "C:\Users\Sakeeb\Documents\School\Fall 2017\CSCC85\Phase 1\Phase1---Little-Lost-Robot\Distro\pfilter prob.nxc"
17	664	53	#line 664 "C:\Users\Sakeeb\Documents\School\Fall 2017\CSCC85\Phase 1\Phase1---Little-Lost-Robot\Distro\pfilter prob.nxc"
17	665	53		subcall adjust, __adjust_return
17	664	56	#line 664 "C:\Users\Sakeeb\Documents\School\Fall 2017\CSCC85\Phase 1\Phase1---Little-Lost-Robot\Distro\pfilter prob.nxc"
17	665	56	#line 665 "C:\Users\Sakeeb\Documents\School\Fall 2017\CSCC85\Phase 1\Phase1---Little-Lost-Robot\Distro\pfilter prob.nxc"
17	666	56		jmp __ASM_Label_1403
17	665	58	#line 665 "C:\Users\Sakeeb\Documents\School\Fall 2017\CSCC85\Phase 1\Phase1---Little-Lost-Robot\Distro\pfilter prob.nxc"
17	666	58	#line 666 "C:\Users\Sakeeb\Documents\School\Fall 2017\CSCC85\Phase 1\Phase1---Little-Lost-Robot\Distro\pfilter prob.nxc"
17	666	58	#line 666 "C:\Users\Sakeeb\Documents\School\Fall 2017\CSCC85\Phase 1\Phase1---Little-Lost-Robot\Distro\pfilter prob.nxc"
17	667	58		set __turnRight_7qG2_degree_7qG2_000, 80
17	666	61	#line 666 "C:\Users\Sakeeb\Documents\School\Fall 2017\CSCC85\Phase 1\Phase1---Little-Lost-Robot\Distro\pfilter prob.nxc"
17	667	61	#line 667 "C:\Users\Sakeeb\Documents\School\Fall 2017\CSCC85\Phase 1\Phase1---Little-Lost-Robot\Distro\pfilter prob.nxc"
17	668	61		subcall turnRight, __turnRight_return
17	667	64	#line 667 "C:\Users\Sakeeb\Documents\School\Fall 2017\CSCC85\Phase 1\Phase1---Little-Lost-Robot\Distro\pfilter prob.nxc"
17	668	64	#line 668 "C:\Users\Sakeeb\Documents\School\Fall 2017\CSCC85\Phase 1\Phase1---Little-Lost-Robot\Distro\pfilter prob.nxc"
17	669	64		subcall adjust, __adjust_return
17	668	67	#line 668 "C:\Users\Sakeeb\Documents\School\Fall 2017\CSCC85\Phase 1\Phase1---Little-Lost-Robot\Distro\pfilter prob.nxc"
17	669	67	#line 669 "C:\Users\Sakeeb\Documents\School\Fall 2017\CSCC85\Phase 1\Phase1---Little-Lost-Robot\Distro\pfilter prob.nxc"
17	670	67		jmp __ASM_Label_1403
17	669	69	#line 669 "C:\Users\Sakeeb\Documents\School\Fall 2017\CSCC85\Phase 1\Phase1---Little-Lost-Robot\Distro\pfilter prob.nxc"
17	671	69	#line 671 "C:\Users\Sakeeb\Documents\School\Fall 2017\CSCC85\Phase 1\Phase1---Little-Lost-Robot\Distro\pfilter prob.nxc"
17	671	69	#line 671 "C:\Users\Sakeeb\Documents\School\Fall 2017\CSCC85\Phase 1\Phase1---Little-Lost-Robot\Distro\pfilter prob.nxc"
17	672	69		set __turnRight_7qG2_degree_7qG2_000, 80
17	671	72	#line 671 "C:\Users\Sakeeb\Documents\School\Fall 2017\CSCC85\Phase 1\Phase1---Little-Lost-Robot\Distro\pfilter prob.nxc"
17	672	72	#line 672 "C:\Users\Sakeeb\Documents\School\Fall 2017\CSCC85\Phase 1\Phase1---Little-Lost-Robot\Distro\pfilter prob.nxc"
17	673	72		subcall turnRight, __turnRight_return
17	672	75	#line 672 "C:\Users\Sakeeb\Documents\School\Fall 2017\CSCC85\Phase 1\Phase1---Little-Lost-Robot\Distro\pfilter prob.nxc"
17	673	75	#line 673 "C:\Users\Sakeeb\Documents\School\Fall 2017\CSCC85\Phase 1\Phase1---Little-Lost-Robot\Distro\pfilter prob.nxc"
17	674	75		subcall adjust, __adjust_return
17	673	78	#line 673 "C:\Users\Sakeeb\Documents\School\Fall 2017\CSCC85\Phase 1\Phase1---Little-Lost-Robot\Distro\pfilter prob.nxc"
17	674	78	#line 674 "C:\Users\Sakeeb\Documents\School\Fall 2017\CSCC85\Phase 1\Phase1---Little-Lost-Robot\Distro\pfilter prob.nxc"
17	675	78		jmp __ASM_Label_1403
17	674	80	#line 674 "C:\Users\Sakeeb\Documents\School\Fall 2017\CSCC85\Phase 1\Phase1---Little-Lost-Robot\Distro\pfilter prob.nxc"
17	675	80	#line 675 "C:\Users\Sakeeb\Documents\School\Fall 2017\CSCC85\Phase 1\Phase1---Little-Lost-Robot\Distro\pfilter prob.nxc"
17	675	80	#line 675 "C:\Users\Sakeeb\Documents\School\Fall 2017\CSCC85\Phase 1\Phase1---Little-Lost-Robot\Distro\pfilter prob.nxc"
17	676	80		set __turnLeft_7qG2_degree_7qG2_000, 155
17	675	83	#line 675 "C:\Users\Sakeeb\Documents\School\Fall 2017\CSCC85\Phase 1\Phase1---Little-Lost-Robot\Distro\pfilter prob.nxc"
17	676	83	#line 676 "C:\Users\Sakeeb\Documents\School\Fall 2017\CSCC85\Phase 1\Phase1---Little-Lost-Robot\Distro\pfilter prob.nxc"
17	677	83		subcall turnLeft, __turnLeft_return
17	676	86	#line 676 "C:\Users\Sakeeb\Documents\School\Fall 2017\CSCC85\Phase 1\Phase1---Little-Lost-Robot\Distro\pfilter prob.nxc"
17	677	86	#line 677 "C:\Users\Sakeeb\Documents\School\Fall 2017\CSCC85\Phase 1\Phase1---Little-Lost-Robot\Distro\pfilter prob.nxc"
17	678	86		subcall adjust, __adjust_return
17	677	89	#line 677 "C:\Users\Sakeeb\Documents\School\Fall 2017\CSCC85\Phase 1\Phase1---Little-Lost-Robot\Distro\pfilter prob.nxc"
17	678	89	#line 678 "C:\Users\Sakeeb\Documents\School\Fall 2017\CSCC85\Phase 1\Phase1---Little-Lost-Robot\Distro\pfilter prob.nxc"
17	679	89		jmp __ASM_Label_1403
17	678	91	#line 678 "C:\Users\Sakeeb\Documents\School\Fall 2017\CSCC85\Phase 1\Phase1---Little-Lost-Robot\Distro\pfilter prob.nxc"
17	680	91	#line 680 "C:\Users\Sakeeb\Documents\School\Fall 2017\CSCC85\Phase 1\Phase1---Little-Lost-Robot\Distro\pfilter prob.nxc"
17	680	91	#line 680 "C:\Users\Sakeeb\Documents\School\Fall 2017\CSCC85\Phase 1\Phase1---Little-Lost-Robot\Distro\pfilter prob.nxc"
17	681	91		set __turnRight_7qG2_degree_7qG2_000, 155
17	680	94	#line 680 "C:\Users\Sakeeb\Documents\School\Fall 2017\CSCC85\Phase 1\Phase1---Little-Lost-Robot\Distro\pfilter prob.nxc"
17	681	94	#line 681 "C:\Users\Sakeeb\Documents\School\Fall 2017\CSCC85\Phase 1\Phase1---Little-Lost-Robot\Distro\pfilter prob.nxc"
17	682	94		subcall turnRight, __turnRight_return
17	681	97	#line 681 "C:\Users\Sakeeb\Documents\School\Fall 2017\CSCC85\Phase 1\Phase1---Little-Lost-Robot\Distro\pfilter prob.nxc"
17	682	97	#line 682 "C:\Users\Sakeeb\Documents\School\Fall 2017\CSCC85\Phase 1\Phase1---Little-Lost-Robot\Distro\pfilter prob.nxc"
17	683	97		subcall adjust, __adjust_return
17	682	100	#line 682 "C:\Users\Sakeeb\Documents\School\Fall 2017\CSCC85\Phase 1\Phase1---Little-Lost-Robot\Distro\pfilter prob.nxc"
17	683	100	#line 683 "C:\Users\Sakeeb\Documents\School\Fall 2017\CSCC85\Phase 1\Phase1---Little-Lost-Robot\Distro\pfilter prob.nxc"
17	683	100	#line 683 "C:\Users\Sakeeb\Documents\School\Fall 2017\CSCC85\Phase 1\Phase1---Little-Lost-Robot\Distro\pfilter prob.nxc"
17	698	100	#line 698 "C:\Users\Sakeeb\Documents\School\Fall 2017\CSCC85\Phase 1\Phase1---Little-Lost-Robot\Distro\pfilter prob.nxc"
17	698	100	#line 698 "C:\Users\Sakeeb\Documents\School\Fall 2017\CSCC85\Phase 1\Phase1---Little-Lost-Robot\Distro\pfilter prob.nxc"
17	699	100		subret __change_direction_return
18	703	0	#line 703 "C:\Users\Sakeeb\Documents\School\Fall 2017\CSCC85\Phase 1\Phase1---Little-Lost-Robot\Distro\pfilter prob.nxc"
18	704	0		mov __signed_stack_001move_to, __move_to_7qG2_s_7qG2_000
18	703	2	#line 703 "C:\Users\Sakeeb\Documents\School\Fall 2017\CSCC85\Phase 1\Phase1---Little-Lost-Robot\Distro\pfilter prob.nxc"
18	704	2	#line 704 "C:\Users\Sakeeb\Documents\School\Fall 2017\CSCC85\Phase 1\Phase1---Little-Lost-Robot\Distro\pfilter prob.nxc"
18	705	2		set __D0move_to, 5
18	704	5	#line 704 "C:\Users\Sakeeb\Documents\School\Fall 2017\CSCC85\Phase 1\Phase1---Little-Lost-Robot\Distro\pfilter prob.nxc"
18	705	5		div __move_to_7qG2_sx_7qG2_000, __signed_stack_001move_to, __D0move_to
18	704	9	#line 704 "C:\Users\Sakeeb\Documents\School\Fall 2017\CSCC85\Phase 1\Phase1---Little-Lost-Robot\Distro\pfilter prob.nxc"
18	704	9	#line 704 "C:\Users\Sakeeb\Documents\School\Fall 2017\CSCC85\Phase 1\Phase1---Little-Lost-Robot\Distro\pfilter prob.nxc"
18	704	9	#line 704 "C:\Users\Sakeeb\Documents\School\Fall 2017\CSCC85\Phase 1\Phase1---Little-Lost-Robot\Distro\pfilter prob.nxc"
18	705	9		mov __signed_stack_001move_to, __move_to_7qG2_s_7qG2_000
18	704	11	#line 704 "C:\Users\Sakeeb\Documents\School\Fall 2017\CSCC85\Phase 1\Phase1---Little-Lost-Robot\Distro\pfilter prob.nxc"
18	705	11	#line 705 "C:\Users\Sakeeb\Documents\School\Fall 2017\CSCC85\Phase 1\Phase1---Little-Lost-Robot\Distro\pfilter prob.nxc"
18	706	11		set __D0move_to, 5
18	705	14	#line 705 "C:\Users\Sakeeb\Documents\School\Fall 2017\CSCC85\Phase 1\Phase1---Little-Lost-Robot\Distro\pfilter prob.nxc"
18	706	14		mod __move_to_7qG2_sy_7qG2_000, __signed_stack_001move_to, __D0move_to
18	705	18	#line 705 "C:\Users\Sakeeb\Documents\School\Fall 2017\CSCC85\Phase 1\Phase1---Little-Lost-Robot\Distro\pfilter prob.nxc"
18	705	18	#line 705 "C:\Users\Sakeeb\Documents\School\Fall 2017\CSCC85\Phase 1\Phase1---Little-Lost-Robot\Distro\pfilter prob.nxc"
18	705	18	#line 705 "C:\Users\Sakeeb\Documents\School\Fall 2017\CSCC85\Phase 1\Phase1---Little-Lost-Robot\Distro\pfilter prob.nxc"
18	706	18		mov __signed_stack_001move_to, __move_to_7qG2_f_7qG2_000
18	705	20	#line 705 "C:\Users\Sakeeb\Documents\School\Fall 2017\CSCC85\Phase 1\Phase1---Little-Lost-Robot\Distro\pfilter prob.nxc"
18	706	20	#line 706 "C:\Users\Sakeeb\Documents\School\Fall 2017\CSCC85\Phase 1\Phase1---Little-Lost-Robot\Distro\pfilter prob.nxc"
18	707	20		set __D0move_to, 5
18	706	23	#line 706 "C:\Users\Sakeeb\Documents\School\Fall 2017\CSCC85\Phase 1\Phase1---Little-Lost-Robot\Distro\pfilter prob.nxc"
18	707	23		div __move_to_7qG2_fx_7qG2_000, __signed_stack_001move_to, __D0move_to
18	706	27	#line 706 "C:\Users\Sakeeb\Documents\School\Fall 2017\CSCC85\Phase 1\Phase1---Little-Lost-Robot\Distro\pfilter prob.nxc"
18	706	27	#line 706 "C:\Users\Sakeeb\Documents\School\Fall 2017\CSCC85\Phase 1\Phase1---Little-Lost-Robot\Distro\pfilter prob.nxc"
18	706	27	#line 706 "C:\Users\Sakeeb\Documents\School\Fall 2017\CSCC85\Phase 1\Phase1---Little-Lost-Robot\Distro\pfilter prob.nxc"
18	707	27		mov __signed_stack_001move_to, __move_to_7qG2_f_7qG2_000
18	706	29	#line 706 "C:\Users\Sakeeb\Documents\School\Fall 2017\CSCC85\Phase 1\Phase1---Little-Lost-Robot\Distro\pfilter prob.nxc"
18	709	29	#line 709 "C:\Users\Sakeeb\Documents\School\Fall 2017\CSCC85\Phase 1\Phase1---Little-Lost-Robot\Distro\pfilter prob.nxc"
18	710	29		set __D0move_to, 5
18	709	32	#line 709 "C:\Users\Sakeeb\Documents\School\Fall 2017\CSCC85\Phase 1\Phase1---Little-Lost-Robot\Distro\pfilter prob.nxc"
18	710	32		mod __move_to_7qG2_fy_7qG2_000, __signed_stack_001move_to, __D0move_to
18	709	36	#line 709 "C:\Users\Sakeeb\Documents\School\Fall 2017\CSCC85\Phase 1\Phase1---Little-Lost-Robot\Distro\pfilter prob.nxc"
18	709	36	#line 709 "C:\Users\Sakeeb\Documents\School\Fall 2017\CSCC85\Phase 1\Phase1---Little-Lost-Robot\Distro\pfilter prob.nxc"
18	709	36	#line 709 "C:\Users\Sakeeb\Documents\School\Fall 2017\CSCC85\Phase 1\Phase1---Little-Lost-Robot\Distro\pfilter prob.nxc"
18	710	36		mov __signed_stack_001move_to, __move_to_7qG2_fx_7qG2_000
18	709	38	#line 709 "C:\Users\Sakeeb\Documents\School\Fall 2017\CSCC85\Phase 1\Phase1---Little-Lost-Robot\Distro\pfilter prob.nxc"
18	710	38	#line 710 "C:\Users\Sakeeb\Documents\School\Fall 2017\CSCC85\Phase 1\Phase1---Little-Lost-Robot\Distro\pfilter prob.nxc"
18	711	38		mov __D0move_to, __move_to_7qG2_sx_7qG2_000
18	710	40	#line 710 "C:\Users\Sakeeb\Documents\School\Fall 2017\CSCC85\Phase 1\Phase1---Little-Lost-Robot\Distro\pfilter prob.nxc"
18	711	40		sub __move_to_7qG2_tx_7qG2_000, __signed_stack_001move_to, __D0move_to
18	710	44	#line 710 "C:\Users\Sakeeb\Documents\School\Fall 2017\CSCC85\Phase 1\Phase1---Little-Lost-Robot\Distro\pfilter prob.nxc"
18	710	44	#line 710 "C:\Users\Sakeeb\Documents\School\Fall 2017\CSCC85\Phase 1\Phase1---Little-Lost-Robot\Distro\pfilter prob.nxc"
18	710	44	#line 710 "C:\Users\Sakeeb\Documents\School\Fall 2017\CSCC85\Phase 1\Phase1---Little-Lost-Robot\Distro\pfilter prob.nxc"
18	711	44		mov __signed_stack_001move_to, __move_to_7qG2_fy_7qG2_000
18	710	46	#line 710 "C:\Users\Sakeeb\Documents\School\Fall 2017\CSCC85\Phase 1\Phase1---Little-Lost-Robot\Distro\pfilter prob.nxc"
18	711	46	#line 711 "C:\Users\Sakeeb\Documents\School\Fall 2017\CSCC85\Phase 1\Phase1---Little-Lost-Robot\Distro\pfilter prob.nxc"
18	712	46		mov __D0move_to, __move_to_7qG2_sy_7qG2_000
18	711	48	#line 711 "C:\Users\Sakeeb\Documents\School\Fall 2017\CSCC85\Phase 1\Phase1---Little-Lost-Robot\Distro\pfilter prob.nxc"
18	712	48		sub __move_to_7qG2_ty_7qG2_000, __signed_stack_001move_to, __D0move_to
18	711	52	#line 711 "C:\Users\Sakeeb\Documents\School\Fall 2017\CSCC85\Phase 1\Phase1---Little-Lost-Robot\Distro\pfilter prob.nxc"
18	711	52	#line 711 "C:\Users\Sakeeb\Documents\School\Fall 2017\CSCC85\Phase 1\Phase1---Little-Lost-Robot\Distro\pfilter prob.nxc"
18	722	52	#line 722 "C:\Users\Sakeeb\Documents\School\Fall 2017\CSCC85\Phase 1\Phase1---Little-Lost-Robot\Distro\pfilter prob.nxc"
18	723	52		mov __move_to_7qG2_heading_7qG2_000, __move_to_7qG2_h_7qG2_000
18	722	54	#line 722 "C:\Users\Sakeeb\Documents\School\Fall 2017\CSCC85\Phase 1\Phase1---Little-Lost-Robot\Distro\pfilter prob.nxc"
18	722	54	#line 722 "C:\Users\Sakeeb\Documents\School\Fall 2017\CSCC85\Phase 1\Phase1---Little-Lost-Robot\Distro\pfilter prob.nxc"
18	725	54	#line 725 "C:\Users\Sakeeb\Documents\School\Fall 2017\CSCC85\Phase 1\Phase1---Little-Lost-Robot\Distro\pfilter prob.nxc"
18	726	54		mov __signed_stack_001move_to, __move_to_7qG2_tx_7qG2_000
18	725	56	#line 725 "C:\Users\Sakeeb\Documents\School\Fall 2017\CSCC85\Phase 1\Phase1---Little-Lost-Robot\Distro\pfilter prob.nxc"
18	725	56	#line 725 "C:\Users\Sakeeb\Documents\School\Fall 2017\CSCC85\Phase 1\Phase1---Little-Lost-Robot\Distro\pfilter prob.nxc"
18	726	56		set __D0move_to, 0
18	725	59	#line 725 "C:\Users\Sakeeb\Documents\School\Fall 2017\CSCC85\Phase 1\Phase1---Little-Lost-Robot\Distro\pfilter prob.nxc"
18	726	59		cmp 5, __D0move_to, __signed_stack_001move_to, __D0move_to
18	727	63	#line 727 "C:\Users\Sakeeb\Documents\School\Fall 2017\CSCC85\Phase 1\Phase1---Little-Lost-Robot\Distro\pfilter prob.nxc"
18	728	63		brtst 4, __ASM_Label_1438, __D0move_to
18	727	66	#line 727 "C:\Users\Sakeeb\Documents\School\Fall 2017\CSCC85\Phase 1\Phase1---Little-Lost-Robot\Distro\pfilter prob.nxc"
18	728	66		mov __signed_stack_001move_to, __move_to_7qG2_tx_7qG2_000
18	727	68	#line 727 "C:\Users\Sakeeb\Documents\School\Fall 2017\CSCC85\Phase 1\Phase1---Little-Lost-Robot\Distro\pfilter prob.nxc"
18	727	68	#line 727 "C:\Users\Sakeeb\Documents\School\Fall 2017\CSCC85\Phase 1\Phase1---Little-Lost-Robot\Distro\pfilter prob.nxc"
18	728	68		set __D0move_to, 0
18	727	71	#line 727 "C:\Users\Sakeeb\Documents\School\Fall 2017\CSCC85\Phase 1\Phase1---Little-Lost-Robot\Distro\pfilter prob.nxc"
18	728	71		cmp 0, __D0move_to, __signed_stack_001move_to, __D0move_to
18	728	75	#line 728 "C:\Users\Sakeeb\Documents\School\Fall 2017\CSCC85\Phase 1\Phase1---Little-Lost-Robot\Distro\pfilter prob.nxc"
18	729	75		brtst 4, __ASM_Label_1441, __D0move_to
18	729	78	#line 729 "C:\Users\Sakeeb\Documents\School\Fall 2017\CSCC85\Phase 1\Phase1---Little-Lost-Robot\Distro\pfilter prob.nxc"
18	730	78		set __move_to_7qG2_newHeading_7qG2_000, 103
18	729	81	#line 729 "C:\Users\Sakeeb\Documents\School\Fall 2017\CSCC85\Phase 1\Phase1---Little-Lost-Robot\Distro\pfilter prob.nxc"
18	729	81	#line 729 "C:\Users\Sakeeb\Documents\School\Fall 2017\CSCC85\Phase 1\Phase1---Little-Lost-Robot\Distro\pfilter prob.nxc"
18	730	81	#line 730 "C:\Users\Sakeeb\Documents\School\Fall 2017\CSCC85\Phase 1\Phase1---Little-Lost-Robot\Distro\pfilter prob.nxc"
18	731	81		set __move_to_7qG2_increment_7qG2_000, 1
18	730	84	#line 730 "C:\Users\Sakeeb\Documents\School\Fall 2017\CSCC85\Phase 1\Phase1---Little-Lost-Robot\Distro\pfilter prob.nxc"
18	730	84	#line 730 "C:\Users\Sakeeb\Documents\School\Fall 2017\CSCC85\Phase 1\Phase1---Little-Lost-Robot\Distro\pfilter prob.nxc"
18	732	84	#line 732 "C:\Users\Sakeeb\Documents\School\Fall 2017\CSCC85\Phase 1\Phase1---Little-Lost-Robot\Distro\pfilter prob.nxc"
18	733	84		jmp __ASM_Label_1446
18	733	86	#line 733 "C:\Users\Sakeeb\Documents\School\Fall 2017\CSCC85\Phase 1\Phase1---Little-Lost-Robot\Distro\pfilter prob.nxc"
18	734	86		set __move_to_7qG2_newHeading_7qG2_000, 101
18	733	89	#line 733 "C:\Users\Sakeeb\Documents\School\Fall 2017\CSCC85\Phase 1\Phase1---Little-Lost-Robot\Distro\pfilter prob.nxc"
18	733	89	#line 733 "C:\Users\Sakeeb\Documents\School\Fall 2017\CSCC85\Phase 1\Phase1---Little-Lost-Robot\Distro\pfilter prob.nxc"
18	734	89	#line 734 "C:\Users\Sakeeb\Documents\School\Fall 2017\CSCC85\Phase 1\Phase1---Little-Lost-Robot\Distro\pfilter prob.nxc"
18	735	89		mov __move_to_7qG2_increment_7qG2_000, __constValNeg1
18	734	91	#line 734 "C:\Users\Sakeeb\Documents\School\Fall 2017\CSCC85\Phase 1\Phase1---Little-Lost-Robot\Distro\pfilter prob.nxc"
18	734	91	#line 734 "C:\Users\Sakeeb\Documents\School\Fall 2017\CSCC85\Phase 1\Phase1---Little-Lost-Robot\Distro\pfilter prob.nxc"
18	737	91	#line 737 "C:\Users\Sakeeb\Documents\School\Fall 2017\CSCC85\Phase 1\Phase1---Little-Lost-Robot\Distro\pfilter prob.nxc"
18	737	91	#line 737 "C:\Users\Sakeeb\Documents\School\Fall 2017\CSCC85\Phase 1\Phase1---Little-Lost-Robot\Distro\pfilter prob.nxc"
18	737	91	#line 737 "C:\Users\Sakeeb\Documents\School\Fall 2017\CSCC85\Phase 1\Phase1---Little-Lost-Robot\Distro\pfilter prob.nxc"
18	738	91		mov __change_direction_7qG2_orig_7qG2_000, __move_to_7qG2_heading_7qG2_000
18	737	93	#line 737 "C:\Users\Sakeeb\Documents\School\Fall 2017\CSCC85\Phase 1\Phase1---Little-Lost-Robot\Distro\pfilter prob.nxc"
18	737	93	#line 737 "C:\Users\Sakeeb\Documents\School\Fall 2017\CSCC85\Phase 1\Phase1---Little-Lost-Robot\Distro\pfilter prob.nxc"
18	738	93		mov __change_direction_7qG2_new_7qG2_000, __move_to_7qG2_newHeading_7qG2_000
18	737	95	#line 737 "C:\Users\Sakeeb\Documents\School\Fall 2017\CSCC85\Phase 1\Phase1---Little-Lost-Robot\Distro\pfilter prob.nxc"
18	738	95	#line 738 "C:\Users\Sakeeb\Documents\School\Fall 2017\CSCC85\Phase 1\Phase1---Little-Lost-Robot\Distro\pfilter prob.nxc"
18	739	95		subcall change_direction, __change_direction_return
18	738	98	#line 738 "C:\Users\Sakeeb\Documents\School\Fall 2017\CSCC85\Phase 1\Phase1---Little-Lost-Robot\Distro\pfilter prob.nxc"
18	740	98	#line 740 "C:\Users\Sakeeb\Documents\School\Fall 2017\CSCC85\Phase 1\Phase1---Little-Lost-Robot\Distro\pfilter prob.nxc"
18	741	98		mov __move_to_7qG2_heading_7qG2_000, __move_to_7qG2_newHeading_7qG2_000
18	740	100	#line 740 "C:\Users\Sakeeb\Documents\School\Fall 2017\CSCC85\Phase 1\Phase1---Little-Lost-Robot\Distro\pfilter prob.nxc"
18	740	100	#line 740 "C:\Users\Sakeeb\Documents\School\Fall 2017\CSCC85\Phase 1\Phase1---Little-Lost-Robot\Distro\pfilter prob.nxc"
18	740	100	#line 740 "C:\Users\Sakeeb\Documents\School\Fall 2017\CSCC85\Phase 1\Phase1---Little-Lost-Robot\Distro\pfilter prob.nxc"
18	741	100		mov __signed_stack_001move_to, __move_to_7qG2_tx_7qG2_000
18	740	102	#line 740 "C:\Users\Sakeeb\Documents\School\Fall 2017\CSCC85\Phase 1\Phase1---Little-Lost-Robot\Distro\pfilter prob.nxc"
18	740	102	#line 740 "C:\Users\Sakeeb\Documents\School\Fall 2017\CSCC85\Phase 1\Phase1---Little-Lost-Robot\Distro\pfilter prob.nxc"
18	741	102		set __D0move_to, 0
18	740	105	#line 740 "C:\Users\Sakeeb\Documents\School\Fall 2017\CSCC85\Phase 1\Phase1---Little-Lost-Robot\Distro\pfilter prob.nxc"
18	741	105		cmp 5, __D0move_to, __signed_stack_001move_to, __D0move_to
18	742	109	#line 742 "C:\Users\Sakeeb\Documents\School\Fall 2017\CSCC85\Phase 1\Phase1---Little-Lost-Robot\Distro\pfilter prob.nxc"
18	743	109		brtst 4, __ASM_Label_1458, __D0move_to
18	742	112	#line 742 "C:\Users\Sakeeb\Documents\School\Fall 2017\CSCC85\Phase 1\Phase1---Little-Lost-Robot\Distro\pfilter prob.nxc"
18	743	112		set __robot_sense_7qG2_iter_7qG2_000, 200
18	742	115	#line 742 "C:\Users\Sakeeb\Documents\School\Fall 2017\CSCC85\Phase 1\Phase1---Little-Lost-Robot\Distro\pfilter prob.nxc"
18	743	115	#line 743 "C:\Users\Sakeeb\Documents\School\Fall 2017\CSCC85\Phase 1\Phase1---Little-Lost-Robot\Distro\pfilter prob.nxc"
18	744	115		subcall robot_sense, __robot_sense_return
18	743	118	#line 743 "C:\Users\Sakeeb\Documents\School\Fall 2017\CSCC85\Phase 1\Phase1---Little-Lost-Robot\Distro\pfilter prob.nxc"
18	744	118		mov __move_to_7qG2_nColor_7qG2_000, __D0robot_sense
18	743	120	#line 743 "C:\Users\Sakeeb\Documents\School\Fall 2017\CSCC85\Phase 1\Phase1---Little-Lost-Robot\Distro\pfilter prob.nxc"
18	743	120	#line 743 "C:\Users\Sakeeb\Documents\School\Fall 2017\CSCC85\Phase 1\Phase1---Little-Lost-Robot\Distro\pfilter prob.nxc"
18	743	120	#line 743 "C:\Users\Sakeeb\Documents\School\Fall 2017\CSCC85\Phase 1\Phase1---Little-Lost-Robot\Distro\pfilter prob.nxc"
18	744	120		mov __move_robot_7qG2_color_7qG2_000, __move_to_7qG2_nColor_7qG2_000
18	743	122	#line 743 "C:\Users\Sakeeb\Documents\School\Fall 2017\CSCC85\Phase 1\Phase1---Little-Lost-Robot\Distro\pfilter prob.nxc"
18	745	122	#line 745 "C:\Users\Sakeeb\Documents\School\Fall 2017\CSCC85\Phase 1\Phase1---Little-Lost-Robot\Distro\pfilter prob.nxc"
18	746	122		subcall move_robot, __move_robot_return
18	745	125	#line 745 "C:\Users\Sakeeb\Documents\School\Fall 2017\CSCC85\Phase 1\Phase1---Little-Lost-Robot\Distro\pfilter prob.nxc"
18	745	125	#line 745 "C:\Users\Sakeeb\Documents\School\Fall 2017\CSCC85\Phase 1\Phase1---Little-Lost-Robot\Distro\pfilter prob.nxc"
18	746	125		mov __signed_stack_001move_to, __move_to_7qG2_nColor_7qG2_000
18	745	127	#line 745 "C:\Users\Sakeeb\Documents\School\Fall 2017\CSCC85\Phase 1\Phase1---Little-Lost-Robot\Distro\pfilter prob.nxc"
18	745	127	#line 745 "C:\Users\Sakeeb\Documents\School\Fall 2017\CSCC85\Phase 1\Phase1---Little-Lost-Robot\Distro\pfilter prob.nxc"
18	746	127		set __D0move_to, 4
18	745	130	#line 745 "C:\Users\Sakeeb\Documents\School\Fall 2017\CSCC85\Phase 1\Phase1---Little-Lost-Robot\Distro\pfilter prob.nxc"
18	746	130		cmp 4, __D0move_to, __signed_stack_001move_to, __D0move_to
18	746	134	#line 746 "C:\Users\Sakeeb\Documents\School\Fall 2017\CSCC85\Phase 1\Phase1---Little-Lost-Robot\Distro\pfilter prob.nxc"
18	747	134		brtst 4, __ASM_Label_1469, __D0move_to
18	746	137	#line 746 "C:\Users\Sakeeb\Documents\School\Fall 2017\CSCC85\Phase 1\Phase1---Little-Lost-Robot\Distro\pfilter prob.nxc"
18	747	137		mov __signed_stack_001move_to, __move_to_7qG2_tx_7qG2_000
18	746	139	#line 746 "C:\Users\Sakeeb\Documents\School\Fall 2017\CSCC85\Phase 1\Phase1---Little-Lost-Robot\Distro\pfilter prob.nxc"
18	747	139	#line 747 "C:\Users\Sakeeb\Documents\School\Fall 2017\CSCC85\Phase 1\Phase1---Little-Lost-Robot\Distro\pfilter prob.nxc"
18	748	139		mov __D0move_to, __move_to_7qG2_increment_7qG2_000
18	747	141	#line 747 "C:\Users\Sakeeb\Documents\School\Fall 2017\CSCC85\Phase 1\Phase1---Little-Lost-Robot\Distro\pfilter prob.nxc"
18	748	141		add __move_to_7qG2_tx_7qG2_000, __signed_stack_001move_to, __D0move_to
18	747	145	#line 747 "C:\Users\Sakeeb\Documents\School\Fall 2017\CSCC85\Phase 1\Phase1---Little-Lost-Robot\Distro\pfilter prob.nxc"
18	747	145	#line 747 "C:\Users\Sakeeb\Documents\School\Fall 2017\CSCC85\Phase 1\Phase1---Little-Lost-Robot\Distro\pfilter prob.nxc"
18	747	145	#line 747 "C:\Users\Sakeeb\Documents\School\Fall 2017\CSCC85\Phase 1\Phase1---Little-Lost-Robot\Distro\pfilter prob.nxc"
18	748	145		set __moveForward_7qG2_seconds_7qG2_000, 16
18	747	148	#line 747 "C:\Users\Sakeeb\Documents\School\Fall 2017\CSCC85\Phase 1\Phase1---Little-Lost-Robot\Distro\pfilter prob.nxc"
18	748	148	#line 748 "C:\Users\Sakeeb\Documents\School\Fall 2017\CSCC85\Phase 1\Phase1---Little-Lost-Robot\Distro\pfilter prob.nxc"
18	749	148		subcall moveForward, __moveForward_return
18	748	151	#line 748 "C:\Users\Sakeeb\Documents\School\Fall 2017\CSCC85\Phase 1\Phase1---Little-Lost-Robot\Distro\pfilter prob.nxc"
18	749	151	#line 749 "C:\Users\Sakeeb\Documents\School\Fall 2017\CSCC85\Phase 1\Phase1---Little-Lost-Robot\Distro\pfilter prob.nxc"
18	750	151		subcall adjust, __adjust_return
18	749	154	#line 749 "C:\Users\Sakeeb\Documents\School\Fall 2017\CSCC85\Phase 1\Phase1---Little-Lost-Robot\Distro\pfilter prob.nxc"
18	754	154	#line 754 "C:\Users\Sakeeb\Documents\School\Fall 2017\CSCC85\Phase 1\Phase1---Little-Lost-Robot\Distro\pfilter prob.nxc"
18	754	154	#line 754 "C:\Users\Sakeeb\Documents\School\Fall 2017\CSCC85\Phase 1\Phase1---Little-Lost-Robot\Distro\pfilter prob.nxc"
18	755	154		jmp __ASM_Label_1457
18	754	156	#line 754 "C:\Users\Sakeeb\Documents\School\Fall 2017\CSCC85\Phase 1\Phase1---Little-Lost-Robot\Distro\pfilter prob.nxc"
18	754	156	#line 754 "C:\Users\Sakeeb\Documents\School\Fall 2017\CSCC85\Phase 1\Phase1---Little-Lost-Robot\Distro\pfilter prob.nxc"
18	755	156		mov __signed_stack_001move_to, __move_to_7qG2_ty_7qG2_000
18	754	158	#line 754 "C:\Users\Sakeeb\Documents\School\Fall 2017\CSCC85\Phase 1\Phase1---Little-Lost-Robot\Distro\pfilter prob.nxc"
18	754	158	#line 754 "C:\Users\Sakeeb\Documents\School\Fall 2017\CSCC85\Phase 1\Phase1---Little-Lost-Robot\Distro\pfilter prob.nxc"
18	755	158		set __D0move_to, 0
18	754	161	#line 754 "C:\Users\Sakeeb\Documents\School\Fall 2017\CSCC85\Phase 1\Phase1---Little-Lost-Robot\Distro\pfilter prob.nxc"
18	755	161		cmp 5, __D0move_to, __signed_stack_001move_to, __D0move_to
18	756	165	#line 756 "C:\Users\Sakeeb\Documents\School\Fall 2017\CSCC85\Phase 1\Phase1---Little-Lost-Robot\Distro\pfilter prob.nxc"
18	757	165		brtst 4, __ASM_Label_1476, __D0move_to
18	756	168	#line 756 "C:\Users\Sakeeb\Documents\School\Fall 2017\CSCC85\Phase 1\Phase1---Little-Lost-Robot\Distro\pfilter prob.nxc"
18	757	168		mov __signed_stack_001move_to, __move_to_7qG2_ty_7qG2_000
18	756	170	#line 756 "C:\Users\Sakeeb\Documents\School\Fall 2017\CSCC85\Phase 1\Phase1---Little-Lost-Robot\Distro\pfilter prob.nxc"
18	756	170	#line 756 "C:\Users\Sakeeb\Documents\School\Fall 2017\CSCC85\Phase 1\Phase1---Little-Lost-Robot\Distro\pfilter prob.nxc"
18	757	170		set __D0move_to, 0
18	756	173	#line 756 "C:\Users\Sakeeb\Documents\School\Fall 2017\CSCC85\Phase 1\Phase1---Little-Lost-Robot\Distro\pfilter prob.nxc"
18	757	173		cmp 0, __D0move_to, __signed_stack_001move_to, __D0move_to
18	757	177	#line 757 "C:\Users\Sakeeb\Documents\School\Fall 2017\CSCC85\Phase 1\Phase1---Little-Lost-Robot\Distro\pfilter prob.nxc"
18	758	177		brtst 4, __ASM_Label_1479, __D0move_to
18	758	180	#line 758 "C:\Users\Sakeeb\Documents\School\Fall 2017\CSCC85\Phase 1\Phase1---Little-Lost-Robot\Distro\pfilter prob.nxc"
18	759	180		set __move_to_7qG2_newHeading_7qG2_000, 100
18	758	183	#line 758 "C:\Users\Sakeeb\Documents\School\Fall 2017\CSCC85\Phase 1\Phase1---Little-Lost-Robot\Distro\pfilter prob.nxc"
18	758	183	#line 758 "C:\Users\Sakeeb\Documents\School\Fall 2017\CSCC85\Phase 1\Phase1---Little-Lost-Robot\Distro\pfilter prob.nxc"
18	759	183	#line 759 "C:\Users\Sakeeb\Documents\School\Fall 2017\CSCC85\Phase 1\Phase1---Little-Lost-Robot\Distro\pfilter prob.nxc"
18	760	183		set __move_to_7qG2_increment_7qG2_000, 1
18	759	186	#line 759 "C:\Users\Sakeeb\Documents\School\Fall 2017\CSCC85\Phase 1\Phase1---Little-Lost-Robot\Distro\pfilter prob.nxc"
18	759	186	#line 759 "C:\Users\Sakeeb\Documents\School\Fall 2017\CSCC85\Phase 1\Phase1---Little-Lost-Robot\Distro\pfilter prob.nxc"
18	761	186	#line 761 "C:\Users\Sakeeb\Documents\School\Fall 2017\CSCC85\Phase 1\Phase1---Little-Lost-Robot\Distro\pfilter prob.nxc"
18	762	186		jmp __ASM_Label_1484
18	762	188	#line 762 "C:\Users\Sakeeb\Documents\School\Fall 2017\CSCC85\Phase 1\Phase1---Little-Lost-Robot\Distro\pfilter prob.nxc"
18	763	188		set __move_to_7qG2_newHeading_7qG2_000, 102
18	762	191	#line 762 "C:\Users\Sakeeb\Documents\School\Fall 2017\CSCC85\Phase 1\Phase1---Little-Lost-Robot\Distro\pfilter prob.nxc"
18	762	191	#line 762 "C:\Users\Sakeeb\Documents\School\Fall 2017\CSCC85\Phase 1\Phase1---Little-Lost-Robot\Distro\pfilter prob.nxc"
18	763	191	#line 763 "C:\Users\Sakeeb\Documents\School\Fall 2017\CSCC85\Phase 1\Phase1---Little-Lost-Robot\Distro\pfilter prob.nxc"
18	764	191		mov __move_to_7qG2_increment_7qG2_000, __constValNeg1
18	763	193	#line 763 "C:\Users\Sakeeb\Documents\School\Fall 2017\CSCC85\Phase 1\Phase1---Little-Lost-Robot\Distro\pfilter prob.nxc"
18	763	193	#line 763 "C:\Users\Sakeeb\Documents\School\Fall 2017\CSCC85\Phase 1\Phase1---Little-Lost-Robot\Distro\pfilter prob.nxc"
18	766	193	#line 766 "C:\Users\Sakeeb\Documents\School\Fall 2017\CSCC85\Phase 1\Phase1---Little-Lost-Robot\Distro\pfilter prob.nxc"
18	766	193	#line 766 "C:\Users\Sakeeb\Documents\School\Fall 2017\CSCC85\Phase 1\Phase1---Little-Lost-Robot\Distro\pfilter prob.nxc"
18	766	193	#line 766 "C:\Users\Sakeeb\Documents\School\Fall 2017\CSCC85\Phase 1\Phase1---Little-Lost-Robot\Distro\pfilter prob.nxc"
18	767	193		mov __change_direction_7qG2_orig_7qG2_000, __move_to_7qG2_heading_7qG2_000
18	766	195	#line 766 "C:\Users\Sakeeb\Documents\School\Fall 2017\CSCC85\Phase 1\Phase1---Little-Lost-Robot\Distro\pfilter prob.nxc"
18	766	195	#line 766 "C:\Users\Sakeeb\Documents\School\Fall 2017\CSCC85\Phase 1\Phase1---Little-Lost-Robot\Distro\pfilter prob.nxc"
18	767	195		mov __change_direction_7qG2_new_7qG2_000, __move_to_7qG2_newHeading_7qG2_000
18	766	197	#line 766 "C:\Users\Sakeeb\Documents\School\Fall 2017\CSCC85\Phase 1\Phase1---Little-Lost-Robot\Distro\pfilter prob.nxc"
18	767	197	#line 767 "C:\Users\Sakeeb\Documents\School\Fall 2017\CSCC85\Phase 1\Phase1---Little-Lost-Robot\Distro\pfilter prob.nxc"
18	768	197		subcall change_direction, __change_direction_return
18	767	200	#line 767 "C:\Users\Sakeeb\Documents\School\Fall 2017\CSCC85\Phase 1\Phase1---Little-Lost-Robot\Distro\pfilter prob.nxc"
18	769	200	#line 769 "C:\Users\Sakeeb\Documents\School\Fall 2017\CSCC85\Phase 1\Phase1---Little-Lost-Robot\Distro\pfilter prob.nxc"
18	770	200		mov __move_to_7qG2_heading_7qG2_000, __move_to_7qG2_newHeading_7qG2_000
18	769	202	#line 769 "C:\Users\Sakeeb\Documents\School\Fall 2017\CSCC85\Phase 1\Phase1---Little-Lost-Robot\Distro\pfilter prob.nxc"
18	769	202	#line 769 "C:\Users\Sakeeb\Documents\School\Fall 2017\CSCC85\Phase 1\Phase1---Little-Lost-Robot\Distro\pfilter prob.nxc"
18	769	202	#line 769 "C:\Users\Sakeeb\Documents\School\Fall 2017\CSCC85\Phase 1\Phase1---Little-Lost-Robot\Distro\pfilter prob.nxc"
18	770	202		mov __signed_stack_001move_to, __move_to_7qG2_ty_7qG2_000
18	769	204	#line 769 "C:\Users\Sakeeb\Documents\School\Fall 2017\CSCC85\Phase 1\Phase1---Little-Lost-Robot\Distro\pfilter prob.nxc"
18	769	204	#line 769 "C:\Users\Sakeeb\Documents\School\Fall 2017\CSCC85\Phase 1\Phase1---Little-Lost-Robot\Distro\pfilter prob.nxc"
18	770	204		set __D0move_to, 0
18	769	207	#line 769 "C:\Users\Sakeeb\Documents\School\Fall 2017\CSCC85\Phase 1\Phase1---Little-Lost-Robot\Distro\pfilter prob.nxc"
18	770	207		cmp 5, __D0move_to, __signed_stack_001move_to, __D0move_to
18	771	211	#line 771 "C:\Users\Sakeeb\Documents\School\Fall 2017\CSCC85\Phase 1\Phase1---Little-Lost-Robot\Distro\pfilter prob.nxc"
18	772	211		brtst 4, __ASM_Label_1496, __D0move_to
18	771	214	#line 771 "C:\Users\Sakeeb\Documents\School\Fall 2017\CSCC85\Phase 1\Phase1---Little-Lost-Robot\Distro\pfilter prob.nxc"
18	772	214		set __robot_sense_7qG2_iter_7qG2_000, 200
18	771	217	#line 771 "C:\Users\Sakeeb\Documents\School\Fall 2017\CSCC85\Phase 1\Phase1---Little-Lost-Robot\Distro\pfilter prob.nxc"
18	772	217	#line 772 "C:\Users\Sakeeb\Documents\School\Fall 2017\CSCC85\Phase 1\Phase1---Little-Lost-Robot\Distro\pfilter prob.nxc"
18	773	217		subcall robot_sense, __robot_sense_return
18	772	220	#line 772 "C:\Users\Sakeeb\Documents\School\Fall 2017\CSCC85\Phase 1\Phase1---Little-Lost-Robot\Distro\pfilter prob.nxc"
18	773	220		mov __move_to_7qG2_nColor_7qG2_000, __D0robot_sense
18	772	222	#line 772 "C:\Users\Sakeeb\Documents\School\Fall 2017\CSCC85\Phase 1\Phase1---Little-Lost-Robot\Distro\pfilter prob.nxc"
18	772	222	#line 772 "C:\Users\Sakeeb\Documents\School\Fall 2017\CSCC85\Phase 1\Phase1---Little-Lost-Robot\Distro\pfilter prob.nxc"
18	772	222	#line 772 "C:\Users\Sakeeb\Documents\School\Fall 2017\CSCC85\Phase 1\Phase1---Little-Lost-Robot\Distro\pfilter prob.nxc"
18	773	222		mov __move_robot_7qG2_color_7qG2_000, __move_to_7qG2_nColor_7qG2_000
18	772	224	#line 772 "C:\Users\Sakeeb\Documents\School\Fall 2017\CSCC85\Phase 1\Phase1---Little-Lost-Robot\Distro\pfilter prob.nxc"
18	774	224	#line 774 "C:\Users\Sakeeb\Documents\School\Fall 2017\CSCC85\Phase 1\Phase1---Little-Lost-Robot\Distro\pfilter prob.nxc"
18	775	224		subcall move_robot, __move_robot_return
18	774	227	#line 774 "C:\Users\Sakeeb\Documents\School\Fall 2017\CSCC85\Phase 1\Phase1---Little-Lost-Robot\Distro\pfilter prob.nxc"
18	774	227	#line 774 "C:\Users\Sakeeb\Documents\School\Fall 2017\CSCC85\Phase 1\Phase1---Little-Lost-Robot\Distro\pfilter prob.nxc"
18	775	227		mov __signed_stack_001move_to, __move_to_7qG2_nColor_7qG2_000
18	774	229	#line 774 "C:\Users\Sakeeb\Documents\School\Fall 2017\CSCC85\Phase 1\Phase1---Little-Lost-Robot\Distro\pfilter prob.nxc"
18	774	229	#line 774 "C:\Users\Sakeeb\Documents\School\Fall 2017\CSCC85\Phase 1\Phase1---Little-Lost-Robot\Distro\pfilter prob.nxc"
18	775	229		set __D0move_to, 4
18	774	232	#line 774 "C:\Users\Sakeeb\Documents\School\Fall 2017\CSCC85\Phase 1\Phase1---Little-Lost-Robot\Distro\pfilter prob.nxc"
18	775	232		cmp 4, __D0move_to, __signed_stack_001move_to, __D0move_to
18	775	236	#line 775 "C:\Users\Sakeeb\Documents\School\Fall 2017\CSCC85\Phase 1\Phase1---Little-Lost-Robot\Distro\pfilter prob.nxc"
18	776	236		brtst 4, __ASM_Label_1507, __D0move_to
18	775	239	#line 775 "C:\Users\Sakeeb\Documents\School\Fall 2017\CSCC85\Phase 1\Phase1---Little-Lost-Robot\Distro\pfilter prob.nxc"
18	776	239		mov __signed_stack_001move_to, __move_to_7qG2_ty_7qG2_000
18	775	241	#line 775 "C:\Users\Sakeeb\Documents\School\Fall 2017\CSCC85\Phase 1\Phase1---Little-Lost-Robot\Distro\pfilter prob.nxc"
18	776	241	#line 776 "C:\Users\Sakeeb\Documents\School\Fall 2017\CSCC85\Phase 1\Phase1---Little-Lost-Robot\Distro\pfilter prob.nxc"
18	777	241		mov __D0move_to, __move_to_7qG2_increment_7qG2_000
18	776	243	#line 776 "C:\Users\Sakeeb\Documents\School\Fall 2017\CSCC85\Phase 1\Phase1---Little-Lost-Robot\Distro\pfilter prob.nxc"
18	777	243		add __move_to_7qG2_ty_7qG2_000, __signed_stack_001move_to, __D0move_to
18	776	247	#line 776 "C:\Users\Sakeeb\Documents\School\Fall 2017\CSCC85\Phase 1\Phase1---Little-Lost-Robot\Distro\pfilter prob.nxc"
18	776	247	#line 776 "C:\Users\Sakeeb\Documents\School\Fall 2017\CSCC85\Phase 1\Phase1---Little-Lost-Robot\Distro\pfilter prob.nxc"
18	776	247	#line 776 "C:\Users\Sakeeb\Documents\School\Fall 2017\CSCC85\Phase 1\Phase1---Little-Lost-Robot\Distro\pfilter prob.nxc"
18	777	247		set __moveForward_7qG2_seconds_7qG2_000, 16
18	776	250	#line 776 "C:\Users\Sakeeb\Documents\School\Fall 2017\CSCC85\Phase 1\Phase1---Little-Lost-Robot\Distro\pfilter prob.nxc"
18	777	250	#line 777 "C:\Users\Sakeeb\Documents\School\Fall 2017\CSCC85\Phase 1\Phase1---Little-Lost-Robot\Distro\pfilter prob.nxc"
18	778	250		subcall moveForward, __moveForward_return
18	777	253	#line 777 "C:\Users\Sakeeb\Documents\School\Fall 2017\CSCC85\Phase 1\Phase1---Little-Lost-Robot\Distro\pfilter prob.nxc"
18	778	253	#line 778 "C:\Users\Sakeeb\Documents\School\Fall 2017\CSCC85\Phase 1\Phase1---Little-Lost-Robot\Distro\pfilter prob.nxc"
18	779	253		subcall adjust, __adjust_return
18	778	256	#line 778 "C:\Users\Sakeeb\Documents\School\Fall 2017\CSCC85\Phase 1\Phase1---Little-Lost-Robot\Distro\pfilter prob.nxc"
18	782	256	#line 782 "C:\Users\Sakeeb\Documents\School\Fall 2017\CSCC85\Phase 1\Phase1---Little-Lost-Robot\Distro\pfilter prob.nxc"
18	782	256	#line 782 "C:\Users\Sakeeb\Documents\School\Fall 2017\CSCC85\Phase 1\Phase1---Little-Lost-Robot\Distro\pfilter prob.nxc"
18	783	256		jmp __ASM_Label_1495
18	782	258	#line 782 "C:\Users\Sakeeb\Documents\School\Fall 2017\CSCC85\Phase 1\Phase1---Little-Lost-Robot\Distro\pfilter prob.nxc"
18	783	258	#line 783 "C:\Users\Sakeeb\Documents\School\Fall 2017\CSCC85\Phase 1\Phase1---Little-Lost-Robot\Distro\pfilter prob.nxc"
18	784	258		mov __D0move_to, __move_to_7qG2_heading_7qG2_000
18	783	260	#line 783 "C:\Users\Sakeeb\Documents\School\Fall 2017\CSCC85\Phase 1\Phase1---Little-Lost-Robot\Distro\pfilter prob.nxc"
18	784	260		subret __move_to_return
18	783	262	#line 783 "C:\Users\Sakeeb\Documents\School\Fall 2017\CSCC85\Phase 1\Phase1---Little-Lost-Robot\Distro\pfilter prob.nxc"
18	793	262	#line 793 "C:\Users\Sakeeb\Documents\School\Fall 2017\CSCC85\Phase 1\Phase1---Little-Lost-Robot\Distro\pfilter prob.nxc"
18	794	262		subret __move_to_return
19	807	0	#line 807 "C:\Users\Sakeeb\Documents\School\Fall 2017\CSCC85\Phase 1\Phase1---Little-Lost-Robot\Distro\pfilter prob.nxc"
19	808	0		mov __signed_stack_001move, __move_7qG2_p_7qG2_000.theta
19	807	3	#line 807 "C:\Users\Sakeeb\Documents\School\Fall 2017\CSCC85\Phase 1\Phase1---Little-Lost-Robot\Distro\pfilter prob.nxc"
19	807	3	#line 807 "C:\Users\Sakeeb\Documents\School\Fall 2017\CSCC85\Phase 1\Phase1---Little-Lost-Robot\Distro\pfilter prob.nxc"
19	808	3		set __D0move, 100
19	807	6	#line 807 "C:\Users\Sakeeb\Documents\School\Fall 2017\CSCC85\Phase 1\Phase1---Little-Lost-Robot\Distro\pfilter prob.nxc"
19	808	6		cmp 4, __D0move, __signed_stack_001move, __D0move
19	809	10	#line 809 "C:\Users\Sakeeb\Documents\School\Fall 2017\CSCC85\Phase 1\Phase1---Little-Lost-Robot\Distro\pfilter prob.nxc"
19	810	10		brtst 4, __ASM_Label_1516, __D0move
19	809	13	#line 809 "C:\Users\Sakeeb\Documents\School\Fall 2017\CSCC85\Phase 1\Phase1---Little-Lost-Robot\Distro\pfilter prob.nxc"
19	810	13		mov __signed_stack_001move, __move_7qG2_p_7qG2_000.y
19	809	16	#line 809 "C:\Users\Sakeeb\Documents\School\Fall 2017\CSCC85\Phase 1\Phase1---Little-Lost-Robot\Distro\pfilter prob.nxc"
19	809	16	#line 809 "C:\Users\Sakeeb\Documents\School\Fall 2017\CSCC85\Phase 1\Phase1---Little-Lost-Robot\Distro\pfilter prob.nxc"
19	810	16		set __D0move, 1
19	809	19	#line 809 "C:\Users\Sakeeb\Documents\School\Fall 2017\CSCC85\Phase 1\Phase1---Little-Lost-Robot\Distro\pfilter prob.nxc"
19	810	19		sub __signed_stack_001move, __signed_stack_001move, __D0move
19	809	23	#line 809 "C:\Users\Sakeeb\Documents\School\Fall 2017\CSCC85\Phase 1\Phase1---Little-Lost-Robot\Distro\pfilter prob.nxc"
19	809	23	#line 809 "C:\Users\Sakeeb\Documents\School\Fall 2017\CSCC85\Phase 1\Phase1---Little-Lost-Robot\Distro\pfilter prob.nxc"
19	810	23		mov __D0move, __constValNeg1
19	809	26	#line 809 "C:\Users\Sakeeb\Documents\School\Fall 2017\CSCC85\Phase 1\Phase1---Little-Lost-Robot\Distro\pfilter prob.nxc"
19	810	26		cmp 4, __D0move, __signed_stack_001move, __D0move
19	810	30	#line 810 "C:\Users\Sakeeb\Documents\School\Fall 2017\CSCC85\Phase 1\Phase1---Little-Lost-Robot\Distro\pfilter prob.nxc"
19	811	30		brtst 4, __ASM_Label_1521, __D0move
19	811	33	#line 811 "C:\Users\Sakeeb\Documents\School\Fall 2017\CSCC85\Phase 1\Phase1---Little-Lost-Robot\Distro\pfilter prob.nxc"
19	812	33		set __move_7qG2_p_7qG2_000.theta, 102
19	811	36	#line 811 "C:\Users\Sakeeb\Documents\School\Fall 2017\CSCC85\Phase 1\Phase1---Little-Lost-Robot\Distro\pfilter prob.nxc"
19	811	36	#line 811 "C:\Users\Sakeeb\Documents\School\Fall 2017\CSCC85\Phase 1\Phase1---Little-Lost-Robot\Distro\pfilter prob.nxc"
19	813	36	#line 813 "C:\Users\Sakeeb\Documents\School\Fall 2017\CSCC85\Phase 1\Phase1---Little-Lost-Robot\Distro\pfilter prob.nxc"
19	814	36		jmp __ASM_Label_1524
19	814	38	#line 814 "C:\Users\Sakeeb\Documents\School\Fall 2017\CSCC85\Phase 1\Phase1---Little-Lost-Robot\Distro\pfilter prob.nxc"
19	815	38		sub __move_7qG2_p_7qG2_000.y, __move_7qG2_p_7qG2_000.y, __constVal1
19	814	42	#line 814 "C:\Users\Sakeeb\Documents\School\Fall 2017\CSCC85\Phase 1\Phase1---Little-Lost-Robot\Distro\pfilter prob.nxc"
19	818	42	#line 818 "C:\Users\Sakeeb\Documents\School\Fall 2017\CSCC85\Phase 1\Phase1---Little-Lost-Robot\Distro\pfilter prob.nxc"
19	818	42	#line 818 "C:\Users\Sakeeb\Documents\School\Fall 2017\CSCC85\Phase 1\Phase1---Little-Lost-Robot\Distro\pfilter prob.nxc"
19	819	42		jmp __ASM_Label_1525
19	818	44	#line 818 "C:\Users\Sakeeb\Documents\School\Fall 2017\CSCC85\Phase 1\Phase1---Little-Lost-Robot\Distro\pfilter prob.nxc"
19	819	44		mov __signed_stack_001move, __move_7qG2_p_7qG2_000.theta
19	818	47	#line 818 "C:\Users\Sakeeb\Documents\School\Fall 2017\CSCC85\Phase 1\Phase1---Little-Lost-Robot\Distro\pfilter prob.nxc"
19	818	47	#line 818 "C:\Users\Sakeeb\Documents\School\Fall 2017\CSCC85\Phase 1\Phase1---Little-Lost-Robot\Distro\pfilter prob.nxc"
19	819	47		set __D0move, 101
19	818	50	#line 818 "C:\Users\Sakeeb\Documents\School\Fall 2017\CSCC85\Phase 1\Phase1---Little-Lost-Robot\Distro\pfilter prob.nxc"
19	819	50		cmp 4, __D0move, __signed_stack_001move, __D0move
19	820	54	#line 820 "C:\Users\Sakeeb\Documents\School\Fall 2017\CSCC85\Phase 1\Phase1---Little-Lost-Robot\Distro\pfilter prob.nxc"
19	821	54		brtst 4, __ASM_Label_1528, __D0move
19	820	57	#line 820 "C:\Users\Sakeeb\Documents\School\Fall 2017\CSCC85\Phase 1\Phase1---Little-Lost-Robot\Distro\pfilter prob.nxc"
19	821	57		mov __signed_stack_001move, __move_7qG2_p_7qG2_000.x
19	820	60	#line 820 "C:\Users\Sakeeb\Documents\School\Fall 2017\CSCC85\Phase 1\Phase1---Little-Lost-Robot\Distro\pfilter prob.nxc"
19	820	60	#line 820 "C:\Users\Sakeeb\Documents\School\Fall 2017\CSCC85\Phase 1\Phase1---Little-Lost-Robot\Distro\pfilter prob.nxc"
19	821	60		set __D0move, 1
19	820	63	#line 820 "C:\Users\Sakeeb\Documents\School\Fall 2017\CSCC85\Phase 1\Phase1---Little-Lost-Robot\Distro\pfilter prob.nxc"
19	821	63		add __signed_stack_001move, __signed_stack_001move, __D0move
19	820	67	#line 820 "C:\Users\Sakeeb\Documents\School\Fall 2017\CSCC85\Phase 1\Phase1---Little-Lost-Robot\Distro\pfilter prob.nxc"
19	820	67	#line 820 "C:\Users\Sakeeb\Documents\School\Fall 2017\CSCC85\Phase 1\Phase1---Little-Lost-Robot\Distro\pfilter prob.nxc"
19	821	67		set __D0move, 3
19	820	70	#line 820 "C:\Users\Sakeeb\Documents\School\Fall 2017\CSCC85\Phase 1\Phase1---Little-Lost-Robot\Distro\pfilter prob.nxc"
19	821	70		cmp 4, __D0move, __signed_stack_001move, __D0move
19	821	74	#line 821 "C:\Users\Sakeeb\Documents\School\Fall 2017\CSCC85\Phase 1\Phase1---Little-Lost-Robot\Distro\pfilter prob.nxc"
19	822	74		brtst 4, __ASM_Label_1533, __D0move
19	822	77	#line 822 "C:\Users\Sakeeb\Documents\School\Fall 2017\CSCC85\Phase 1\Phase1---Little-Lost-Robot\Distro\pfilter prob.nxc"
19	823	77		set __move_7qG2_p_7qG2_000.theta, 103
19	822	80	#line 822 "C:\Users\Sakeeb\Documents\School\Fall 2017\CSCC85\Phase 1\Phase1---Little-Lost-Robot\Distro\pfilter prob.nxc"
19	822	80	#line 822 "C:\Users\Sakeeb\Documents\School\Fall 2017\CSCC85\Phase 1\Phase1---Little-Lost-Robot\Distro\pfilter prob.nxc"
19	824	80	#line 824 "C:\Users\Sakeeb\Documents\School\Fall 2017\CSCC85\Phase 1\Phase1---Little-Lost-Robot\Distro\pfilter prob.nxc"
19	825	80		jmp __ASM_Label_1536
19	825	82	#line 825 "C:\Users\Sakeeb\Documents\School\Fall 2017\CSCC85\Phase 1\Phase1---Little-Lost-Robot\Distro\pfilter prob.nxc"
19	826	82		add __move_7qG2_p_7qG2_000.x, __move_7qG2_p_7qG2_000.x, __constVal1
19	825	86	#line 825 "C:\Users\Sakeeb\Documents\School\Fall 2017\CSCC85\Phase 1\Phase1---Little-Lost-Robot\Distro\pfilter prob.nxc"
19	828	86	#line 828 "C:\Users\Sakeeb\Documents\School\Fall 2017\CSCC85\Phase 1\Phase1---Little-Lost-Robot\Distro\pfilter prob.nxc"
19	828	86	#line 828 "C:\Users\Sakeeb\Documents\School\Fall 2017\CSCC85\Phase 1\Phase1---Little-Lost-Robot\Distro\pfilter prob.nxc"
19	829	86		jmp __ASM_Label_1537
19	828	88	#line 828 "C:\Users\Sakeeb\Documents\School\Fall 2017\CSCC85\Phase 1\Phase1---Little-Lost-Robot\Distro\pfilter prob.nxc"
19	829	88		mov __signed_stack_001move, __move_7qG2_p_7qG2_000.theta
19	828	91	#line 828 "C:\Users\Sakeeb\Documents\School\Fall 2017\CSCC85\Phase 1\Phase1---Little-Lost-Robot\Distro\pfilter prob.nxc"
19	828	91	#line 828 "C:\Users\Sakeeb\Documents\School\Fall 2017\CSCC85\Phase 1\Phase1---Little-Lost-Robot\Distro\pfilter prob.nxc"
19	829	91		set __D0move, 102
19	828	94	#line 828 "C:\Users\Sakeeb\Documents\School\Fall 2017\CSCC85\Phase 1\Phase1---Little-Lost-Robot\Distro\pfilter prob.nxc"
19	829	94		cmp 4, __D0move, __signed_stack_001move, __D0move
19	830	98	#line 830 "C:\Users\Sakeeb\Documents\School\Fall 2017\CSCC85\Phase 1\Phase1---Little-Lost-Robot\Distro\pfilter prob.nxc"
19	831	98		brtst 4, __ASM_Label_1540, __D0move
19	830	101	#line 830 "C:\Users\Sakeeb\Documents\School\Fall 2017\CSCC85\Phase 1\Phase1---Little-Lost-Robot\Distro\pfilter prob.nxc"
19	831	101		mov __signed_stack_001move, __move_7qG2_p_7qG2_000.y
19	830	104	#line 830 "C:\Users\Sakeeb\Documents\School\Fall 2017\CSCC85\Phase 1\Phase1---Little-Lost-Robot\Distro\pfilter prob.nxc"
19	830	104	#line 830 "C:\Users\Sakeeb\Documents\School\Fall 2017\CSCC85\Phase 1\Phase1---Little-Lost-Robot\Distro\pfilter prob.nxc"
19	831	104		set __D0move, 1
19	830	107	#line 830 "C:\Users\Sakeeb\Documents\School\Fall 2017\CSCC85\Phase 1\Phase1---Little-Lost-Robot\Distro\pfilter prob.nxc"
19	831	107		add __signed_stack_001move, __signed_stack_001move, __D0move
19	830	111	#line 830 "C:\Users\Sakeeb\Documents\School\Fall 2017\CSCC85\Phase 1\Phase1---Little-Lost-Robot\Distro\pfilter prob.nxc"
19	830	111	#line 830 "C:\Users\Sakeeb\Documents\School\Fall 2017\CSCC85\Phase 1\Phase1---Little-Lost-Robot\Distro\pfilter prob.nxc"
19	831	111		set __D0move, 5
19	830	114	#line 830 "C:\Users\Sakeeb\Documents\School\Fall 2017\CSCC85\Phase 1\Phase1---Little-Lost-Robot\Distro\pfilter prob.nxc"
19	831	114		cmp 4, __D0move, __signed_stack_001move, __D0move
19	831	118	#line 831 "C:\Users\Sakeeb\Documents\School\Fall 2017\CSCC85\Phase 1\Phase1---Little-Lost-Robot\Distro\pfilter prob.nxc"
19	832	118		brtst 4, __ASM_Label_1545, __D0move
19	832	121	#line 832 "C:\Users\Sakeeb\Documents\School\Fall 2017\CSCC85\Phase 1\Phase1---Little-Lost-Robot\Distro\pfilter prob.nxc"
19	833	121		set __move_7qG2_p_7qG2_000.theta, 100
19	832	124	#line 832 "C:\Users\Sakeeb\Documents\School\Fall 2017\CSCC85\Phase 1\Phase1---Little-Lost-Robot\Distro\pfilter prob.nxc"
19	832	124	#line 832 "C:\Users\Sakeeb\Documents\School\Fall 2017\CSCC85\Phase 1\Phase1---Little-Lost-Robot\Distro\pfilter prob.nxc"
19	834	124	#line 834 "C:\Users\Sakeeb\Documents\School\Fall 2017\CSCC85\Phase 1\Phase1---Little-Lost-Robot\Distro\pfilter prob.nxc"
19	835	124		jmp __ASM_Label_1548
19	835	126	#line 835 "C:\Users\Sakeeb\Documents\School\Fall 2017\CSCC85\Phase 1\Phase1---Little-Lost-Robot\Distro\pfilter prob.nxc"
19	836	126		add __move_7qG2_p_7qG2_000.y, __move_7qG2_p_7qG2_000.y, __constVal1
19	835	130	#line 835 "C:\Users\Sakeeb\Documents\School\Fall 2017\CSCC85\Phase 1\Phase1---Little-Lost-Robot\Distro\pfilter prob.nxc"
19	839	130	#line 839 "C:\Users\Sakeeb\Documents\School\Fall 2017\CSCC85\Phase 1\Phase1---Little-Lost-Robot\Distro\pfilter prob.nxc"
19	839	130	#line 839 "C:\Users\Sakeeb\Documents\School\Fall 2017\CSCC85\Phase 1\Phase1---Little-Lost-Robot\Distro\pfilter prob.nxc"
19	840	130		jmp __ASM_Label_1549
19	839	132	#line 839 "C:\Users\Sakeeb\Documents\School\Fall 2017\CSCC85\Phase 1\Phase1---Little-Lost-Robot\Distro\pfilter prob.nxc"
19	840	132		mov __signed_stack_001move, __move_7qG2_p_7qG2_000.theta
19	839	135	#line 839 "C:\Users\Sakeeb\Documents\School\Fall 2017\CSCC85\Phase 1\Phase1---Little-Lost-Robot\Distro\pfilter prob.nxc"
19	839	135	#line 839 "C:\Users\Sakeeb\Documents\School\Fall 2017\CSCC85\Phase 1\Phase1---Little-Lost-Robot\Distro\pfilter prob.nxc"
19	840	135		set __D0move, 103
19	839	138	#line 839 "C:\Users\Sakeeb\Documents\School\Fall 2017\CSCC85\Phase 1\Phase1---Little-Lost-Robot\Distro\pfilter prob.nxc"
19	840	138		cmp 4, __D0move, __signed_stack_001move, __D0move
19	841	142	#line 841 "C:\Users\Sakeeb\Documents\School\Fall 2017\CSCC85\Phase 1\Phase1---Little-Lost-Robot\Distro\pfilter prob.nxc"
19	842	142		brtst 4, __ASM_Label_1552, __D0move
19	841	145	#line 841 "C:\Users\Sakeeb\Documents\School\Fall 2017\CSCC85\Phase 1\Phase1---Little-Lost-Robot\Distro\pfilter prob.nxc"
19	842	145		mov __signed_stack_001move, __move_7qG2_p_7qG2_000.x
19	841	148	#line 841 "C:\Users\Sakeeb\Documents\School\Fall 2017\CSCC85\Phase 1\Phase1---Little-Lost-Robot\Distro\pfilter prob.nxc"
19	841	148	#line 841 "C:\Users\Sakeeb\Documents\School\Fall 2017\CSCC85\Phase 1\Phase1---Little-Lost-Robot\Distro\pfilter prob.nxc"
19	842	148		set __D0move, 1
19	841	151	#line 841 "C:\Users\Sakeeb\Documents\School\Fall 2017\CSCC85\Phase 1\Phase1---Little-Lost-Robot\Distro\pfilter prob.nxc"
19	842	151		sub __signed_stack_001move, __signed_stack_001move, __D0move
19	841	155	#line 841 "C:\Users\Sakeeb\Documents\School\Fall 2017\CSCC85\Phase 1\Phase1---Little-Lost-Robot\Distro\pfilter prob.nxc"
19	841	155	#line 841 "C:\Users\Sakeeb\Documents\School\Fall 2017\CSCC85\Phase 1\Phase1---Little-Lost-Robot\Distro\pfilter prob.nxc"
19	842	155		mov __D0move, __constValNeg1
19	841	158	#line 841 "C:\Users\Sakeeb\Documents\School\Fall 2017\CSCC85\Phase 1\Phase1---Little-Lost-Robot\Distro\pfilter prob.nxc"
19	842	158		cmp 4, __D0move, __signed_stack_001move, __D0move
19	842	162	#line 842 "C:\Users\Sakeeb\Documents\School\Fall 2017\CSCC85\Phase 1\Phase1---Little-Lost-Robot\Distro\pfilter prob.nxc"
19	843	162		brtst 4, __ASM_Label_1557, __D0move
19	843	165	#line 843 "C:\Users\Sakeeb\Documents\School\Fall 2017\CSCC85\Phase 1\Phase1---Little-Lost-Robot\Distro\pfilter prob.nxc"
19	844	165		set __move_7qG2_p_7qG2_000.theta, 101
19	843	168	#line 843 "C:\Users\Sakeeb\Documents\School\Fall 2017\CSCC85\Phase 1\Phase1---Little-Lost-Robot\Distro\pfilter prob.nxc"
19	843	168	#line 843 "C:\Users\Sakeeb\Documents\School\Fall 2017\CSCC85\Phase 1\Phase1---Little-Lost-Robot\Distro\pfilter prob.nxc"
19	845	168	#line 845 "C:\Users\Sakeeb\Documents\School\Fall 2017\CSCC85\Phase 1\Phase1---Little-Lost-Robot\Distro\pfilter prob.nxc"
19	846	168		jmp __ASM_Label_1560
19	846	170	#line 846 "C:\Users\Sakeeb\Documents\School\Fall 2017\CSCC85\Phase 1\Phase1---Little-Lost-Robot\Distro\pfilter prob.nxc"
19	847	170		sub __move_7qG2_p_7qG2_000.x, __move_7qG2_p_7qG2_000.x, __constVal1
19	846	174	#line 846 "C:\Users\Sakeeb\Documents\School\Fall 2017\CSCC85\Phase 1\Phase1---Little-Lost-Robot\Distro\pfilter prob.nxc"
19	851	174	#line 851 "C:\Users\Sakeeb\Documents\School\Fall 2017\CSCC85\Phase 1\Phase1---Little-Lost-Robot\Distro\pfilter prob.nxc"
19	851	174	#line 851 "C:\Users\Sakeeb\Documents\School\Fall 2017\CSCC85\Phase 1\Phase1---Little-Lost-Robot\Distro\pfilter prob.nxc"
19	851	174	#line 851 "C:\Users\Sakeeb\Documents\School\Fall 2017\CSCC85\Phase 1\Phase1---Little-Lost-Robot\Distro\pfilter prob.nxc"
19	851	174	#line 851 "C:\Users\Sakeeb\Documents\School\Fall 2017\CSCC85\Phase 1\Phase1---Little-Lost-Robot\Distro\pfilter prob.nxc"
19	851	174	#line 851 "C:\Users\Sakeeb\Documents\School\Fall 2017\CSCC85\Phase 1\Phase1---Little-Lost-Robot\Distro\pfilter prob.nxc"
19	852	174	#line 852 "C:\Users\Sakeeb\Documents\School\Fall 2017\CSCC85\Phase 1\Phase1---Little-Lost-Robot\Distro\pfilter prob.nxc"
19	853	174		mov __result_move, __move_7qG2_p_7qG2_000
19	852	176	#line 852 "C:\Users\Sakeeb\Documents\School\Fall 2017\CSCC85\Phase 1\Phase1---Little-Lost-Robot\Distro\pfilter prob.nxc"
19	853	176		subret __move_return
19	852	178	#line 852 "C:\Users\Sakeeb\Documents\School\Fall 2017\CSCC85\Phase 1\Phase1---Little-Lost-Robot\Distro\pfilter prob.nxc"
19	866	178	#line 866 "C:\Users\Sakeeb\Documents\School\Fall 2017\CSCC85\Phase 1\Phase1---Little-Lost-Robot\Distro\pfilter prob.nxc"
19	867	178		subret __move_return
20	890	0	#line 890 "C:\Users\Sakeeb\Documents\School\Fall 2017\CSCC85\Phase 1\Phase1---Little-Lost-Robot\Distro\pfilter prob.nxc"
20	891	0		set __signed_stack_001sense, 5
20	890	3	#line 890 "C:\Users\Sakeeb\Documents\School\Fall 2017\CSCC85\Phase 1\Phase1---Little-Lost-Robot\Distro\pfilter prob.nxc"
20	890	3	#line 890 "C:\Users\Sakeeb\Documents\School\Fall 2017\CSCC85\Phase 1\Phase1---Little-Lost-Robot\Distro\pfilter prob.nxc"
20	891	3		mov __D0sense, __sense_7qG2_x_7qG2_000
20	890	5	#line 890 "C:\Users\Sakeeb\Documents\School\Fall 2017\CSCC85\Phase 1\Phase1---Little-Lost-Robot\Distro\pfilter prob.nxc"
20	891	5		mul __signed_stack_001sense, __signed_stack_001sense, __D0sense
20	890	9	#line 890 "C:\Users\Sakeeb\Documents\School\Fall 2017\CSCC85\Phase 1\Phase1---Little-Lost-Robot\Distro\pfilter prob.nxc"
20	890	9	#line 890 "C:\Users\Sakeeb\Documents\School\Fall 2017\CSCC85\Phase 1\Phase1---Little-Lost-Robot\Distro\pfilter prob.nxc"
20	891	9		mov __D0sense, __sense_7qG2_y_7qG2_000
20	890	11	#line 890 "C:\Users\Sakeeb\Documents\School\Fall 2017\CSCC85\Phase 1\Phase1---Little-Lost-Robot\Distro\pfilter prob.nxc"
20	891	11		add __sense_7qG2_func_7qG2_000, __signed_stack_001sense, __D0sense
20	893	15	#line 893 "C:\Users\Sakeeb\Documents\School\Fall 2017\CSCC85\Phase 1\Phase1---Little-Lost-Robot\Distro\pfilter prob.nxc"
20	893	15	#line 893 "C:\Users\Sakeeb\Documents\School\Fall 2017\CSCC85\Phase 1\Phase1---Little-Lost-Robot\Distro\pfilter prob.nxc"
20	893	15	#line 893 "C:\Users\Sakeeb\Documents\School\Fall 2017\CSCC85\Phase 1\Phase1---Little-Lost-Robot\Distro\pfilter prob.nxc"
20	894	15		mov __signed_stack_001sense, __sense_7qG2_func_7qG2_000
20	893	17	#line 893 "C:\Users\Sakeeb\Documents\School\Fall 2017\CSCC85\Phase 1\Phase1---Little-Lost-Robot\Distro\pfilter prob.nxc"
20	893	17	#line 893 "C:\Users\Sakeeb\Documents\School\Fall 2017\CSCC85\Phase 1\Phase1---Little-Lost-Robot\Distro\pfilter prob.nxc"
20	894	17		index __sense_7qG2_curr_7qG2_000, __sense_7qG2_map_7qG2_000, __signed_stack_001sense
20	893	21	#line 893 "C:\Users\Sakeeb\Documents\School\Fall 2017\CSCC85\Phase 1\Phase1---Little-Lost-Robot\Distro\pfilter prob.nxc"
20	896	21	#line 896 "C:\Users\Sakeeb\Documents\School\Fall 2017\CSCC85\Phase 1\Phase1---Little-Lost-Robot\Distro\pfilter prob.nxc"
20	896	21	#line 896 "C:\Users\Sakeeb\Documents\School\Fall 2017\CSCC85\Phase 1\Phase1---Little-Lost-Robot\Distro\pfilter prob.nxc"
20	897	21		mov __signed_stack_001sense, __sense_7qG2_dir_7qG2_000
20	896	23	#line 896 "C:\Users\Sakeeb\Documents\School\Fall 2017\CSCC85\Phase 1\Phase1---Little-Lost-Robot\Distro\pfilter prob.nxc"
20	896	23	#line 896 "C:\Users\Sakeeb\Documents\School\Fall 2017\CSCC85\Phase 1\Phase1---Little-Lost-Robot\Distro\pfilter prob.nxc"
20	897	23		set __D0sense, 1000
20	896	26	#line 896 "C:\Users\Sakeeb\Documents\School\Fall 2017\CSCC85\Phase 1\Phase1---Little-Lost-Robot\Distro\pfilter prob.nxc"
20	897	26		sub __signed_stack_001sense, __signed_stack_001sense, __D0sense
20	896	30	#line 896 "C:\Users\Sakeeb\Documents\School\Fall 2017\CSCC85\Phase 1\Phase1---Little-Lost-Robot\Distro\pfilter prob.nxc"
20	896	30	#line 896 "C:\Users\Sakeeb\Documents\School\Fall 2017\CSCC85\Phase 1\Phase1---Little-Lost-Robot\Distro\pfilter prob.nxc"
20	897	30		mov __D0sense, __sense_7qG2_heading_7qG2_000
20	896	32	#line 896 "C:\Users\Sakeeb\Documents\School\Fall 2017\CSCC85\Phase 1\Phase1---Little-Lost-Robot\Distro\pfilter prob.nxc"
20	897	32		add __signed_stack_001sense, __signed_stack_001sense, __D0sense
20	896	36	#line 896 "C:\Users\Sakeeb\Documents\School\Fall 2017\CSCC85\Phase 1\Phase1---Little-Lost-Robot\Distro\pfilter prob.nxc"
20	896	36	#line 896 "C:\Users\Sakeeb\Documents\School\Fall 2017\CSCC85\Phase 1\Phase1---Little-Lost-Robot\Distro\pfilter prob.nxc"
20	897	36		set __D0sense, 100
20	896	39	#line 896 "C:\Users\Sakeeb\Documents\School\Fall 2017\CSCC85\Phase 1\Phase1---Little-Lost-Robot\Distro\pfilter prob.nxc"
20	897	39		sub __signed_stack_001sense, __signed_stack_001sense, __D0sense
20	896	43	#line 896 "C:\Users\Sakeeb\Documents\School\Fall 2017\CSCC85\Phase 1\Phase1---Little-Lost-Robot\Distro\pfilter prob.nxc"
20	898	43	#line 898 "C:\Users\Sakeeb\Documents\School\Fall 2017\CSCC85\Phase 1\Phase1---Little-Lost-Robot\Distro\pfilter prob.nxc"
20	899	43		set __D0sense, 4
20	898	46	#line 898 "C:\Users\Sakeeb\Documents\School\Fall 2017\CSCC85\Phase 1\Phase1---Little-Lost-Robot\Distro\pfilter prob.nxc"
20	899	46		mod __sense_7qG2_out_7qG2_000, __signed_stack_001sense, __D0sense
20	898	50	#line 898 "C:\Users\Sakeeb\Documents\School\Fall 2017\CSCC85\Phase 1\Phase1---Little-Lost-Robot\Distro\pfilter prob.nxc"
20	898	50	#line 898 "C:\Users\Sakeeb\Documents\School\Fall 2017\CSCC85\Phase 1\Phase1---Little-Lost-Robot\Distro\pfilter prob.nxc"
20	899	50		mov __signed_stack_001sense, __sense_7qG2_out_7qG2_000
20	898	52	#line 898 "C:\Users\Sakeeb\Documents\School\Fall 2017\CSCC85\Phase 1\Phase1---Little-Lost-Robot\Distro\pfilter prob.nxc"
20	898	52	#line 898 "C:\Users\Sakeeb\Documents\School\Fall 2017\CSCC85\Phase 1\Phase1---Little-Lost-Robot\Distro\pfilter prob.nxc"
20	899	52		set __D0sense, 0
20	898	55	#line 898 "C:\Users\Sakeeb\Documents\School\Fall 2017\CSCC85\Phase 1\Phase1---Little-Lost-Robot\Distro\pfilter prob.nxc"
20	899	55		cmp 4, __D0sense, __signed_stack_001sense, __D0sense
20	899	59	#line 899 "C:\Users\Sakeeb\Documents\School\Fall 2017\CSCC85\Phase 1\Phase1---Little-Lost-Robot\Distro\pfilter prob.nxc"
20	900	59		brtst 4, __ASM_Label_1575, __D0sense
20	900	62	#line 900 "C:\Users\Sakeeb\Documents\School\Fall 2017\CSCC85\Phase 1\Phase1---Little-Lost-Robot\Distro\pfilter prob.nxc"
20	901	62		mov __D0sense, __sense_7qG2_curr_7qG2_000.NE
20	900	65	#line 900 "C:\Users\Sakeeb\Documents\School\Fall 2017\CSCC85\Phase 1\Phase1---Little-Lost-Robot\Distro\pfilter prob.nxc"
20	901	65		subret __sense_return
20	900	67	#line 900 "C:\Users\Sakeeb\Documents\School\Fall 2017\CSCC85\Phase 1\Phase1---Little-Lost-Robot\Distro\pfilter prob.nxc"
20	901	67	#line 901 "C:\Users\Sakeeb\Documents\School\Fall 2017\CSCC85\Phase 1\Phase1---Little-Lost-Robot\Distro\pfilter prob.nxc"
20	902	67		jmp __ASM_Label_1578
20	901	69	#line 901 "C:\Users\Sakeeb\Documents\School\Fall 2017\CSCC85\Phase 1\Phase1---Little-Lost-Robot\Distro\pfilter prob.nxc"
20	902	69		mov __signed_stack_001sense, __sense_7qG2_out_7qG2_000
20	901	71	#line 901 "C:\Users\Sakeeb\Documents\School\Fall 2017\CSCC85\Phase 1\Phase1---Little-Lost-Robot\Distro\pfilter prob.nxc"
20	901	71	#line 901 "C:\Users\Sakeeb\Documents\School\Fall 2017\CSCC85\Phase 1\Phase1---Little-Lost-Robot\Distro\pfilter prob.nxc"
20	902	71		set __D0sense, 1
20	901	74	#line 901 "C:\Users\Sakeeb\Documents\School\Fall 2017\CSCC85\Phase 1\Phase1---Little-Lost-Robot\Distro\pfilter prob.nxc"
20	902	74		cmp 4, __D0sense, __signed_stack_001sense, __D0sense
20	902	78	#line 902 "C:\Users\Sakeeb\Documents\School\Fall 2017\CSCC85\Phase 1\Phase1---Little-Lost-Robot\Distro\pfilter prob.nxc"
20	903	78		brtst 4, __ASM_Label_1581, __D0sense
20	903	81	#line 903 "C:\Users\Sakeeb\Documents\School\Fall 2017\CSCC85\Phase 1\Phase1---Little-Lost-Robot\Distro\pfilter prob.nxc"
20	904	81		mov __D0sense, __sense_7qG2_curr_7qG2_000.SE
20	903	84	#line 903 "C:\Users\Sakeeb\Documents\School\Fall 2017\CSCC85\Phase 1\Phase1---Little-Lost-Robot\Distro\pfilter prob.nxc"
20	904	84		subret __sense_return
20	903	86	#line 903 "C:\Users\Sakeeb\Documents\School\Fall 2017\CSCC85\Phase 1\Phase1---Little-Lost-Robot\Distro\pfilter prob.nxc"
20	904	86	#line 904 "C:\Users\Sakeeb\Documents\School\Fall 2017\CSCC85\Phase 1\Phase1---Little-Lost-Robot\Distro\pfilter prob.nxc"
20	905	86		jmp __ASM_Label_1584
20	904	88	#line 904 "C:\Users\Sakeeb\Documents\School\Fall 2017\CSCC85\Phase 1\Phase1---Little-Lost-Robot\Distro\pfilter prob.nxc"
20	905	88		mov __signed_stack_001sense, __sense_7qG2_out_7qG2_000
20	904	90	#line 904 "C:\Users\Sakeeb\Documents\School\Fall 2017\CSCC85\Phase 1\Phase1---Little-Lost-Robot\Distro\pfilter prob.nxc"
20	904	90	#line 904 "C:\Users\Sakeeb\Documents\School\Fall 2017\CSCC85\Phase 1\Phase1---Little-Lost-Robot\Distro\pfilter prob.nxc"
20	905	90		set __D0sense, 2
20	904	93	#line 904 "C:\Users\Sakeeb\Documents\School\Fall 2017\CSCC85\Phase 1\Phase1---Little-Lost-Robot\Distro\pfilter prob.nxc"
20	905	93		cmp 4, __D0sense, __signed_stack_001sense, __D0sense
20	905	97	#line 905 "C:\Users\Sakeeb\Documents\School\Fall 2017\CSCC85\Phase 1\Phase1---Little-Lost-Robot\Distro\pfilter prob.nxc"
20	906	97		brtst 4, __ASM_Label_1587, __D0sense
20	906	100	#line 906 "C:\Users\Sakeeb\Documents\School\Fall 2017\CSCC85\Phase 1\Phase1---Little-Lost-Robot\Distro\pfilter prob.nxc"
20	907	100		mov __D0sense, __sense_7qG2_curr_7qG2_000.SW
20	906	103	#line 906 "C:\Users\Sakeeb\Documents\School\Fall 2017\CSCC85\Phase 1\Phase1---Little-Lost-Robot\Distro\pfilter prob.nxc"
20	907	103		subret __sense_return
20	906	105	#line 906 "C:\Users\Sakeeb\Documents\School\Fall 2017\CSCC85\Phase 1\Phase1---Little-Lost-Robot\Distro\pfilter prob.nxc"
20	907	105	#line 907 "C:\Users\Sakeeb\Documents\School\Fall 2017\CSCC85\Phase 1\Phase1---Little-Lost-Robot\Distro\pfilter prob.nxc"
20	908	105		jmp __ASM_Label_1590
20	907	107	#line 907 "C:\Users\Sakeeb\Documents\School\Fall 2017\CSCC85\Phase 1\Phase1---Little-Lost-Robot\Distro\pfilter prob.nxc"
20	908	107		mov __signed_stack_001sense, __sense_7qG2_out_7qG2_000
20	907	109	#line 907 "C:\Users\Sakeeb\Documents\School\Fall 2017\CSCC85\Phase 1\Phase1---Little-Lost-Robot\Distro\pfilter prob.nxc"
20	907	109	#line 907 "C:\Users\Sakeeb\Documents\School\Fall 2017\CSCC85\Phase 1\Phase1---Little-Lost-Robot\Distro\pfilter prob.nxc"
20	908	109		set __D0sense, 3
20	907	112	#line 907 "C:\Users\Sakeeb\Documents\School\Fall 2017\CSCC85\Phase 1\Phase1---Little-Lost-Robot\Distro\pfilter prob.nxc"
20	908	112		cmp 4, __D0sense, __signed_stack_001sense, __D0sense
20	908	116	#line 908 "C:\Users\Sakeeb\Documents\School\Fall 2017\CSCC85\Phase 1\Phase1---Little-Lost-Robot\Distro\pfilter prob.nxc"
20	909	116		brtst 4, __ASM_Label_1593, __D0sense
20	909	119	#line 909 "C:\Users\Sakeeb\Documents\School\Fall 2017\CSCC85\Phase 1\Phase1---Little-Lost-Robot\Distro\pfilter prob.nxc"
20	910	119		mov __D0sense, __sense_7qG2_curr_7qG2_000.NW
20	909	122	#line 909 "C:\Users\Sakeeb\Documents\School\Fall 2017\CSCC85\Phase 1\Phase1---Little-Lost-Robot\Distro\pfilter prob.nxc"
20	910	122		subret __sense_return
20	909	124	#line 909 "C:\Users\Sakeeb\Documents\School\Fall 2017\CSCC85\Phase 1\Phase1---Little-Lost-Robot\Distro\pfilter prob.nxc"
20	915	124	#line 915 "C:\Users\Sakeeb\Documents\School\Fall 2017\CSCC85\Phase 1\Phase1---Little-Lost-Robot\Distro\pfilter prob.nxc"
20	915	124	#line 915 "C:\Users\Sakeeb\Documents\School\Fall 2017\CSCC85\Phase 1\Phase1---Little-Lost-Robot\Distro\pfilter prob.nxc"
20	915	124	#line 915 "C:\Users\Sakeeb\Documents\School\Fall 2017\CSCC85\Phase 1\Phase1---Little-Lost-Robot\Distro\pfilter prob.nxc"
20	915	124	#line 915 "C:\Users\Sakeeb\Documents\School\Fall 2017\CSCC85\Phase 1\Phase1---Little-Lost-Robot\Distro\pfilter prob.nxc"
20	915	124	#line 915 "C:\Users\Sakeeb\Documents\School\Fall 2017\CSCC85\Phase 1\Phase1---Little-Lost-Robot\Distro\pfilter prob.nxc"
20	916	124		subret __sense_return
21	1195	0	#line 1195 "C:\Users\Sakeeb\Documents\School\Fall 2017\CSCC85\Phase 1\Phase1---Little-Lost-Robot\Distro\pfilter prob.nxc"
21	1196	0		subret ____initialize_global_data_return
#CLUMPS
Clump	Name	Offset	File
0	main	0	C:\Users\Sakeeb\Documents\School\Fall 2017\CSCC85\Phase 1\Phase1---Little-Lost-Robot\Distro\pfilter prob.nxc
1	__ResetSensorSubroutine	2072	NXTDefs.h
2	__readStringLine	2085	NXTDefs.h
3	fopen	2134	NXCDefs.h
4	victory	2220	C:\Users\Sakeeb\Documents\School\Fall 2017\CSCC85\Phase 1\Phase1---Little-Lost-Robot\Distro\pfilter prob.nxc
5	package	3722	C:\Users\Sakeeb\Documents\School\Fall 2017\CSCC85\Phase 1\Phase1---Little-Lost-Robot\Distro\pfilter prob.nxc
6	found	3876	C:\Users\Sakeeb\Documents\School\Fall 2017\CSCC85\Phase 1\Phase1---Little-Lost-Robot\Distro\pfilter prob.nxc
7	moveForward	4106	C:\Users\Sakeeb\Documents\School\Fall 2017\CSCC85\Phase 1\Phase1---Little-Lost-Robot\Distro\pfilter prob.nxc
8	moveBackward	4169	C:\Users\Sakeeb\Documents\School\Fall 2017\CSCC85\Phase 1\Phase1---Little-Lost-Robot\Distro\pfilter prob.nxc
9	turnRight	4237	C:\Users\Sakeeb\Documents\School\Fall 2017\CSCC85\Phase 1\Phase1---Little-Lost-Robot\Distro\pfilter prob.nxc
10	turnLeft	4331	C:\Users\Sakeeb\Documents\School\Fall 2017\CSCC85\Phase 1\Phase1---Little-Lost-Robot\Distro\pfilter prob.nxc
11	robot_sense	4425	C:\Users\Sakeeb\Documents\School\Fall 2017\CSCC85\Phase 1\Phase1---Little-Lost-Robot\Distro\pfilter prob.nxc
12	find_left	4842	C:\Users\Sakeeb\Documents\School\Fall 2017\CSCC85\Phase 1\Phase1---Little-Lost-Robot\Distro\pfilter prob.nxc
13	find_right	5035	C:\Users\Sakeeb\Documents\School\Fall 2017\CSCC85\Phase 1\Phase1---Little-Lost-Robot\Distro\pfilter prob.nxc
14	adjust	5178	C:\Users\Sakeeb\Documents\School\Fall 2017\CSCC85\Phase 1\Phase1---Little-Lost-Robot\Distro\pfilter prob.nxc
15	move_robot	5657	C:\Users\Sakeeb\Documents\School\Fall 2017\CSCC85\Phase 1\Phase1---Little-Lost-Robot\Distro\pfilter prob.nxc
16	scan_surroundings	5768	C:\Users\Sakeeb\Documents\School\Fall 2017\CSCC85\Phase 1\Phase1---Little-Lost-Robot\Distro\pfilter prob.nxc
17	change_direction	5907	C:\Users\Sakeeb\Documents\School\Fall 2017\CSCC85\Phase 1\Phase1---Little-Lost-Robot\Distro\pfilter prob.nxc
18	move_to	6009	C:\Users\Sakeeb\Documents\School\Fall 2017\CSCC85\Phase 1\Phase1---Little-Lost-Robot\Distro\pfilter prob.nxc
19	move	6273	C:\Users\Sakeeb\Documents\School\Fall 2017\CSCC85\Phase 1\Phase1---Little-Lost-Robot\Distro\pfilter prob.nxc
20	sense	6453	C:\Users\Sakeeb\Documents\School\Fall 2017\CSCC85\Phase 1\Phase1---Little-Lost-Robot\Distro\pfilter prob.nxc
21	__initialize_global_data	6579	C:\Users\Sakeeb\Documents\School\Fall 2017\CSCC85\Phase 1\Phase1---Little-Lost-Robot\Distro\pfilter prob.nxc
